
tflite-micro/gen/riscv32_generic_riscv32-unknown-elf_default_gcc/bin/magic_wand:     file format elf32-littleriscv


Disassembly of section .vectors:

00100000 <_vectors_start>:
	...
  100080:	40e0206f          	j	10248e <reset_handler>

Disassembly of section .text:

00100084 <__ashldi3>:
  100084:	ca19                	beqz	a2,10009a <__ashldi3+0x16>
  100086:	02000793          	li	a5,32
  10008a:	8f91                	sub	a5,a5,a2
  10008c:	00f04863          	bgtz	a5,10009c <__ashldi3+0x18>
  100090:	1601                	addi	a2,a2,-32
  100092:	00c515b3          	sll	a1,a0,a2
  100096:	4701                	li	a4,0
  100098:	853a                	mv	a0,a4
  10009a:	8082                	ret
  10009c:	00c51733          	sll	a4,a0,a2
  1000a0:	00c595b3          	sll	a1,a1,a2
  1000a4:	00f55533          	srl	a0,a0,a5
  1000a8:	8dc9                	or	a1,a1,a0
  1000aa:	b7fd                	j	100098 <__ashldi3+0x14>

001000ac <__ashrdi3>:
  1000ac:	ce01                	beqz	a2,1000c4 <__ashrdi3+0x18>
  1000ae:	02000793          	li	a5,32
  1000b2:	8f91                	sub	a5,a5,a2
  1000b4:	00f04963          	bgtz	a5,1000c6 <__ashrdi3+0x1a>
  1000b8:	1601                	addi	a2,a2,-32
  1000ba:	41f5d713          	srai	a4,a1,0x1f
  1000be:	40c5d533          	sra	a0,a1,a2
  1000c2:	85ba                	mv	a1,a4
  1000c4:	8082                	ret
  1000c6:	40c5d733          	sra	a4,a1,a2
  1000ca:	00c55533          	srl	a0,a0,a2
  1000ce:	00f595b3          	sll	a1,a1,a5
  1000d2:	8d4d                	or	a0,a0,a1
  1000d4:	b7fd                	j	1000c2 <__ashrdi3+0x16>

001000d6 <__clzsi2>:
  1000d6:	67c1                	lui	a5,0x10
  1000d8:	02f57663          	bgeu	a0,a5,100104 <__clzsi2+0x2e>
  1000dc:	10053793          	sltiu	a5,a0,256
  1000e0:	0017b793          	seqz	a5,a5
  1000e4:	078e                	slli	a5,a5,0x3
  1000e6:	00119737          	lui	a4,0x119
  1000ea:	02000693          	li	a3,32
  1000ee:	8e9d                	sub	a3,a3,a5
  1000f0:	00f55533          	srl	a0,a0,a5
  1000f4:	81470793          	addi	a5,a4,-2028 # 118814 <__clz_tab>
  1000f8:	97aa                	add	a5,a5,a0
  1000fa:	0007c503          	lbu	a0,0(a5) # 10000 <_stack_len>
  1000fe:	40a68533          	sub	a0,a3,a0
  100102:	8082                	ret
  100104:	01000737          	lui	a4,0x1000
  100108:	47e1                	li	a5,24
  10010a:	fce57ee3          	bgeu	a0,a4,1000e6 <__clzsi2+0x10>
  10010e:	47c1                	li	a5,16
  100110:	bfd9                	j	1000e6 <__clzsi2+0x10>

00100112 <__divdf3>:
  100112:	7179                	addi	sp,sp,-48
  100114:	0145d813          	srli	a6,a1,0x14
  100118:	d226                	sw	s1,36(sp)
  10011a:	d04a                	sw	s2,32(sp)
  10011c:	ce4e                	sw	s3,28(sp)
  10011e:	c85a                	sw	s6,16(sp)
  100120:	c65e                	sw	s7,12(sp)
  100122:	00c59493          	slli	s1,a1,0xc
  100126:	d606                	sw	ra,44(sp)
  100128:	d422                	sw	s0,40(sp)
  10012a:	cc52                	sw	s4,24(sp)
  10012c:	ca56                	sw	s5,20(sp)
  10012e:	7ff87813          	andi	a6,a6,2047
  100132:	8b2a                	mv	s6,a0
  100134:	8bb2                	mv	s7,a2
  100136:	8936                	mv	s2,a3
  100138:	80b1                	srli	s1,s1,0xc
  10013a:	01f5d993          	srli	s3,a1,0x1f
  10013e:	08080163          	beqz	a6,1001c0 <__divdf3+0xae>
  100142:	7ff00793          	li	a5,2047
  100146:	0cf80c63          	beq	a6,a5,10021e <__divdf3+0x10c>
  10014a:	01d55a13          	srli	s4,a0,0x1d
  10014e:	048e                	slli	s1,s1,0x3
  100150:	009a6a33          	or	s4,s4,s1
  100154:	008007b7          	lui	a5,0x800
  100158:	00fa6a33          	or	s4,s4,a5
  10015c:	00351413          	slli	s0,a0,0x3
  100160:	c0180a93          	addi	s5,a6,-1023
  100164:	4b01                	li	s6,0
  100166:	01495713          	srli	a4,s2,0x14
  10016a:	00c91493          	slli	s1,s2,0xc
  10016e:	7ff77713          	andi	a4,a4,2047
  100172:	80b1                	srli	s1,s1,0xc
  100174:	01f95913          	srli	s2,s2,0x1f
  100178:	c771                	beqz	a4,100244 <__divdf3+0x132>
  10017a:	7ff00793          	li	a5,2047
  10017e:	12f70163          	beq	a4,a5,1002a0 <__divdf3+0x18e>
  100182:	048e                	slli	s1,s1,0x3
  100184:	01dbd793          	srli	a5,s7,0x1d
  100188:	8fc5                	or	a5,a5,s1
  10018a:	008004b7          	lui	s1,0x800
  10018e:	8cdd                	or	s1,s1,a5
  100190:	003b9f13          	slli	t5,s7,0x3
  100194:	c0170713          	addi	a4,a4,-1023 # fffc01 <fromhost+0xe2fbf1>
  100198:	4781                	li	a5,0
  10019a:	40ea8833          	sub	a6,s5,a4
  10019e:	002b1713          	slli	a4,s6,0x2
  1001a2:	8f5d                	or	a4,a4,a5
  1001a4:	177d                	addi	a4,a4,-1
  1001a6:	46b9                	li	a3,14
  1001a8:	0129c633          	xor	a2,s3,s2
  1001ac:	10e6ec63          	bltu	a3,a4,1002c4 <__divdf3+0x1b2>
  1001b0:	001186b7          	lui	a3,0x118
  1001b4:	070a                	slli	a4,a4,0x2
  1001b6:	79c68693          	addi	a3,a3,1948 # 11879c <halF+0x8>
  1001ba:	9736                	add	a4,a4,a3
  1001bc:	4318                	lw	a4,0(a4)
  1001be:	8702                	jr	a4
  1001c0:	00a4ea33          	or	s4,s1,a0
  1001c4:	060a0663          	beqz	s4,100230 <__divdf3+0x11e>
  1001c8:	c89d                	beqz	s1,1001fe <__divdf3+0xec>
  1001ca:	8526                	mv	a0,s1
  1001cc:	00000097          	auipc	ra,0x0
  1001d0:	f0a080e7          	jalr	-246(ra) # 1000d6 <__clzsi2>
  1001d4:	ff550793          	addi	a5,a0,-11
  1001d8:	4a75                	li	s4,29
  1001da:	ff850713          	addi	a4,a0,-8
  1001de:	40fa0a33          	sub	s4,s4,a5
  1001e2:	00e494b3          	sll	s1,s1,a4
  1001e6:	014b5a33          	srl	s4,s6,s4
  1001ea:	009a6a33          	or	s4,s4,s1
  1001ee:	00eb14b3          	sll	s1,s6,a4
  1001f2:	c0d00813          	li	a6,-1011
  1001f6:	40a80ab3          	sub	s5,a6,a0
  1001fa:	8426                	mv	s0,s1
  1001fc:	b7a5                	j	100164 <__divdf3+0x52>
  1001fe:	00000097          	auipc	ra,0x0
  100202:	ed8080e7          	jalr	-296(ra) # 1000d6 <__clzsi2>
  100206:	8a2a                	mv	s4,a0
  100208:	015a0793          	addi	a5,s4,21
  10020c:	4771                	li	a4,28
  10020e:	02050513          	addi	a0,a0,32
  100212:	fcf753e3          	bge	a4,a5,1001d8 <__divdf3+0xc6>
  100216:	1a61                	addi	s4,s4,-8
  100218:	014b1a33          	sll	s4,s6,s4
  10021c:	bfd9                	j	1001f2 <__divdf3+0xe0>
  10021e:	00a4ea33          	or	s4,s1,a0
  100222:	000a1b63          	bnez	s4,100238 <__divdf3+0x126>
  100226:	4401                	li	s0,0
  100228:	7ff00a93          	li	s5,2047
  10022c:	4b09                	li	s6,2
  10022e:	bf25                	j	100166 <__divdf3+0x54>
  100230:	4401                	li	s0,0
  100232:	4a81                	li	s5,0
  100234:	4b05                	li	s6,1
  100236:	bf05                	j	100166 <__divdf3+0x54>
  100238:	842a                	mv	s0,a0
  10023a:	8a26                	mv	s4,s1
  10023c:	7ff00a93          	li	s5,2047
  100240:	4b0d                	li	s6,3
  100242:	b715                	j	100166 <__divdf3+0x54>
  100244:	0174ef33          	or	t5,s1,s7
  100248:	060f0563          	beqz	t5,1002b2 <__divdf3+0x1a0>
  10024c:	c88d                	beqz	s1,10027e <__divdf3+0x16c>
  10024e:	8526                	mv	a0,s1
  100250:	00000097          	auipc	ra,0x0
  100254:	e86080e7          	jalr	-378(ra) # 1000d6 <__clzsi2>
  100258:	ff550713          	addi	a4,a0,-11
  10025c:	47f5                	li	a5,29
  10025e:	ff850693          	addi	a3,a0,-8
  100262:	8f99                	sub	a5,a5,a4
  100264:	00d494b3          	sll	s1,s1,a3
  100268:	00fbd7b3          	srl	a5,s7,a5
  10026c:	8fc5                	or	a5,a5,s1
  10026e:	00db94b3          	sll	s1,s7,a3
  100272:	c0d00713          	li	a4,-1011
  100276:	8f26                	mv	t5,s1
  100278:	8f09                	sub	a4,a4,a0
  10027a:	84be                	mv	s1,a5
  10027c:	bf31                	j	100198 <__divdf3+0x86>
  10027e:	855e                	mv	a0,s7
  100280:	00000097          	auipc	ra,0x0
  100284:	e56080e7          	jalr	-426(ra) # 1000d6 <__clzsi2>
  100288:	87aa                	mv	a5,a0
  10028a:	01578713          	addi	a4,a5,21 # 800015 <fromhost+0x630005>
  10028e:	46f1                	li	a3,28
  100290:	02050513          	addi	a0,a0,32
  100294:	fce6d4e3          	bge	a3,a4,10025c <__divdf3+0x14a>
  100298:	17e1                	addi	a5,a5,-8
  10029a:	00fb97b3          	sll	a5,s7,a5
  10029e:	bfd1                	j	100272 <__divdf3+0x160>
  1002a0:	0174ef33          	or	t5,s1,s7
  1002a4:	000f1b63          	bnez	t5,1002ba <__divdf3+0x1a8>
  1002a8:	4481                	li	s1,0
  1002aa:	7ff00713          	li	a4,2047
  1002ae:	4789                	li	a5,2
  1002b0:	b5ed                	j	10019a <__divdf3+0x88>
  1002b2:	4481                	li	s1,0
  1002b4:	4701                	li	a4,0
  1002b6:	4785                	li	a5,1
  1002b8:	b5cd                	j	10019a <__divdf3+0x88>
  1002ba:	8f5e                	mv	t5,s7
  1002bc:	7ff00713          	li	a4,2047
  1002c0:	478d                	li	a5,3
  1002c2:	bde1                	j	10019a <__divdf3+0x88>
  1002c4:	0144e663          	bltu	s1,s4,1002d0 <__divdf3+0x1be>
  1002c8:	2a9a1a63          	bne	s4,s1,10057c <__divdf3+0x46a>
  1002cc:	2be46863          	bltu	s0,t5,10057c <__divdf3+0x46a>
  1002d0:	01fa1693          	slli	a3,s4,0x1f
  1002d4:	00145793          	srli	a5,s0,0x1
  1002d8:	01f41713          	slli	a4,s0,0x1f
  1002dc:	001a5a13          	srli	s4,s4,0x1
  1002e0:	00f6e433          	or	s0,a3,a5
  1002e4:	00849893          	slli	a7,s1,0x8
  1002e8:	018f5593          	srli	a1,t5,0x18
  1002ec:	0115e5b3          	or	a1,a1,a7
  1002f0:	0108d893          	srli	a7,a7,0x10
  1002f4:	031a5eb3          	divu	t4,s4,a7
  1002f8:	01059313          	slli	t1,a1,0x10
  1002fc:	01035313          	srli	t1,t1,0x10
  100300:	01045793          	srli	a5,s0,0x10
  100304:	008f1513          	slli	a0,t5,0x8
  100308:	031a7a33          	remu	s4,s4,a7
  10030c:	86f6                	mv	a3,t4
  10030e:	03d30e33          	mul	t3,t1,t4
  100312:	0a42                	slli	s4,s4,0x10
  100314:	0147e7b3          	or	a5,a5,s4
  100318:	01c7fc63          	bgeu	a5,t3,100330 <__divdf3+0x21e>
  10031c:	97ae                	add	a5,a5,a1
  10031e:	fffe8693          	addi	a3,t4,-1
  100322:	00b7e763          	bltu	a5,a1,100330 <__divdf3+0x21e>
  100326:	01c7f563          	bgeu	a5,t3,100330 <__divdf3+0x21e>
  10032a:	ffee8693          	addi	a3,t4,-2
  10032e:	97ae                	add	a5,a5,a1
  100330:	41c787b3          	sub	a5,a5,t3
  100334:	0317df33          	divu	t5,a5,a7
  100338:	0442                	slli	s0,s0,0x10
  10033a:	8041                	srli	s0,s0,0x10
  10033c:	0317f7b3          	remu	a5,a5,a7
  100340:	8e7a                	mv	t3,t5
  100342:	03e30eb3          	mul	t4,t1,t5
  100346:	07c2                	slli	a5,a5,0x10
  100348:	8fc1                	or	a5,a5,s0
  10034a:	01d7fc63          	bgeu	a5,t4,100362 <__divdf3+0x250>
  10034e:	97ae                	add	a5,a5,a1
  100350:	ffff0e13          	addi	t3,t5,-1
  100354:	00b7e763          	bltu	a5,a1,100362 <__divdf3+0x250>
  100358:	01d7f563          	bgeu	a5,t4,100362 <__divdf3+0x250>
  10035c:	ffef0e13          	addi	t3,t5,-2
  100360:	97ae                	add	a5,a5,a1
  100362:	06c2                	slli	a3,a3,0x10
  100364:	6441                	lui	s0,0x10
  100366:	01c6e2b3          	or	t0,a3,t3
  10036a:	fff40e13          	addi	t3,s0,-1 # ffff <_min_stack+0xdfff>
  10036e:	01c2f6b3          	and	a3,t0,t3
  100372:	0102df93          	srli	t6,t0,0x10
  100376:	01c57e33          	and	t3,a0,t3
  10037a:	41d787b3          	sub	a5,a5,t4
  10037e:	01055e93          	srli	t4,a0,0x10
  100382:	02de03b3          	mul	t2,t3,a3
  100386:	03cf84b3          	mul	s1,t6,t3
  10038a:	02de86b3          	mul	a3,t4,a3
  10038e:	00968f33          	add	t5,a3,s1
  100392:	0103d693          	srli	a3,t2,0x10
  100396:	96fa                	add	a3,a3,t5
  100398:	03df8fb3          	mul	t6,t6,t4
  10039c:	0096f363          	bgeu	a3,s1,1003a2 <__divdf3+0x290>
  1003a0:	9fa2                	add	t6,t6,s0
  1003a2:	0106df13          	srli	t5,a3,0x10
  1003a6:	9f7e                	add	t5,t5,t6
  1003a8:	6fc1                	lui	t6,0x10
  1003aa:	1ffd                	addi	t6,t6,-1 # ffff <_min_stack+0xdfff>
  1003ac:	01f6f6b3          	and	a3,a3,t6
  1003b0:	06c2                	slli	a3,a3,0x10
  1003b2:	01f3f3b3          	and	t2,t2,t6
  1003b6:	969e                	add	a3,a3,t2
  1003b8:	01e7e763          	bltu	a5,t5,1003c6 <__divdf3+0x2b4>
  1003bc:	8496                	mv	s1,t0
  1003be:	05e79263          	bne	a5,t5,100402 <__divdf3+0x2f0>
  1003c2:	04d77063          	bgeu	a4,a3,100402 <__divdf3+0x2f0>
  1003c6:	00a70fb3          	add	t6,a4,a0
  1003ca:	00efb3b3          	sltu	t2,t6,a4
  1003ce:	00b38433          	add	s0,t2,a1
  1003d2:	97a2                	add	a5,a5,s0
  1003d4:	fff28493          	addi	s1,t0,-1
  1003d8:	877e                	mv	a4,t6
  1003da:	00f5e663          	bltu	a1,a5,1003e6 <__divdf3+0x2d4>
  1003de:	02f59263          	bne	a1,a5,100402 <__divdf3+0x2f0>
  1003e2:	02039063          	bnez	t2,100402 <__divdf3+0x2f0>
  1003e6:	01e7e663          	bltu	a5,t5,1003f2 <__divdf3+0x2e0>
  1003ea:	00ff1c63          	bne	t5,a5,100402 <__divdf3+0x2f0>
  1003ee:	00dffa63          	bgeu	t6,a3,100402 <__divdf3+0x2f0>
  1003f2:	9faa                	add	t6,t6,a0
  1003f4:	877e                	mv	a4,t6
  1003f6:	00afbfb3          	sltu	t6,t6,a0
  1003fa:	9fae                	add	t6,t6,a1
  1003fc:	ffe28493          	addi	s1,t0,-2
  100400:	97fe                	add	a5,a5,t6
  100402:	40d706b3          	sub	a3,a4,a3
  100406:	41e787b3          	sub	a5,a5,t5
  10040a:	00d73733          	sltu	a4,a4,a3
  10040e:	8f99                	sub	a5,a5,a4
  100410:	5f7d                	li	t5,-1
  100412:	0ef58963          	beq	a1,a5,100504 <__divdf3+0x3f2>
  100416:	0317dfb3          	divu	t6,a5,a7
  10041a:	0106d713          	srli	a4,a3,0x10
  10041e:	0317f7b3          	remu	a5,a5,a7
  100422:	03f30f33          	mul	t5,t1,t6
  100426:	07c2                	slli	a5,a5,0x10
  100428:	8fd9                	or	a5,a5,a4
  10042a:	877e                	mv	a4,t6
  10042c:	01e7fc63          	bgeu	a5,t5,100444 <__divdf3+0x332>
  100430:	97ae                	add	a5,a5,a1
  100432:	ffff8713          	addi	a4,t6,-1
  100436:	00b7e763          	bltu	a5,a1,100444 <__divdf3+0x332>
  10043a:	01e7f563          	bgeu	a5,t5,100444 <__divdf3+0x332>
  10043e:	ffef8713          	addi	a4,t6,-2
  100442:	97ae                	add	a5,a5,a1
  100444:	41e787b3          	sub	a5,a5,t5
  100448:	0317df33          	divu	t5,a5,a7
  10044c:	06c2                	slli	a3,a3,0x10
  10044e:	82c1                	srli	a3,a3,0x10
  100450:	0317f7b3          	remu	a5,a5,a7
  100454:	88fa                	mv	a7,t5
  100456:	03e30333          	mul	t1,t1,t5
  10045a:	07c2                	slli	a5,a5,0x10
  10045c:	8fd5                	or	a5,a5,a3
  10045e:	0067fc63          	bgeu	a5,t1,100476 <__divdf3+0x364>
  100462:	97ae                	add	a5,a5,a1
  100464:	ffff0893          	addi	a7,t5,-1
  100468:	00b7e763          	bltu	a5,a1,100476 <__divdf3+0x364>
  10046c:	0067f563          	bgeu	a5,t1,100476 <__divdf3+0x364>
  100470:	ffef0893          	addi	a7,t5,-2
  100474:	97ae                	add	a5,a5,a1
  100476:	01071693          	slli	a3,a4,0x10
  10047a:	0116e6b3          	or	a3,a3,a7
  10047e:	01069713          	slli	a4,a3,0x10
  100482:	8341                	srli	a4,a4,0x10
  100484:	406787b3          	sub	a5,a5,t1
  100488:	0106d313          	srli	t1,a3,0x10
  10048c:	03c70f33          	mul	t5,a4,t3
  100490:	03c30e33          	mul	t3,t1,t3
  100494:	026e8333          	mul	t1,t4,t1
  100498:	02ee8eb3          	mul	t4,t4,a4
  10049c:	010f5713          	srli	a4,t5,0x10
  1004a0:	9ef2                	add	t4,t4,t3
  1004a2:	9776                	add	a4,a4,t4
  1004a4:	01c77463          	bgeu	a4,t3,1004ac <__divdf3+0x39a>
  1004a8:	68c1                	lui	a7,0x10
  1004aa:	9346                	add	t1,t1,a7
  1004ac:	01075893          	srli	a7,a4,0x10
  1004b0:	989a                	add	a7,a7,t1
  1004b2:	6341                	lui	t1,0x10
  1004b4:	137d                	addi	t1,t1,-1 # ffff <_min_stack+0xdfff>
  1004b6:	00677733          	and	a4,a4,t1
  1004ba:	0742                	slli	a4,a4,0x10
  1004bc:	006f7f33          	and	t5,t5,t1
  1004c0:	977a                	add	a4,a4,t5
  1004c2:	0117e663          	bltu	a5,a7,1004ce <__divdf3+0x3bc>
  1004c6:	19179d63          	bne	a5,a7,100660 <__divdf3+0x54e>
  1004ca:	8f36                	mv	t5,a3
  1004cc:	cf05                	beqz	a4,100504 <__divdf3+0x3f2>
  1004ce:	97ae                	add	a5,a5,a1
  1004d0:	fff68f13          	addi	t5,a3,-1
  1004d4:	833e                	mv	t1,a5
  1004d6:	02b7e163          	bltu	a5,a1,1004f8 <__divdf3+0x3e6>
  1004da:	0117e663          	bltu	a5,a7,1004e6 <__divdf3+0x3d4>
  1004de:	19179063          	bne	a5,a7,10065e <__divdf3+0x54c>
  1004e2:	00e57d63          	bgeu	a0,a4,1004fc <__divdf3+0x3ea>
  1004e6:	ffe68f13          	addi	t5,a3,-2
  1004ea:	00151693          	slli	a3,a0,0x1
  1004ee:	00a6b333          	sltu	t1,a3,a0
  1004f2:	932e                	add	t1,t1,a1
  1004f4:	933e                	add	t1,t1,a5
  1004f6:	8536                	mv	a0,a3
  1004f8:	01131463          	bne	t1,a7,100500 <__divdf3+0x3ee>
  1004fc:	00a70463          	beq	a4,a0,100504 <__divdf3+0x3f2>
  100500:	001f6f13          	ori	t5,t5,1
  100504:	3ff80713          	addi	a4,a6,1023
  100508:	0ae05763          	blez	a4,1005b6 <__divdf3+0x4a4>
  10050c:	007f7793          	andi	a5,t5,7
  100510:	cf81                	beqz	a5,100528 <__divdf3+0x416>
  100512:	00ff7793          	andi	a5,t5,15
  100516:	4691                	li	a3,4
  100518:	00d78863          	beq	a5,a3,100528 <__divdf3+0x416>
  10051c:	004f0793          	addi	a5,t5,4
  100520:	01e7b6b3          	sltu	a3,a5,t5
  100524:	94b6                	add	s1,s1,a3
  100526:	8f3e                	mv	t5,a5
  100528:	00749793          	slli	a5,s1,0x7
  10052c:	0007d863          	bgez	a5,10053c <__divdf3+0x42a>
  100530:	ff0007b7          	lui	a5,0xff000
  100534:	17fd                	addi	a5,a5,-1 # feffffff <fromhost+0xfee2ffef>
  100536:	8cfd                	and	s1,s1,a5
  100538:	40080713          	addi	a4,a6,1024
  10053c:	7fe00793          	li	a5,2046
  100540:	04e7ce63          	blt	a5,a4,10059c <__divdf3+0x48a>
  100544:	003f5f13          	srli	t5,t5,0x3
  100548:	01d49793          	slli	a5,s1,0x1d
  10054c:	01e7ef33          	or	t5,a5,t5
  100550:	0034d513          	srli	a0,s1,0x3
  100554:	0532                	slli	a0,a0,0xc
  100556:	50b2                	lw	ra,44(sp)
  100558:	5422                	lw	s0,40(sp)
  10055a:	8131                	srli	a0,a0,0xc
  10055c:	0752                	slli	a4,a4,0x14
  10055e:	8f49                	or	a4,a4,a0
  100560:	067e                	slli	a2,a2,0x1f
  100562:	00c767b3          	or	a5,a4,a2
  100566:	5492                	lw	s1,36(sp)
  100568:	5902                	lw	s2,32(sp)
  10056a:	49f2                	lw	s3,28(sp)
  10056c:	4a62                	lw	s4,24(sp)
  10056e:	4ad2                	lw	s5,20(sp)
  100570:	4b42                	lw	s6,16(sp)
  100572:	4bb2                	lw	s7,12(sp)
  100574:	857a                	mv	a0,t5
  100576:	85be                	mv	a1,a5
  100578:	6145                	addi	sp,sp,48
  10057a:	8082                	ret
  10057c:	187d                	addi	a6,a6,-1
  10057e:	4701                	li	a4,0
  100580:	b395                	j	1002e4 <__divdf3+0x1d2>
  100582:	864e                	mv	a2,s3
  100584:	84d2                	mv	s1,s4
  100586:	8f22                	mv	t5,s0
  100588:	87da                	mv	a5,s6
  10058a:	470d                	li	a4,3
  10058c:	0ae78b63          	beq	a5,a4,100642 <__divdf3+0x530>
  100590:	4705                	li	a4,1
  100592:	0ae78f63          	beq	a5,a4,100650 <__divdf3+0x53e>
  100596:	4709                	li	a4,2
  100598:	f6e796e3          	bne	a5,a4,100504 <__divdf3+0x3f2>
  10059c:	4501                	li	a0,0
  10059e:	4f01                	li	t5,0
  1005a0:	7ff00713          	li	a4,2047
  1005a4:	bf45                	j	100554 <__divdf3+0x442>
  1005a6:	864a                	mv	a2,s2
  1005a8:	b7cd                	j	10058a <__divdf3+0x478>
  1005aa:	000804b7          	lui	s1,0x80
  1005ae:	4f01                	li	t5,0
  1005b0:	4601                	li	a2,0
  1005b2:	478d                	li	a5,3
  1005b4:	bfd9                	j	10058a <__divdf3+0x478>
  1005b6:	4505                	li	a0,1
  1005b8:	8d19                	sub	a0,a0,a4
  1005ba:	03800793          	li	a5,56
  1005be:	08a7c963          	blt	a5,a0,100650 <__divdf3+0x53e>
  1005c2:	47fd                	li	a5,31
  1005c4:	04a7cb63          	blt	a5,a0,10061a <__divdf3+0x508>
  1005c8:	41e80813          	addi	a6,a6,1054
  1005cc:	010497b3          	sll	a5,s1,a6
  1005d0:	00af5733          	srl	a4,t5,a0
  1005d4:	010f1833          	sll	a6,t5,a6
  1005d8:	8fd9                	or	a5,a5,a4
  1005da:	01003833          	snez	a6,a6
  1005de:	0107e7b3          	or	a5,a5,a6
  1005e2:	00a4d533          	srl	a0,s1,a0
  1005e6:	0077f713          	andi	a4,a5,7
  1005ea:	cf01                	beqz	a4,100602 <__divdf3+0x4f0>
  1005ec:	00f7f713          	andi	a4,a5,15
  1005f0:	4691                	li	a3,4
  1005f2:	00d70863          	beq	a4,a3,100602 <__divdf3+0x4f0>
  1005f6:	00478713          	addi	a4,a5,4
  1005fa:	00f736b3          	sltu	a3,a4,a5
  1005fe:	9536                	add	a0,a0,a3
  100600:	87ba                	mv	a5,a4
  100602:	00851713          	slli	a4,a0,0x8
  100606:	04074863          	bltz	a4,100656 <__divdf3+0x544>
  10060a:	01d51f13          	slli	t5,a0,0x1d
  10060e:	838d                	srli	a5,a5,0x3
  100610:	00ff6f33          	or	t5,t5,a5
  100614:	810d                	srli	a0,a0,0x3
  100616:	4701                	li	a4,0
  100618:	bf35                	j	100554 <__divdf3+0x442>
  10061a:	5785                	li	a5,-31
  10061c:	8f99                	sub	a5,a5,a4
  10061e:	02000693          	li	a3,32
  100622:	00f4d7b3          	srl	a5,s1,a5
  100626:	4701                	li	a4,0
  100628:	00d50663          	beq	a0,a3,100634 <__divdf3+0x522>
  10062c:	43e80713          	addi	a4,a6,1086
  100630:	00e49733          	sll	a4,s1,a4
  100634:	01e76733          	or	a4,a4,t5
  100638:	00e03733          	snez	a4,a4
  10063c:	8fd9                	or	a5,a5,a4
  10063e:	4501                	li	a0,0
  100640:	b75d                	j	1005e6 <__divdf3+0x4d4>
  100642:	00080537          	lui	a0,0x80
  100646:	4f01                	li	t5,0
  100648:	7ff00713          	li	a4,2047
  10064c:	4601                	li	a2,0
  10064e:	b719                	j	100554 <__divdf3+0x442>
  100650:	4501                	li	a0,0
  100652:	4f01                	li	t5,0
  100654:	b7c9                	j	100616 <__divdf3+0x504>
  100656:	4501                	li	a0,0
  100658:	4f01                	li	t5,0
  10065a:	4705                	li	a4,1
  10065c:	bde5                	j	100554 <__divdf3+0x442>
  10065e:	86fa                	mv	a3,t5
  100660:	8f36                	mv	t5,a3
  100662:	bd79                	j	100500 <__divdf3+0x3ee>

00100664 <__eqdf2>:
  100664:	0145d713          	srli	a4,a1,0x14
  100668:	001007b7          	lui	a5,0x100
  10066c:	17fd                	addi	a5,a5,-1 # fffff <tohost+0xdfff7>
  10066e:	0146d813          	srli	a6,a3,0x14
  100672:	832a                	mv	t1,a0
  100674:	8eaa                	mv	t4,a0
  100676:	7ff77713          	andi	a4,a4,2047
  10067a:	7ff00513          	li	a0,2047
  10067e:	00b7f8b3          	and	a7,a5,a1
  100682:	8f32                	mv	t5,a2
  100684:	8ff5                	and	a5,a5,a3
  100686:	81fd                	srli	a1,a1,0x1f
  100688:	7ff87813          	andi	a6,a6,2047
  10068c:	82fd                	srli	a3,a3,0x1f
  10068e:	00a71a63          	bne	a4,a0,1006a2 <__eqdf2+0x3e>
  100692:	0068ee33          	or	t3,a7,t1
  100696:	4505                	li	a0,1
  100698:	000e1463          	bnez	t3,1006a0 <__eqdf2+0x3c>
  10069c:	00e80563          	beq	a6,a4,1006a6 <__eqdf2+0x42>
  1006a0:	8082                	ret
  1006a2:	00a81563          	bne	a6,a0,1006ac <__eqdf2+0x48>
  1006a6:	8e5d                	or	a2,a2,a5
  1006a8:	4505                	li	a0,1
  1006aa:	fa7d                	bnez	a2,1006a0 <__eqdf2+0x3c>
  1006ac:	4505                	li	a0,1
  1006ae:	ff0719e3          	bne	a4,a6,1006a0 <__eqdf2+0x3c>
  1006b2:	fef897e3          	bne	a7,a5,1006a0 <__eqdf2+0x3c>
  1006b6:	ffee95e3          	bne	t4,t5,1006a0 <__eqdf2+0x3c>
  1006ba:	00d58863          	beq	a1,a3,1006ca <__eqdf2+0x66>
  1006be:	f36d                	bnez	a4,1006a0 <__eqdf2+0x3c>
  1006c0:	0068e8b3          	or	a7,a7,t1
  1006c4:	01103533          	snez	a0,a7
  1006c8:	8082                	ret
  1006ca:	4501                	li	a0,0
  1006cc:	8082                	ret

001006ce <__gedf2>:
  1006ce:	0146d793          	srli	a5,a3,0x14
  1006d2:	0145d893          	srli	a7,a1,0x14
  1006d6:	00100737          	lui	a4,0x100
  1006da:	177d                	addi	a4,a4,-1 # fffff <tohost+0xdfff7>
  1006dc:	882a                	mv	a6,a0
  1006de:	8e2a                	mv	t3,a0
  1006e0:	7ff8f893          	andi	a7,a7,2047
  1006e4:	7ff7f513          	andi	a0,a5,2047
  1006e8:	7ff00793          	li	a5,2047
  1006ec:	00b77333          	and	t1,a4,a1
  1006f0:	8eb2                	mv	t4,a2
  1006f2:	8f75                	and	a4,a4,a3
  1006f4:	81fd                	srli	a1,a1,0x1f
  1006f6:	82fd                	srli	a3,a3,0x1f
  1006f8:	00f89563          	bne	a7,a5,100702 <__gedf2+0x34>
  1006fc:	010367b3          	or	a5,t1,a6
  100700:	eba9                	bnez	a5,100752 <__gedf2+0x84>
  100702:	7ff00793          	li	a5,2047
  100706:	00f51563          	bne	a0,a5,100710 <__gedf2+0x42>
  10070a:	00c767b3          	or	a5,a4,a2
  10070e:	e3b1                	bnez	a5,100752 <__gedf2+0x84>
  100710:	4781                	li	a5,0
  100712:	00089663          	bnez	a7,10071e <__gedf2+0x50>
  100716:	01036833          	or	a6,t1,a6
  10071a:	00183793          	seqz	a5,a6
  10071e:	ed05                	bnez	a0,100756 <__gedf2+0x88>
  100720:	8e59                	or	a2,a2,a4
  100722:	c791                	beqz	a5,10072e <__gedf2+0x60>
  100724:	ca01                	beqz	a2,100734 <__gedf2+0x66>
  100726:	4505                	li	a0,1
  100728:	e691                	bnez	a3,100734 <__gedf2+0x66>
  10072a:	557d                	li	a0,-1
  10072c:	8082                	ret
  10072e:	e60d                	bnez	a2,100758 <__gedf2+0x8a>
  100730:	557d                	li	a0,-1
  100732:	c98d                	beqz	a1,100764 <__gedf2+0x96>
  100734:	8082                	ret
  100736:	fea8c8e3          	blt	a7,a0,100726 <__gedf2+0x58>
  10073a:	fe676be3          	bltu	a4,t1,100730 <__gedf2+0x62>
  10073e:	00e31763          	bne	t1,a4,10074c <__gedf2+0x7e>
  100742:	ffcee7e3          	bltu	t4,t3,100730 <__gedf2+0x62>
  100746:	4501                	li	a0,0
  100748:	ffde76e3          	bgeu	t3,t4,100734 <__gedf2+0x66>
  10074c:	4505                	li	a0,1
  10074e:	f1fd                	bnez	a1,100734 <__gedf2+0x66>
  100750:	bfe9                	j	10072a <__gedf2+0x5c>
  100752:	5579                	li	a0,-2
  100754:	8082                	ret
  100756:	fbe1                	bnez	a5,100726 <__gedf2+0x58>
  100758:	fcb69ce3          	bne	a3,a1,100730 <__gedf2+0x62>
  10075c:	fd155de3          	bge	a0,a7,100736 <__gedf2+0x68>
  100760:	557d                	li	a0,-1
  100762:	fae9                	bnez	a3,100734 <__gedf2+0x66>
  100764:	4505                	li	a0,1
  100766:	8082                	ret

00100768 <__ledf2>:
  100768:	0146d793          	srli	a5,a3,0x14
  10076c:	0145d893          	srli	a7,a1,0x14
  100770:	00100737          	lui	a4,0x100
  100774:	177d                	addi	a4,a4,-1 # fffff <tohost+0xdfff7>
  100776:	882a                	mv	a6,a0
  100778:	8e2a                	mv	t3,a0
  10077a:	7ff8f893          	andi	a7,a7,2047
  10077e:	7ff7f513          	andi	a0,a5,2047
  100782:	7ff00793          	li	a5,2047
  100786:	00b77333          	and	t1,a4,a1
  10078a:	8eb2                	mv	t4,a2
  10078c:	8f75                	and	a4,a4,a3
  10078e:	81fd                	srli	a1,a1,0x1f
  100790:	82fd                	srli	a3,a3,0x1f
  100792:	00f89563          	bne	a7,a5,10079c <__ledf2+0x34>
  100796:	010367b3          	or	a5,t1,a6
  10079a:	eba9                	bnez	a5,1007ec <__ledf2+0x84>
  10079c:	7ff00793          	li	a5,2047
  1007a0:	00f51563          	bne	a0,a5,1007aa <__ledf2+0x42>
  1007a4:	00c767b3          	or	a5,a4,a2
  1007a8:	e3b1                	bnez	a5,1007ec <__ledf2+0x84>
  1007aa:	4781                	li	a5,0
  1007ac:	00089663          	bnez	a7,1007b8 <__ledf2+0x50>
  1007b0:	01036833          	or	a6,t1,a6
  1007b4:	00183793          	seqz	a5,a6
  1007b8:	ed05                	bnez	a0,1007f0 <__ledf2+0x88>
  1007ba:	8e59                	or	a2,a2,a4
  1007bc:	c791                	beqz	a5,1007c8 <__ledf2+0x60>
  1007be:	ca01                	beqz	a2,1007ce <__ledf2+0x66>
  1007c0:	4505                	li	a0,1
  1007c2:	e691                	bnez	a3,1007ce <__ledf2+0x66>
  1007c4:	557d                	li	a0,-1
  1007c6:	8082                	ret
  1007c8:	e60d                	bnez	a2,1007f2 <__ledf2+0x8a>
  1007ca:	557d                	li	a0,-1
  1007cc:	c98d                	beqz	a1,1007fe <__ledf2+0x96>
  1007ce:	8082                	ret
  1007d0:	fea8c8e3          	blt	a7,a0,1007c0 <__ledf2+0x58>
  1007d4:	fe676be3          	bltu	a4,t1,1007ca <__ledf2+0x62>
  1007d8:	00e31763          	bne	t1,a4,1007e6 <__ledf2+0x7e>
  1007dc:	ffcee7e3          	bltu	t4,t3,1007ca <__ledf2+0x62>
  1007e0:	4501                	li	a0,0
  1007e2:	ffde76e3          	bgeu	t3,t4,1007ce <__ledf2+0x66>
  1007e6:	4505                	li	a0,1
  1007e8:	f1fd                	bnez	a1,1007ce <__ledf2+0x66>
  1007ea:	bfe9                	j	1007c4 <__ledf2+0x5c>
  1007ec:	4509                	li	a0,2
  1007ee:	8082                	ret
  1007f0:	fbe1                	bnez	a5,1007c0 <__ledf2+0x58>
  1007f2:	fcb69ce3          	bne	a3,a1,1007ca <__ledf2+0x62>
  1007f6:	fd155de3          	bge	a0,a7,1007d0 <__ledf2+0x68>
  1007fa:	557d                	li	a0,-1
  1007fc:	fae9                	bnez	a3,1007ce <__ledf2+0x66>
  1007fe:	4505                	li	a0,1
  100800:	8082                	ret

00100802 <__muldf3>:
  100802:	7179                	addi	sp,sp,-48
  100804:	ca56                	sw	s5,20(sp)
  100806:	0145da93          	srli	s5,a1,0x14
  10080a:	d422                	sw	s0,40(sp)
  10080c:	d226                	sw	s1,36(sp)
  10080e:	ce4e                	sw	s3,28(sp)
  100810:	cc52                	sw	s4,24(sp)
  100812:	c85a                	sw	s6,16(sp)
  100814:	00c59493          	slli	s1,a1,0xc
  100818:	d606                	sw	ra,44(sp)
  10081a:	d04a                	sw	s2,32(sp)
  10081c:	c65e                	sw	s7,12(sp)
  10081e:	7ffafa93          	andi	s5,s5,2047
  100822:	842a                	mv	s0,a0
  100824:	8b32                	mv	s6,a2
  100826:	89b6                	mv	s3,a3
  100828:	80b1                	srli	s1,s1,0xc
  10082a:	01f5da13          	srli	s4,a1,0x1f
  10082e:	1e0a8163          	beqz	s5,100a10 <__muldf3+0x20e>
  100832:	7ff00793          	li	a5,2047
  100836:	22fa8b63          	beq	s5,a5,100a6c <__muldf3+0x26a>
  10083a:	048e                	slli	s1,s1,0x3
  10083c:	01d55793          	srli	a5,a0,0x1d
  100840:	8fc5                	or	a5,a5,s1
  100842:	008004b7          	lui	s1,0x800
  100846:	8cdd                	or	s1,s1,a5
  100848:	00351913          	slli	s2,a0,0x3
  10084c:	c01a8a93          	addi	s5,s5,-1023
  100850:	4b81                	li	s7,0
  100852:	0149d713          	srli	a4,s3,0x14
  100856:	00c99413          	slli	s0,s3,0xc
  10085a:	7ff77713          	andi	a4,a4,2047
  10085e:	8031                	srli	s0,s0,0xc
  100860:	01f9d993          	srli	s3,s3,0x1f
  100864:	22070663          	beqz	a4,100a90 <__muldf3+0x28e>
  100868:	7ff00793          	li	a5,2047
  10086c:	26f70f63          	beq	a4,a5,100aea <__muldf3+0x2e8>
  100870:	040e                	slli	s0,s0,0x3
  100872:	01db5793          	srli	a5,s6,0x1d
  100876:	8fc1                	or	a5,a5,s0
  100878:	00800437          	lui	s0,0x800
  10087c:	8c5d                	or	s0,s0,a5
  10087e:	c0170693          	addi	a3,a4,-1023
  100882:	003b1793          	slli	a5,s6,0x3
  100886:	4701                	li	a4,0
  100888:	9ab6                	add	s5,s5,a3
  10088a:	002b9693          	slli	a3,s7,0x2
  10088e:	8ed9                	or	a3,a3,a4
  100890:	4629                	li	a2,10
  100892:	001a8513          	addi	a0,s5,1
  100896:	30d64d63          	blt	a2,a3,100bb0 <__muldf3+0x3ae>
  10089a:	4609                	li	a2,2
  10089c:	013a45b3          	xor	a1,s4,s3
  1008a0:	26d64663          	blt	a2,a3,100b0c <__muldf3+0x30a>
  1008a4:	16fd                	addi	a3,a3,-1
  1008a6:	4605                	li	a2,1
  1008a8:	28d67163          	bgeu	a2,a3,100b2a <__muldf3+0x328>
  1008ac:	6341                	lui	t1,0x10
  1008ae:	fff30e13          	addi	t3,t1,-1 # ffff <_min_stack+0xdfff>
  1008b2:	01095713          	srli	a4,s2,0x10
  1008b6:	0107d893          	srli	a7,a5,0x10
  1008ba:	01c97933          	and	s2,s2,t3
  1008be:	01c7ff33          	and	t5,a5,t3
  1008c2:	03e907b3          	mul	a5,s2,t5
  1008c6:	03e70eb3          	mul	t4,a4,t5
  1008ca:	0107d813          	srli	a6,a5,0x10
  1008ce:	03288633          	mul	a2,a7,s2
  1008d2:	9676                	add	a2,a2,t4
  1008d4:	9832                	add	a6,a6,a2
  1008d6:	031706b3          	mul	a3,a4,a7
  1008da:	01d87363          	bgeu	a6,t4,1008e0 <__muldf3+0xde>
  1008de:	969a                	add	a3,a3,t1
  1008e0:	01085293          	srli	t0,a6,0x10
  1008e4:	01c87833          	and	a6,a6,t3
  1008e8:	01c7f7b3          	and	a5,a5,t3
  1008ec:	01045613          	srli	a2,s0,0x10
  1008f0:	01c47e33          	and	t3,s0,t3
  1008f4:	0842                	slli	a6,a6,0x10
  1008f6:	983e                	add	a6,a6,a5
  1008f8:	03c90eb3          	mul	t4,s2,t3
  1008fc:	03c707b3          	mul	a5,a4,t3
  100900:	03260933          	mul	s2,a2,s2
  100904:	02c70333          	mul	t1,a4,a2
  100908:	993e                	add	s2,s2,a5
  10090a:	010ed713          	srli	a4,t4,0x10
  10090e:	974a                	add	a4,a4,s2
  100910:	00f77463          	bgeu	a4,a5,100918 <__muldf3+0x116>
  100914:	67c1                	lui	a5,0x10
  100916:	933e                	add	t1,t1,a5
  100918:	6441                	lui	s0,0x10
  10091a:	01075793          	srli	a5,a4,0x10
  10091e:	fff40f93          	addi	t6,s0,-1 # ffff <_min_stack+0xdfff>
  100922:	933e                	add	t1,t1,a5
  100924:	01f777b3          	and	a5,a4,t6
  100928:	01fefeb3          	and	t4,t4,t6
  10092c:	07c2                	slli	a5,a5,0x10
  10092e:	01f4ffb3          	and	t6,s1,t6
  100932:	97f6                	add	a5,a5,t4
  100934:	0104de93          	srli	t4,s1,0x10
  100938:	03ff03b3          	mul	t2,t5,t6
  10093c:	92be                	add	t0,t0,a5
  10093e:	03ee8f33          	mul	t5,t4,t5
  100942:	0103d713          	srli	a4,t2,0x10
  100946:	03d884b3          	mul	s1,a7,t4
  10094a:	03f888b3          	mul	a7,a7,t6
  10094e:	98fa                	add	a7,a7,t5
  100950:	9746                	add	a4,a4,a7
  100952:	01e77363          	bgeu	a4,t5,100958 <__muldf3+0x156>
  100956:	94a2                	add	s1,s1,s0
  100958:	01075f13          	srli	t5,a4,0x10
  10095c:	9f26                	add	t5,t5,s1
  10095e:	64c1                	lui	s1,0x10
  100960:	fff48413          	addi	s0,s1,-1 # ffff <_min_stack+0xdfff>
  100964:	8f61                	and	a4,a4,s0
  100966:	0083f3b3          	and	t2,t2,s0
  10096a:	0742                	slli	a4,a4,0x10
  10096c:	007708b3          	add	a7,a4,t2
  100970:	03fe03b3          	mul	t2,t3,t6
  100974:	03ce8e33          	mul	t3,t4,t3
  100978:	03d60eb3          	mul	t4,a2,t4
  10097c:	03f60633          	mul	a2,a2,t6
  100980:	0103df93          	srli	t6,t2,0x10
  100984:	9672                	add	a2,a2,t3
  100986:	9fb2                	add	t6,t6,a2
  100988:	01cff363          	bgeu	t6,t3,10098e <__muldf3+0x18c>
  10098c:	9ea6                	add	t4,t4,s1
  10098e:	008ff733          	and	a4,t6,s0
  100992:	0083f3b3          	and	t2,t2,s0
  100996:	0742                	slli	a4,a4,0x10
  100998:	9696                	add	a3,a3,t0
  10099a:	971e                	add	a4,a4,t2
  10099c:	933a                	add	t1,t1,a4
  10099e:	00f6b7b3          	sltu	a5,a3,a5
  1009a2:	979a                	add	a5,a5,t1
  1009a4:	00e33633          	sltu	a2,t1,a4
  1009a8:	98b6                	add	a7,a7,a3
  1009aa:	0067b333          	sltu	t1,a5,t1
  1009ae:	00666633          	or	a2,a2,t1
  1009b2:	00d8b6b3          	sltu	a3,a7,a3
  1009b6:	01e78333          	add	t1,a5,t5
  1009ba:	969a                	add	a3,a3,t1
  1009bc:	00f33733          	sltu	a4,t1,a5
  1009c0:	010fdf93          	srli	t6,t6,0x10
  1009c4:	0066b333          	sltu	t1,a3,t1
  1009c8:	00989793          	slli	a5,a7,0x9
  1009cc:	967e                	add	a2,a2,t6
  1009ce:	00676733          	or	a4,a4,t1
  1009d2:	9732                	add	a4,a4,a2
  1009d4:	0107e7b3          	or	a5,a5,a6
  1009d8:	9776                	add	a4,a4,t4
  1009da:	00f037b3          	snez	a5,a5
  1009de:	0178d893          	srli	a7,a7,0x17
  1009e2:	0726                	slli	a4,a4,0x9
  1009e4:	0176d413          	srli	s0,a3,0x17
  1009e8:	0117e7b3          	or	a5,a5,a7
  1009ec:	06a6                	slli	a3,a3,0x9
  1009ee:	8fd5                	or	a5,a5,a3
  1009f0:	00771693          	slli	a3,a4,0x7
  1009f4:	8c59                	or	s0,s0,a4
  1009f6:	0006db63          	bgez	a3,100a0c <__muldf3+0x20a>
  1009fa:	0017d713          	srli	a4,a5,0x1
  1009fe:	8b85                	andi	a5,a5,1
  100a00:	8f5d                	or	a4,a4,a5
  100a02:	01f41793          	slli	a5,s0,0x1f
  100a06:	8fd9                	or	a5,a5,a4
  100a08:	8005                	srli	s0,s0,0x1
  100a0a:	8aaa                	mv	s5,a0
  100a0c:	8556                	mv	a0,s5
  100a0e:	a23d                	j	100b3c <__muldf3+0x33a>
  100a10:	00a4e933          	or	s2,s1,a0
  100a14:	06090563          	beqz	s2,100a7e <__muldf3+0x27c>
  100a18:	c895                	beqz	s1,100a4c <__muldf3+0x24a>
  100a1a:	8526                	mv	a0,s1
  100a1c:	fffff097          	auipc	ra,0xfffff
  100a20:	6ba080e7          	jalr	1722(ra) # 1000d6 <__clzsi2>
  100a24:	ff550713          	addi	a4,a0,-11 # 7fff5 <tohost+0x5ffed>
  100a28:	47f5                	li	a5,29
  100a2a:	ff850693          	addi	a3,a0,-8
  100a2e:	8f99                	sub	a5,a5,a4
  100a30:	00d494b3          	sll	s1,s1,a3
  100a34:	00f457b3          	srl	a5,s0,a5
  100a38:	8fc5                	or	a5,a5,s1
  100a3a:	00d414b3          	sll	s1,s0,a3
  100a3e:	c0d00a93          	li	s5,-1011
  100a42:	8926                	mv	s2,s1
  100a44:	40aa8ab3          	sub	s5,s5,a0
  100a48:	84be                	mv	s1,a5
  100a4a:	b519                	j	100850 <__muldf3+0x4e>
  100a4c:	fffff097          	auipc	ra,0xfffff
  100a50:	68a080e7          	jalr	1674(ra) # 1000d6 <__clzsi2>
  100a54:	87aa                	mv	a5,a0
  100a56:	01578713          	addi	a4,a5,21 # 10015 <_stack_len+0x15>
  100a5a:	46f1                	li	a3,28
  100a5c:	02050513          	addi	a0,a0,32
  100a60:	fce6d4e3          	bge	a3,a4,100a28 <__muldf3+0x226>
  100a64:	17e1                	addi	a5,a5,-8
  100a66:	00f417b3          	sll	a5,s0,a5
  100a6a:	bfd1                	j	100a3e <__muldf3+0x23c>
  100a6c:	00a4e933          	or	s2,s1,a0
  100a70:	00091b63          	bnez	s2,100a86 <__muldf3+0x284>
  100a74:	4481                	li	s1,0
  100a76:	7ff00a93          	li	s5,2047
  100a7a:	4b89                	li	s7,2
  100a7c:	bbd9                	j	100852 <__muldf3+0x50>
  100a7e:	4481                	li	s1,0
  100a80:	4a81                	li	s5,0
  100a82:	4b85                	li	s7,1
  100a84:	b3f9                	j	100852 <__muldf3+0x50>
  100a86:	892a                	mv	s2,a0
  100a88:	7ff00a93          	li	s5,2047
  100a8c:	4b8d                	li	s7,3
  100a8e:	b3d1                	j	100852 <__muldf3+0x50>
  100a90:	016467b3          	or	a5,s0,s6
  100a94:	c3bd                	beqz	a5,100afa <__muldf3+0x2f8>
  100a96:	c80d                	beqz	s0,100ac8 <__muldf3+0x2c6>
  100a98:	8522                	mv	a0,s0
  100a9a:	fffff097          	auipc	ra,0xfffff
  100a9e:	63c080e7          	jalr	1596(ra) # 1000d6 <__clzsi2>
  100aa2:	ff550693          	addi	a3,a0,-11
  100aa6:	4775                	li	a4,29
  100aa8:	ff850793          	addi	a5,a0,-8
  100aac:	8f15                	sub	a4,a4,a3
  100aae:	00f41433          	sll	s0,s0,a5
  100ab2:	00eb5733          	srl	a4,s6,a4
  100ab6:	8f41                	or	a4,a4,s0
  100ab8:	00fb1433          	sll	s0,s6,a5
  100abc:	c0d00693          	li	a3,-1011
  100ac0:	87a2                	mv	a5,s0
  100ac2:	8e89                	sub	a3,a3,a0
  100ac4:	843a                	mv	s0,a4
  100ac6:	b3c1                	j	100886 <__muldf3+0x84>
  100ac8:	855a                	mv	a0,s6
  100aca:	fffff097          	auipc	ra,0xfffff
  100ace:	60c080e7          	jalr	1548(ra) # 1000d6 <__clzsi2>
  100ad2:	87aa                	mv	a5,a0
  100ad4:	01578693          	addi	a3,a5,21
  100ad8:	4771                	li	a4,28
  100ada:	02050513          	addi	a0,a0,32
  100ade:	fcd754e3          	bge	a4,a3,100aa6 <__muldf3+0x2a4>
  100ae2:	17e1                	addi	a5,a5,-8
  100ae4:	00fb1733          	sll	a4,s6,a5
  100ae8:	bfd1                	j	100abc <__muldf3+0x2ba>
  100aea:	016467b3          	or	a5,s0,s6
  100aee:	eb91                	bnez	a5,100b02 <__muldf3+0x300>
  100af0:	4401                	li	s0,0
  100af2:	7ff00693          	li	a3,2047
  100af6:	4709                	li	a4,2
  100af8:	bb41                	j	100888 <__muldf3+0x86>
  100afa:	4401                	li	s0,0
  100afc:	4681                	li	a3,0
  100afe:	4705                	li	a4,1
  100b00:	b361                	j	100888 <__muldf3+0x86>
  100b02:	87da                	mv	a5,s6
  100b04:	7ff00693          	li	a3,2047
  100b08:	470d                	li	a4,3
  100b0a:	bbbd                	j	100888 <__muldf3+0x86>
  100b0c:	4605                	li	a2,1
  100b0e:	00d61633          	sll	a2,a2,a3
  100b12:	53067693          	andi	a3,a2,1328
  100b16:	e6c5                	bnez	a3,100bbe <__muldf3+0x3bc>
  100b18:	24067813          	andi	a6,a2,576
  100b1c:	12081f63          	bnez	a6,100c5a <__muldf3+0x458>
  100b20:	08867613          	andi	a2,a2,136
  100b24:	d80604e3          	beqz	a2,1008ac <__muldf3+0xaa>
  100b28:	85ce                	mv	a1,s3
  100b2a:	4689                	li	a3,2
  100b2c:	12d70263          	beq	a4,a3,100c50 <__muldf3+0x44e>
  100b30:	468d                	li	a3,3
  100b32:	12d70a63          	beq	a4,a3,100c66 <__muldf3+0x464>
  100b36:	4685                	li	a3,1
  100b38:	12d70b63          	beq	a4,a3,100c6e <__muldf3+0x46c>
  100b3c:	3ff50613          	addi	a2,a0,1023
  100b40:	08c05363          	blez	a2,100bc6 <__muldf3+0x3c4>
  100b44:	0077f713          	andi	a4,a5,7
  100b48:	cf01                	beqz	a4,100b60 <__muldf3+0x35e>
  100b4a:	00f7f713          	andi	a4,a5,15
  100b4e:	4691                	li	a3,4
  100b50:	00d70863          	beq	a4,a3,100b60 <__muldf3+0x35e>
  100b54:	00478713          	addi	a4,a5,4
  100b58:	00f736b3          	sltu	a3,a4,a5
  100b5c:	9436                	add	s0,s0,a3
  100b5e:	87ba                	mv	a5,a4
  100b60:	00741713          	slli	a4,s0,0x7
  100b64:	00075863          	bgez	a4,100b74 <__muldf3+0x372>
  100b68:	ff000737          	lui	a4,0xff000
  100b6c:	177d                	addi	a4,a4,-1 # feffffff <fromhost+0xfee2ffef>
  100b6e:	8c79                	and	s0,s0,a4
  100b70:	40050613          	addi	a2,a0,1024
  100b74:	7fe00713          	li	a4,2046
  100b78:	0cc74c63          	blt	a4,a2,100c50 <__muldf3+0x44e>
  100b7c:	838d                	srli	a5,a5,0x3
  100b7e:	01d41693          	slli	a3,s0,0x1d
  100b82:	8edd                	or	a3,a3,a5
  100b84:	00345713          	srli	a4,s0,0x3
  100b88:	0732                	slli	a4,a4,0xc
  100b8a:	50b2                	lw	ra,44(sp)
  100b8c:	5422                	lw	s0,40(sp)
  100b8e:	0652                	slli	a2,a2,0x14
  100b90:	8331                	srli	a4,a4,0xc
  100b92:	05fe                	slli	a1,a1,0x1f
  100b94:	8e59                	or	a2,a2,a4
  100b96:	00b667b3          	or	a5,a2,a1
  100b9a:	5492                	lw	s1,36(sp)
  100b9c:	5902                	lw	s2,32(sp)
  100b9e:	49f2                	lw	s3,28(sp)
  100ba0:	4a62                	lw	s4,24(sp)
  100ba2:	4ad2                	lw	s5,20(sp)
  100ba4:	4b42                	lw	s6,16(sp)
  100ba6:	4bb2                	lw	s7,12(sp)
  100ba8:	8536                	mv	a0,a3
  100baa:	85be                	mv	a1,a5
  100bac:	6145                	addi	sp,sp,48
  100bae:	8082                	ret
  100bb0:	463d                	li	a2,15
  100bb2:	0ac68a63          	beq	a3,a2,100c66 <__muldf3+0x464>
  100bb6:	462d                	li	a2,11
  100bb8:	85d2                	mv	a1,s4
  100bba:	f6c687e3          	beq	a3,a2,100b28 <__muldf3+0x326>
  100bbe:	8426                	mv	s0,s1
  100bc0:	87ca                	mv	a5,s2
  100bc2:	875e                	mv	a4,s7
  100bc4:	b79d                	j	100b2a <__muldf3+0x328>
  100bc6:	4705                	li	a4,1
  100bc8:	8f11                	sub	a4,a4,a2
  100bca:	03800693          	li	a3,56
  100bce:	0ae6c063          	blt	a3,a4,100c6e <__muldf3+0x46c>
  100bd2:	46fd                	li	a3,31
  100bd4:	04e6ca63          	blt	a3,a4,100c28 <__muldf3+0x426>
  100bd8:	41e50513          	addi	a0,a0,1054
  100bdc:	00e7d633          	srl	a2,a5,a4
  100be0:	00a416b3          	sll	a3,s0,a0
  100be4:	00a79533          	sll	a0,a5,a0
  100be8:	8ed1                	or	a3,a3,a2
  100bea:	00a03533          	snez	a0,a0
  100bee:	00a6e7b3          	or	a5,a3,a0
  100bf2:	00e45733          	srl	a4,s0,a4
  100bf6:	0077f693          	andi	a3,a5,7
  100bfa:	ce81                	beqz	a3,100c12 <__muldf3+0x410>
  100bfc:	00f7f693          	andi	a3,a5,15
  100c00:	4611                	li	a2,4
  100c02:	00c68863          	beq	a3,a2,100c12 <__muldf3+0x410>
  100c06:	00478693          	addi	a3,a5,4
  100c0a:	00f6b633          	sltu	a2,a3,a5
  100c0e:	9732                	add	a4,a4,a2
  100c10:	87b6                	mv	a5,a3
  100c12:	00871693          	slli	a3,a4,0x8
  100c16:	0406cf63          	bltz	a3,100c74 <__muldf3+0x472>
  100c1a:	01d71693          	slli	a3,a4,0x1d
  100c1e:	838d                	srli	a5,a5,0x3
  100c20:	8edd                	or	a3,a3,a5
  100c22:	830d                	srli	a4,a4,0x3
  100c24:	4601                	li	a2,0
  100c26:	b78d                	j	100b88 <__muldf3+0x386>
  100c28:	5685                	li	a3,-31
  100c2a:	8e91                	sub	a3,a3,a2
  100c2c:	02000813          	li	a6,32
  100c30:	00d456b3          	srl	a3,s0,a3
  100c34:	4601                	li	a2,0
  100c36:	01070663          	beq	a4,a6,100c42 <__muldf3+0x440>
  100c3a:	43e50613          	addi	a2,a0,1086
  100c3e:	00c41633          	sll	a2,s0,a2
  100c42:	8e5d                	or	a2,a2,a5
  100c44:	00c03633          	snez	a2,a2
  100c48:	00c6e7b3          	or	a5,a3,a2
  100c4c:	4701                	li	a4,0
  100c4e:	b765                	j	100bf6 <__muldf3+0x3f4>
  100c50:	4701                	li	a4,0
  100c52:	4681                	li	a3,0
  100c54:	7ff00613          	li	a2,2047
  100c58:	bf05                	j	100b88 <__muldf3+0x386>
  100c5a:	00080737          	lui	a4,0x80
  100c5e:	7ff00613          	li	a2,2047
  100c62:	4581                	li	a1,0
  100c64:	b715                	j	100b88 <__muldf3+0x386>
  100c66:	00080737          	lui	a4,0x80
  100c6a:	4681                	li	a3,0
  100c6c:	bfcd                	j	100c5e <__muldf3+0x45c>
  100c6e:	4701                	li	a4,0
  100c70:	4681                	li	a3,0
  100c72:	bf4d                	j	100c24 <__muldf3+0x422>
  100c74:	4701                	li	a4,0
  100c76:	4681                	li	a3,0
  100c78:	4605                	li	a2,1
  100c7a:	b739                	j	100b88 <__muldf3+0x386>

00100c7c <__subdf3>:
  100c7c:	00100837          	lui	a6,0x100
  100c80:	187d                	addi	a6,a6,-1 # fffff <tohost+0xdfff7>
  100c82:	1101                	addi	sp,sp,-32
  100c84:	00b878b3          	and	a7,a6,a1
  100c88:	0145d713          	srli	a4,a1,0x14
  100c8c:	01d55793          	srli	a5,a0,0x1d
  100c90:	00d87833          	and	a6,a6,a3
  100c94:	c84a                	sw	s2,16(sp)
  100c96:	7ff77913          	andi	s2,a4,2047
  100c9a:	00389713          	slli	a4,a7,0x3
  100c9e:	0146d893          	srli	a7,a3,0x14
  100ca2:	ca26                	sw	s1,20(sp)
  100ca4:	8fd9                	or	a5,a5,a4
  100ca6:	01f5d493          	srli	s1,a1,0x1f
  100caa:	01d65713          	srli	a4,a2,0x1d
  100cae:	080e                	slli	a6,a6,0x3
  100cb0:	ce06                	sw	ra,28(sp)
  100cb2:	cc22                	sw	s0,24(sp)
  100cb4:	c64e                	sw	s3,12(sp)
  100cb6:	7ff8f893          	andi	a7,a7,2047
  100cba:	7ff00593          	li	a1,2047
  100cbe:	050e                	slli	a0,a0,0x3
  100cc0:	82fd                	srli	a3,a3,0x1f
  100cc2:	01076733          	or	a4,a4,a6
  100cc6:	060e                	slli	a2,a2,0x3
  100cc8:	00b89563          	bne	a7,a1,100cd2 <__subdf3+0x56>
  100ccc:	00c765b3          	or	a1,a4,a2
  100cd0:	e199                	bnez	a1,100cd6 <__subdf3+0x5a>
  100cd2:	0016c693          	xori	a3,a3,1
  100cd6:	41190833          	sub	a6,s2,a7
  100cda:	22969b63          	bne	a3,s1,100f10 <__subdf3+0x294>
  100cde:	0f005563          	blez	a6,100dc8 <__subdf3+0x14c>
  100ce2:	02089963          	bnez	a7,100d14 <__subdf3+0x98>
  100ce6:	00c766b3          	or	a3,a4,a2
  100cea:	52068863          	beqz	a3,10121a <__subdf3+0x59e>
  100cee:	fff80593          	addi	a1,a6,-1
  100cf2:	e991                	bnez	a1,100d06 <__subdf3+0x8a>
  100cf4:	962a                	add	a2,a2,a0
  100cf6:	00a636b3          	sltu	a3,a2,a0
  100cfa:	973e                	add	a4,a4,a5
  100cfc:	8532                	mv	a0,a2
  100cfe:	00d707b3          	add	a5,a4,a3
  100d02:	4905                	li	s2,1
  100d04:	a8b9                	j	100d62 <__subdf3+0xe6>
  100d06:	7ff00693          	li	a3,2047
  100d0a:	00d81d63          	bne	a6,a3,100d24 <__subdf3+0xa8>
  100d0e:	7ff00913          	li	s2,2047
  100d12:	a25d                	j	100eb8 <__subdf3+0x23c>
  100d14:	7ff00693          	li	a3,2047
  100d18:	1ad90063          	beq	s2,a3,100eb8 <__subdf3+0x23c>
  100d1c:	008006b7          	lui	a3,0x800
  100d20:	8f55                	or	a4,a4,a3
  100d22:	85c2                	mv	a1,a6
  100d24:	03800693          	li	a3,56
  100d28:	08b6cb63          	blt	a3,a1,100dbe <__subdf3+0x142>
  100d2c:	46fd                	li	a3,31
  100d2e:	06b6c163          	blt	a3,a1,100d90 <__subdf3+0x114>
  100d32:	02000813          	li	a6,32
  100d36:	40b80833          	sub	a6,a6,a1
  100d3a:	010716b3          	sll	a3,a4,a6
  100d3e:	00b658b3          	srl	a7,a2,a1
  100d42:	01061833          	sll	a6,a2,a6
  100d46:	0116e6b3          	or	a3,a3,a7
  100d4a:	01003833          	snez	a6,a6
  100d4e:	0106e6b3          	or	a3,a3,a6
  100d52:	00b755b3          	srl	a1,a4,a1
  100d56:	9536                	add	a0,a0,a3
  100d58:	95be                	add	a1,a1,a5
  100d5a:	00d536b3          	sltu	a3,a0,a3
  100d5e:	00d587b3          	add	a5,a1,a3
  100d62:	00879713          	slli	a4,a5,0x8
  100d66:	14075963          	bgez	a4,100eb8 <__subdf3+0x23c>
  100d6a:	0905                	addi	s2,s2,1
  100d6c:	7ff00713          	li	a4,2047
  100d70:	4ae90263          	beq	s2,a4,101214 <__subdf3+0x598>
  100d74:	ff800737          	lui	a4,0xff800
  100d78:	177d                	addi	a4,a4,-1 # ff7fffff <fromhost+0xff62ffef>
  100d7a:	8f7d                	and	a4,a4,a5
  100d7c:	00155793          	srli	a5,a0,0x1
  100d80:	8905                	andi	a0,a0,1
  100d82:	8fc9                	or	a5,a5,a0
  100d84:	01f71513          	slli	a0,a4,0x1f
  100d88:	8d5d                	or	a0,a0,a5
  100d8a:	00175793          	srli	a5,a4,0x1
  100d8e:	a22d                	j	100eb8 <__subdf3+0x23c>
  100d90:	fe058693          	addi	a3,a1,-32
  100d94:	02000893          	li	a7,32
  100d98:	00d756b3          	srl	a3,a4,a3
  100d9c:	4801                	li	a6,0
  100d9e:	01158863          	beq	a1,a7,100dae <__subdf3+0x132>
  100da2:	04000813          	li	a6,64
  100da6:	40b80833          	sub	a6,a6,a1
  100daa:	01071833          	sll	a6,a4,a6
  100dae:	00c86833          	or	a6,a6,a2
  100db2:	01003833          	snez	a6,a6
  100db6:	0106e6b3          	or	a3,a3,a6
  100dba:	4581                	li	a1,0
  100dbc:	bf69                	j	100d56 <__subdf3+0xda>
  100dbe:	00c766b3          	or	a3,a4,a2
  100dc2:	00d036b3          	snez	a3,a3
  100dc6:	bfd5                	j	100dba <__subdf3+0x13e>
  100dc8:	0a080a63          	beqz	a6,100e7c <__subdf3+0x200>
  100dcc:	412886b3          	sub	a3,a7,s2
  100dd0:	02091063          	bnez	s2,100df0 <__subdf3+0x174>
  100dd4:	00a7e5b3          	or	a1,a5,a0
  100dd8:	42058663          	beqz	a1,101204 <__subdf3+0x588>
  100ddc:	fff68593          	addi	a1,a3,-1 # 7fffff <fromhost+0x62ffef>
  100de0:	d991                	beqz	a1,100cf4 <__subdf3+0x78>
  100de2:	7ff00813          	li	a6,2047
  100de6:	01069d63          	bne	a3,a6,100e00 <__subdf3+0x184>
  100dea:	87ba                	mv	a5,a4
  100dec:	8532                	mv	a0,a2
  100dee:	b705                	j	100d0e <__subdf3+0x92>
  100df0:	7ff00593          	li	a1,2047
  100df4:	feb88be3          	beq	a7,a1,100dea <__subdf3+0x16e>
  100df8:	008005b7          	lui	a1,0x800
  100dfc:	8fcd                	or	a5,a5,a1
  100dfe:	85b6                	mv	a1,a3
  100e00:	03800693          	li	a3,56
  100e04:	06b6c763          	blt	a3,a1,100e72 <__subdf3+0x1f6>
  100e08:	46fd                	li	a3,31
  100e0a:	02b6cd63          	blt	a3,a1,100e44 <__subdf3+0x1c8>
  100e0e:	02000813          	li	a6,32
  100e12:	40b80833          	sub	a6,a6,a1
  100e16:	010796b3          	sll	a3,a5,a6
  100e1a:	00b55333          	srl	t1,a0,a1
  100e1e:	01051833          	sll	a6,a0,a6
  100e22:	0066e6b3          	or	a3,a3,t1
  100e26:	01003833          	snez	a6,a6
  100e2a:	0106e6b3          	or	a3,a3,a6
  100e2e:	00b7d5b3          	srl	a1,a5,a1
  100e32:	9636                	add	a2,a2,a3
  100e34:	95ba                	add	a1,a1,a4
  100e36:	00d636b3          	sltu	a3,a2,a3
  100e3a:	8532                	mv	a0,a2
  100e3c:	00d587b3          	add	a5,a1,a3
  100e40:	8946                	mv	s2,a7
  100e42:	b705                	j	100d62 <__subdf3+0xe6>
  100e44:	fe058693          	addi	a3,a1,-32 # 7fffe0 <fromhost+0x62ffd0>
  100e48:	02000313          	li	t1,32
  100e4c:	00d7d6b3          	srl	a3,a5,a3
  100e50:	4801                	li	a6,0
  100e52:	00658863          	beq	a1,t1,100e62 <__subdf3+0x1e6>
  100e56:	04000813          	li	a6,64
  100e5a:	40b80833          	sub	a6,a6,a1
  100e5e:	01079833          	sll	a6,a5,a6
  100e62:	00a86833          	or	a6,a6,a0
  100e66:	01003833          	snez	a6,a6
  100e6a:	0106e6b3          	or	a3,a3,a6
  100e6e:	4581                	li	a1,0
  100e70:	b7c9                	j	100e32 <__subdf3+0x1b6>
  100e72:	00a7e6b3          	or	a3,a5,a0
  100e76:	00d036b3          	snez	a3,a3
  100e7a:	bfd5                	j	100e6e <__subdf3+0x1f2>
  100e7c:	00190693          	addi	a3,s2,1
  100e80:	7fe6f593          	andi	a1,a3,2046
  100e84:	e5ad                	bnez	a1,100eee <__subdf3+0x272>
  100e86:	00a7e6b3          	or	a3,a5,a0
  100e8a:	04091763          	bnez	s2,100ed8 <__subdf3+0x25c>
  100e8e:	36068e63          	beqz	a3,10120a <__subdf3+0x58e>
  100e92:	00c766b3          	or	a3,a4,a2
  100e96:	c28d                	beqz	a3,100eb8 <__subdf3+0x23c>
  100e98:	962a                	add	a2,a2,a0
  100e9a:	00a636b3          	sltu	a3,a2,a0
  100e9e:	973e                	add	a4,a4,a5
  100ea0:	00d707b3          	add	a5,a4,a3
  100ea4:	00879713          	slli	a4,a5,0x8
  100ea8:	8532                	mv	a0,a2
  100eaa:	00075763          	bgez	a4,100eb8 <__subdf3+0x23c>
  100eae:	ff800737          	lui	a4,0xff800
  100eb2:	177d                	addi	a4,a4,-1 # ff7fffff <fromhost+0xff62ffef>
  100eb4:	8ff9                	and	a5,a5,a4
  100eb6:	4905                	li	s2,1
  100eb8:	00757713          	andi	a4,a0,7
  100ebc:	36070763          	beqz	a4,10122a <__subdf3+0x5ae>
  100ec0:	00f57713          	andi	a4,a0,15
  100ec4:	4691                	li	a3,4
  100ec6:	36d70263          	beq	a4,a3,10122a <__subdf3+0x5ae>
  100eca:	00450713          	addi	a4,a0,4
  100ece:	00a736b3          	sltu	a3,a4,a0
  100ed2:	97b6                	add	a5,a5,a3
  100ed4:	853a                	mv	a0,a4
  100ed6:	ae91                	j	10122a <__subdf3+0x5ae>
  100ed8:	da89                	beqz	a3,100dea <__subdf3+0x16e>
  100eda:	8e59                	or	a2,a2,a4
  100edc:	e20609e3          	beqz	a2,100d0e <__subdf3+0x92>
  100ee0:	4481                	li	s1,0
  100ee2:	004007b7          	lui	a5,0x400
  100ee6:	4501                	li	a0,0
  100ee8:	7ff00913          	li	s2,2047
  100eec:	ae3d                	j	10122a <__subdf3+0x5ae>
  100eee:	7ff00593          	li	a1,2047
  100ef2:	30b68f63          	beq	a3,a1,101210 <__subdf3+0x594>
  100ef6:	962a                	add	a2,a2,a0
  100ef8:	00a63533          	sltu	a0,a2,a0
  100efc:	973e                	add	a4,a4,a5
  100efe:	972a                	add	a4,a4,a0
  100f00:	01f71513          	slli	a0,a4,0x1f
  100f04:	8205                	srli	a2,a2,0x1
  100f06:	8d51                	or	a0,a0,a2
  100f08:	00175793          	srli	a5,a4,0x1
  100f0c:	8936                	mv	s2,a3
  100f0e:	b76d                	j	100eb8 <__subdf3+0x23c>
  100f10:	0d005a63          	blez	a6,100fe4 <__subdf3+0x368>
  100f14:	08089463          	bnez	a7,100f9c <__subdf3+0x320>
  100f18:	00c766b3          	or	a3,a4,a2
  100f1c:	2e068f63          	beqz	a3,10121a <__subdf3+0x59e>
  100f20:	fff80693          	addi	a3,a6,-1
  100f24:	ee81                	bnez	a3,100f3c <__subdf3+0x2c0>
  100f26:	40c50633          	sub	a2,a0,a2
  100f2a:	00c536b3          	sltu	a3,a0,a2
  100f2e:	40e78733          	sub	a4,a5,a4
  100f32:	8532                	mv	a0,a2
  100f34:	40d707b3          	sub	a5,a4,a3
  100f38:	4905                	li	s2,1
  100f3a:	a0b9                	j	100f88 <__subdf3+0x30c>
  100f3c:	7ff00593          	li	a1,2047
  100f40:	dcb807e3          	beq	a6,a1,100d0e <__subdf3+0x92>
  100f44:	03800593          	li	a1,56
  100f48:	08d5ca63          	blt	a1,a3,100fdc <__subdf3+0x360>
  100f4c:	45fd                	li	a1,31
  100f4e:	06d5c063          	blt	a1,a3,100fae <__subdf3+0x332>
  100f52:	02000813          	li	a6,32
  100f56:	40d80833          	sub	a6,a6,a3
  100f5a:	00d658b3          	srl	a7,a2,a3
  100f5e:	010715b3          	sll	a1,a4,a6
  100f62:	01061833          	sll	a6,a2,a6
  100f66:	0115e5b3          	or	a1,a1,a7
  100f6a:	01003833          	snez	a6,a6
  100f6e:	0105e633          	or	a2,a1,a6
  100f72:	00d756b3          	srl	a3,a4,a3
  100f76:	40c50633          	sub	a2,a0,a2
  100f7a:	00c53733          	sltu	a4,a0,a2
  100f7e:	40d786b3          	sub	a3,a5,a3
  100f82:	8532                	mv	a0,a2
  100f84:	40e687b3          	sub	a5,a3,a4
  100f88:	00879713          	slli	a4,a5,0x8
  100f8c:	f20756e3          	bgez	a4,100eb8 <__subdf3+0x23c>
  100f90:	00800437          	lui	s0,0x800
  100f94:	147d                	addi	s0,s0,-1 # 7fffff <fromhost+0x62ffef>
  100f96:	8c7d                	and	s0,s0,a5
  100f98:	89aa                	mv	s3,a0
  100f9a:	aa55                	j	10114e <__subdf3+0x4d2>
  100f9c:	7ff00693          	li	a3,2047
  100fa0:	f0d90ce3          	beq	s2,a3,100eb8 <__subdf3+0x23c>
  100fa4:	008006b7          	lui	a3,0x800
  100fa8:	8f55                	or	a4,a4,a3
  100faa:	86c2                	mv	a3,a6
  100fac:	bf61                	j	100f44 <__subdf3+0x2c8>
  100fae:	fe068593          	addi	a1,a3,-32 # 7fffe0 <fromhost+0x62ffd0>
  100fb2:	02000893          	li	a7,32
  100fb6:	00b755b3          	srl	a1,a4,a1
  100fba:	4801                	li	a6,0
  100fbc:	01168863          	beq	a3,a7,100fcc <__subdf3+0x350>
  100fc0:	04000813          	li	a6,64
  100fc4:	40d80833          	sub	a6,a6,a3
  100fc8:	01071833          	sll	a6,a4,a6
  100fcc:	00c86833          	or	a6,a6,a2
  100fd0:	01003833          	snez	a6,a6
  100fd4:	0105e633          	or	a2,a1,a6
  100fd8:	4681                	li	a3,0
  100fda:	bf71                	j	100f76 <__subdf3+0x2fa>
  100fdc:	8e59                	or	a2,a2,a4
  100fde:	00c03633          	snez	a2,a2
  100fe2:	bfdd                	j	100fd8 <__subdf3+0x35c>
  100fe4:	0c080663          	beqz	a6,1010b0 <__subdf3+0x434>
  100fe8:	41288833          	sub	a6,a7,s2
  100fec:	02091b63          	bnez	s2,101022 <__subdf3+0x3a6>
  100ff0:	00a7e5b3          	or	a1,a5,a0
  100ff4:	22058563          	beqz	a1,10121e <__subdf3+0x5a2>
  100ff8:	fff80593          	addi	a1,a6,-1
  100ffc:	e991                	bnez	a1,101010 <__subdf3+0x394>
  100ffe:	40a60533          	sub	a0,a2,a0
  101002:	8f1d                	sub	a4,a4,a5
  101004:	00a63633          	sltu	a2,a2,a0
  101008:	40c707b3          	sub	a5,a4,a2
  10100c:	84b6                	mv	s1,a3
  10100e:	b72d                	j	100f38 <__subdf3+0x2bc>
  101010:	7ff00313          	li	t1,2047
  101014:	00681f63          	bne	a6,t1,101032 <__subdf3+0x3b6>
  101018:	87ba                	mv	a5,a4
  10101a:	8532                	mv	a0,a2
  10101c:	7ff00913          	li	s2,2047
  101020:	a845                	j	1010d0 <__subdf3+0x454>
  101022:	7ff00593          	li	a1,2047
  101026:	feb889e3          	beq	a7,a1,101018 <__subdf3+0x39c>
  10102a:	008005b7          	lui	a1,0x800
  10102e:	8fcd                	or	a5,a5,a1
  101030:	85c2                	mv	a1,a6
  101032:	03800813          	li	a6,56
  101036:	06b84963          	blt	a6,a1,1010a8 <__subdf3+0x42c>
  10103a:	487d                	li	a6,31
  10103c:	02b84f63          	blt	a6,a1,10107a <__subdf3+0x3fe>
  101040:	02000313          	li	t1,32
  101044:	40b30333          	sub	t1,t1,a1
  101048:	00b55e33          	srl	t3,a0,a1
  10104c:	00679833          	sll	a6,a5,t1
  101050:	00651333          	sll	t1,a0,t1
  101054:	01c86833          	or	a6,a6,t3
  101058:	00603333          	snez	t1,t1
  10105c:	00686533          	or	a0,a6,t1
  101060:	00b7d5b3          	srl	a1,a5,a1
  101064:	40a60533          	sub	a0,a2,a0
  101068:	40b705b3          	sub	a1,a4,a1
  10106c:	00a63633          	sltu	a2,a2,a0
  101070:	40c587b3          	sub	a5,a1,a2
  101074:	8946                	mv	s2,a7
  101076:	84b6                	mv	s1,a3
  101078:	bf01                	j	100f88 <__subdf3+0x30c>
  10107a:	fe058813          	addi	a6,a1,-32 # 7fffe0 <fromhost+0x62ffd0>
  10107e:	02000e13          	li	t3,32
  101082:	0107d833          	srl	a6,a5,a6
  101086:	4301                	li	t1,0
  101088:	01c58863          	beq	a1,t3,101098 <__subdf3+0x41c>
  10108c:	04000313          	li	t1,64
  101090:	40b30333          	sub	t1,t1,a1
  101094:	00679333          	sll	t1,a5,t1
  101098:	00a36333          	or	t1,t1,a0
  10109c:	00603333          	snez	t1,t1
  1010a0:	00686533          	or	a0,a6,t1
  1010a4:	4581                	li	a1,0
  1010a6:	bf7d                	j	101064 <__subdf3+0x3e8>
  1010a8:	8d5d                	or	a0,a0,a5
  1010aa:	00a03533          	snez	a0,a0
  1010ae:	bfdd                	j	1010a4 <__subdf3+0x428>
  1010b0:	00190593          	addi	a1,s2,1
  1010b4:	7fe5f593          	andi	a1,a1,2046
  1010b8:	e5b5                	bnez	a1,101124 <__subdf3+0x4a8>
  1010ba:	00c765b3          	or	a1,a4,a2
  1010be:	00a7e833          	or	a6,a5,a0
  1010c2:	04091663          	bnez	s2,10110e <__subdf3+0x492>
  1010c6:	00081763          	bnez	a6,1010d4 <__subdf3+0x458>
  1010ca:	c1ed                	beqz	a1,1011ac <__subdf3+0x530>
  1010cc:	87ba                	mv	a5,a4
  1010ce:	8532                	mv	a0,a2
  1010d0:	84b6                	mv	s1,a3
  1010d2:	b3dd                	j	100eb8 <__subdf3+0x23c>
  1010d4:	de0582e3          	beqz	a1,100eb8 <__subdf3+0x23c>
  1010d8:	40c50833          	sub	a6,a0,a2
  1010dc:	010538b3          	sltu	a7,a0,a6
  1010e0:	40e785b3          	sub	a1,a5,a4
  1010e4:	411585b3          	sub	a1,a1,a7
  1010e8:	00859893          	slli	a7,a1,0x8
  1010ec:	0008da63          	bgez	a7,101100 <__subdf3+0x484>
  1010f0:	40a60533          	sub	a0,a2,a0
  1010f4:	8f1d                	sub	a4,a4,a5
  1010f6:	00a63633          	sltu	a2,a2,a0
  1010fa:	40c707b3          	sub	a5,a4,a2
  1010fe:	bfc9                	j	1010d0 <__subdf3+0x454>
  101100:	00b86533          	or	a0,a6,a1
  101104:	12050163          	beqz	a0,101226 <__subdf3+0x5aa>
  101108:	87ae                	mv	a5,a1
  10110a:	8542                	mv	a0,a6
  10110c:	b375                	j	100eb8 <__subdf3+0x23c>
  10110e:	00081863          	bnez	a6,10111e <__subdf3+0x4a2>
  101112:	dc0587e3          	beqz	a1,100ee0 <__subdf3+0x264>
  101116:	87ba                	mv	a5,a4
  101118:	8532                	mv	a0,a2
  10111a:	84b6                	mv	s1,a3
  10111c:	becd                	j	100d0e <__subdf3+0x92>
  10111e:	be0588e3          	beqz	a1,100d0e <__subdf3+0x92>
  101122:	bb7d                	j	100ee0 <__subdf3+0x264>
  101124:	40c505b3          	sub	a1,a0,a2
  101128:	00b53833          	sltu	a6,a0,a1
  10112c:	40e78433          	sub	s0,a5,a4
  101130:	41040433          	sub	s0,s0,a6
  101134:	00841813          	slli	a6,s0,0x8
  101138:	89ae                	mv	s3,a1
  10113a:	06085663          	bgez	a6,1011a6 <__subdf3+0x52a>
  10113e:	40a609b3          	sub	s3,a2,a0
  101142:	40f70433          	sub	s0,a4,a5
  101146:	01363633          	sltu	a2,a2,s3
  10114a:	8c11                	sub	s0,s0,a2
  10114c:	84b6                	mv	s1,a3
  10114e:	c02d                	beqz	s0,1011b0 <__subdf3+0x534>
  101150:	8522                	mv	a0,s0
  101152:	fffff097          	auipc	ra,0xfffff
  101156:	f84080e7          	jalr	-124(ra) # 1000d6 <__clzsi2>
  10115a:	ff850693          	addi	a3,a0,-8
  10115e:	02000793          	li	a5,32
  101162:	8f95                	sub	a5,a5,a3
  101164:	00d41433          	sll	s0,s0,a3
  101168:	00f9d7b3          	srl	a5,s3,a5
  10116c:	8fc1                	or	a5,a5,s0
  10116e:	00d99433          	sll	s0,s3,a3
  101172:	0926c163          	blt	a3,s2,1011f4 <__subdf3+0x578>
  101176:	412686b3          	sub	a3,a3,s2
  10117a:	00168613          	addi	a2,a3,1
  10117e:	477d                	li	a4,31
  101180:	04c74763          	blt	a4,a2,1011ce <__subdf3+0x552>
  101184:	02000713          	li	a4,32
  101188:	8f11                	sub	a4,a4,a2
  10118a:	00e79533          	sll	a0,a5,a4
  10118e:	00c456b3          	srl	a3,s0,a2
  101192:	00e41733          	sll	a4,s0,a4
  101196:	8d55                	or	a0,a0,a3
  101198:	00e03733          	snez	a4,a4
  10119c:	8d59                	or	a0,a0,a4
  10119e:	00c7d7b3          	srl	a5,a5,a2
  1011a2:	4901                	li	s2,0
  1011a4:	bb11                	j	100eb8 <__subdf3+0x23c>
  1011a6:	8dc1                	or	a1,a1,s0
  1011a8:	f1dd                	bnez	a1,10114e <__subdf3+0x4d2>
  1011aa:	4901                	li	s2,0
  1011ac:	4481                	li	s1,0
  1011ae:	a09d                	j	101214 <__subdf3+0x598>
  1011b0:	854e                	mv	a0,s3
  1011b2:	fffff097          	auipc	ra,0xfffff
  1011b6:	f24080e7          	jalr	-220(ra) # 1000d6 <__clzsi2>
  1011ba:	01850693          	addi	a3,a0,24
  1011be:	47fd                	li	a5,31
  1011c0:	f8d7dfe3          	bge	a5,a3,10115e <__subdf3+0x4e2>
  1011c4:	ff850793          	addi	a5,a0,-8
  1011c8:	00f997b3          	sll	a5,s3,a5
  1011cc:	b75d                	j	101172 <__subdf3+0x4f6>
  1011ce:	1685                	addi	a3,a3,-31
  1011d0:	00d7d533          	srl	a0,a5,a3
  1011d4:	02000693          	li	a3,32
  1011d8:	4701                	li	a4,0
  1011da:	00d60763          	beq	a2,a3,1011e8 <__subdf3+0x56c>
  1011de:	04000713          	li	a4,64
  1011e2:	8f11                	sub	a4,a4,a2
  1011e4:	00e79733          	sll	a4,a5,a4
  1011e8:	8f41                	or	a4,a4,s0
  1011ea:	00e03733          	snez	a4,a4
  1011ee:	8d59                	or	a0,a0,a4
  1011f0:	4781                	li	a5,0
  1011f2:	bf45                	j	1011a2 <__subdf3+0x526>
  1011f4:	ff800737          	lui	a4,0xff800
  1011f8:	177d                	addi	a4,a4,-1 # ff7fffff <fromhost+0xff62ffef>
  1011fa:	40d90933          	sub	s2,s2,a3
  1011fe:	8ff9                	and	a5,a5,a4
  101200:	8522                	mv	a0,s0
  101202:	b95d                	j	100eb8 <__subdf3+0x23c>
  101204:	87ba                	mv	a5,a4
  101206:	8532                	mv	a0,a2
  101208:	b311                	j	100f0c <__subdf3+0x290>
  10120a:	87ba                	mv	a5,a4
  10120c:	8532                	mv	a0,a2
  10120e:	b16d                	j	100eb8 <__subdf3+0x23c>
  101210:	7ff00913          	li	s2,2047
  101214:	4781                	li	a5,0
  101216:	4501                	li	a0,0
  101218:	a809                	j	10122a <__subdf3+0x5ae>
  10121a:	8942                	mv	s2,a6
  10121c:	b971                	j	100eb8 <__subdf3+0x23c>
  10121e:	87ba                	mv	a5,a4
  101220:	8532                	mv	a0,a2
  101222:	8942                	mv	s2,a6
  101224:	b575                	j	1010d0 <__subdf3+0x454>
  101226:	4781                	li	a5,0
  101228:	4481                	li	s1,0
  10122a:	00879713          	slli	a4,a5,0x8
  10122e:	00075b63          	bgez	a4,101244 <__subdf3+0x5c8>
  101232:	0905                	addi	s2,s2,1
  101234:	7ff00713          	li	a4,2047
  101238:	04e90b63          	beq	s2,a4,10128e <__subdf3+0x612>
  10123c:	ff800737          	lui	a4,0xff800
  101240:	177d                	addi	a4,a4,-1 # ff7fffff <fromhost+0xff62ffef>
  101242:	8ff9                	and	a5,a5,a4
  101244:	01d79693          	slli	a3,a5,0x1d
  101248:	810d                	srli	a0,a0,0x3
  10124a:	7ff00713          	li	a4,2047
  10124e:	8ec9                	or	a3,a3,a0
  101250:	838d                	srli	a5,a5,0x3
  101252:	00e91963          	bne	s2,a4,101264 <__subdf3+0x5e8>
  101256:	8edd                	or	a3,a3,a5
  101258:	4781                	li	a5,0
  10125a:	c689                	beqz	a3,101264 <__subdf3+0x5e8>
  10125c:	000807b7          	lui	a5,0x80
  101260:	4681                	li	a3,0
  101262:	4481                	li	s1,0
  101264:	01491713          	slli	a4,s2,0x14
  101268:	7ff00637          	lui	a2,0x7ff00
  10126c:	07b2                	slli	a5,a5,0xc
  10126e:	8f71                	and	a4,a4,a2
  101270:	40f2                	lw	ra,28(sp)
  101272:	4462                	lw	s0,24(sp)
  101274:	83b1                	srli	a5,a5,0xc
  101276:	8fd9                	or	a5,a5,a4
  101278:	01f49713          	slli	a4,s1,0x1f
  10127c:	00e7e633          	or	a2,a5,a4
  101280:	44d2                	lw	s1,20(sp)
  101282:	4942                	lw	s2,16(sp)
  101284:	49b2                	lw	s3,12(sp)
  101286:	8536                	mv	a0,a3
  101288:	85b2                	mv	a1,a2
  10128a:	6105                	addi	sp,sp,32
  10128c:	8082                	ret
  10128e:	4781                	li	a5,0
  101290:	4501                	li	a0,0
  101292:	bf4d                	j	101244 <__subdf3+0x5c8>

00101294 <__fixdfsi>:
  101294:	0145d713          	srli	a4,a1,0x14
  101298:	001006b7          	lui	a3,0x100
  10129c:	fff68793          	addi	a5,a3,-1 # fffff <tohost+0xdfff7>
  1012a0:	7ff77713          	andi	a4,a4,2047
  1012a4:	3fe00613          	li	a2,1022
  1012a8:	8fed                	and	a5,a5,a1
  1012aa:	81fd                	srli	a1,a1,0x1f
  1012ac:	04e65463          	bge	a2,a4,1012f4 <__fixdfsi+0x60>
  1012b0:	41d00613          	li	a2,1053
  1012b4:	00e65763          	bge	a2,a4,1012c2 <__fixdfsi+0x2e>
  1012b8:	80000537          	lui	a0,0x80000
  1012bc:	157d                	addi	a0,a0,-1 # 7fffffff <fromhost+0x7fe2ffef>
  1012be:	952e                	add	a0,a0,a1
  1012c0:	8082                	ret
  1012c2:	8fd5                	or	a5,a5,a3
  1012c4:	43300693          	li	a3,1075
  1012c8:	8e99                	sub	a3,a3,a4
  1012ca:	467d                	li	a2,31
  1012cc:	00d64d63          	blt	a2,a3,1012e6 <__fixdfsi+0x52>
  1012d0:	bed70713          	addi	a4,a4,-1043
  1012d4:	00e797b3          	sll	a5,a5,a4
  1012d8:	00d55533          	srl	a0,a0,a3
  1012dc:	8d5d                	or	a0,a0,a5
  1012de:	cd81                	beqz	a1,1012f6 <__fixdfsi+0x62>
  1012e0:	40a00533          	neg	a0,a0
  1012e4:	8082                	ret
  1012e6:	41300693          	li	a3,1043
  1012ea:	40e68733          	sub	a4,a3,a4
  1012ee:	00e7d533          	srl	a0,a5,a4
  1012f2:	b7f5                	j	1012de <__fixdfsi+0x4a>
  1012f4:	4501                	li	a0,0
  1012f6:	8082                	ret

001012f8 <__floatsidf>:
  1012f8:	1141                	addi	sp,sp,-16
  1012fa:	c606                	sw	ra,12(sp)
  1012fc:	c422                	sw	s0,8(sp)
  1012fe:	c226                	sw	s1,4(sp)
  101300:	cd39                	beqz	a0,10135e <__floatsidf+0x66>
  101302:	41f55793          	srai	a5,a0,0x1f
  101306:	00a7c433          	xor	s0,a5,a0
  10130a:	8c1d                	sub	s0,s0,a5
  10130c:	01f55493          	srli	s1,a0,0x1f
  101310:	8522                	mv	a0,s0
  101312:	fffff097          	auipc	ra,0xfffff
  101316:	dc4080e7          	jalr	-572(ra) # 1000d6 <__clzsi2>
  10131a:	41e00713          	li	a4,1054
  10131e:	47a9                	li	a5,10
  101320:	8f09                	sub	a4,a4,a0
  101322:	02a7c863          	blt	a5,a0,101352 <__floatsidf+0x5a>
  101326:	47ad                	li	a5,11
  101328:	8f89                	sub	a5,a5,a0
  10132a:	0555                	addi	a0,a0,21
  10132c:	00f457b3          	srl	a5,s0,a5
  101330:	00a41433          	sll	s0,s0,a0
  101334:	8526                	mv	a0,s1
  101336:	07b2                	slli	a5,a5,0xc
  101338:	83b1                	srli	a5,a5,0xc
  10133a:	0752                	slli	a4,a4,0x14
  10133c:	057e                	slli	a0,a0,0x1f
  10133e:	8f5d                	or	a4,a4,a5
  101340:	40b2                	lw	ra,12(sp)
  101342:	00a767b3          	or	a5,a4,a0
  101346:	8522                	mv	a0,s0
  101348:	4422                	lw	s0,8(sp)
  10134a:	4492                	lw	s1,4(sp)
  10134c:	85be                	mv	a1,a5
  10134e:	0141                	addi	sp,sp,16
  101350:	8082                	ret
  101352:	1555                	addi	a0,a0,-11
  101354:	00a417b3          	sll	a5,s0,a0
  101358:	8526                	mv	a0,s1
  10135a:	4401                	li	s0,0
  10135c:	bfe9                	j	101336 <__floatsidf+0x3e>
  10135e:	4701                	li	a4,0
  101360:	4781                	li	a5,0
  101362:	bfe5                	j	10135a <__floatsidf+0x62>

00101364 <__fixdfdi>:
  101364:	00100737          	lui	a4,0x100
  101368:	0145d613          	srli	a2,a1,0x14
  10136c:	fff70793          	addi	a5,a4,-1 # fffff <tohost+0xdfff7>
  101370:	7ff67613          	andi	a2,a2,2047
  101374:	3fe00693          	li	a3,1022
  101378:	8fed                	and	a5,a5,a1
  10137a:	08c6d163          	bge	a3,a2,1013fc <__fixdfdi+0x98>
  10137e:	1141                	addi	sp,sp,-16
  101380:	c422                	sw	s0,8(sp)
  101382:	c606                	sw	ra,12(sp)
  101384:	43d00693          	li	a3,1085
  101388:	01f5d413          	srli	s0,a1,0x1f
  10138c:	00c6dc63          	bge	a3,a2,1013a4 <__fixdfdi+0x40>
  101390:	800005b7          	lui	a1,0x80000
  101394:	15fd                	addi	a1,a1,-1 # 7fffffff <fromhost+0x7fe2ffef>
  101396:	fff40513          	addi	a0,s0,-1
  10139a:	95a2                	add	a1,a1,s0
  10139c:	40b2                	lw	ra,12(sp)
  10139e:	4422                	lw	s0,8(sp)
  1013a0:	0141                	addi	sp,sp,16
  1013a2:	8082                	ret
  1013a4:	00e7e5b3          	or	a1,a5,a4
  1013a8:	43200793          	li	a5,1074
  1013ac:	02c7d163          	bge	a5,a2,1013ce <__fixdfdi+0x6a>
  1013b0:	bcd60613          	addi	a2,a2,-1075 # 7feffbcd <fromhost+0x7fd2fbbd>
  1013b4:	fffff097          	auipc	ra,0xfffff
  1013b8:	cd0080e7          	jalr	-816(ra) # 100084 <__ashldi3>
  1013bc:	d065                	beqz	s0,10139c <__fixdfdi+0x38>
  1013be:	00a037b3          	snez	a5,a0
  1013c2:	40b005b3          	neg	a1,a1
  1013c6:	8d9d                	sub	a1,a1,a5
  1013c8:	40a00533          	neg	a0,a0
  1013cc:	bfc1                	j	10139c <__fixdfdi+0x38>
  1013ce:	43300793          	li	a5,1075
  1013d2:	8f91                	sub	a5,a5,a2
  1013d4:	477d                	li	a4,31
  1013d6:	00f74c63          	blt	a4,a5,1013ee <__fixdfdi+0x8a>
  1013da:	bed60613          	addi	a2,a2,-1043
  1013de:	00c59633          	sll	a2,a1,a2
  1013e2:	00f55533          	srl	a0,a0,a5
  1013e6:	8d51                	or	a0,a0,a2
  1013e8:	00f5d5b3          	srl	a1,a1,a5
  1013ec:	bfc1                	j	1013bc <__fixdfdi+0x58>
  1013ee:	41300513          	li	a0,1043
  1013f2:	8d11                	sub	a0,a0,a2
  1013f4:	00a5d533          	srl	a0,a1,a0
  1013f8:	4581                	li	a1,0
  1013fa:	b7c9                	j	1013bc <__fixdfdi+0x58>
  1013fc:	4501                	li	a0,0
  1013fe:	4581                	li	a1,0
  101400:	8082                	ret

00101402 <__floatdidf>:
  101402:	1101                	addi	sp,sp,-32
  101404:	ce06                	sw	ra,28(sp)
  101406:	cc22                	sw	s0,24(sp)
  101408:	ca26                	sw	s1,20(sp)
  10140a:	c84a                	sw	s2,16(sp)
  10140c:	c64e                	sw	s3,12(sp)
  10140e:	c452                	sw	s4,8(sp)
  101410:	c256                	sw	s5,4(sp)
  101412:	c05a                	sw	s6,0(sp)
  101414:	00b567b3          	or	a5,a0,a1
  101418:	14078e63          	beqz	a5,101574 <__floatdidf+0x172>
  10141c:	842a                	mv	s0,a0
  10141e:	89ae                	mv	s3,a1
  101420:	01f5d913          	srli	s2,a1,0x1f
  101424:	0005da63          	bgez	a1,101438 <__floatdidf+0x36>
  101428:	00a037b3          	snez	a5,a0
  10142c:	40b009b3          	neg	s3,a1
  101430:	40f989b3          	sub	s3,s3,a5
  101434:	40a00433          	neg	s0,a0
  101438:	84ce                	mv	s1,s3
  10143a:	06098a63          	beqz	s3,1014ae <__floatdidf+0xac>
  10143e:	854e                	mv	a0,s3
  101440:	fffff097          	auipc	ra,0xfffff
  101444:	c96080e7          	jalr	-874(ra) # 1000d6 <__clzsi2>
  101448:	8a2a                	mv	s4,a0
  10144a:	43e00793          	li	a5,1086
  10144e:	41478ab3          	sub	s5,a5,s4
  101452:	43300793          	li	a5,1075
  101456:	0757ca63          	blt	a5,s5,1014ca <__floatdidf+0xc8>
  10145a:	47ad                	li	a5,11
  10145c:	12fa0163          	beq	s4,a5,10157e <__floatdidf+0x17c>
  101460:	02a00793          	li	a5,42
  101464:	0547cd63          	blt	a5,s4,1014be <__floatdidf+0xbc>
  101468:	02b00493          	li	s1,43
  10146c:	ff5a0793          	addi	a5,s4,-11
  101470:	414484b3          	sub	s1,s1,s4
  101474:	009454b3          	srl	s1,s0,s1
  101478:	00f999b3          	sll	s3,s3,a5
  10147c:	0134e4b3          	or	s1,s1,s3
  101480:	00f41433          	sll	s0,s0,a5
  101484:	00c49593          	slli	a1,s1,0xc
  101488:	40f2                	lw	ra,28(sp)
  10148a:	014a9793          	slli	a5,s5,0x14
  10148e:	81b1                	srli	a1,a1,0xc
  101490:	8522                	mv	a0,s0
  101492:	4462                	lw	s0,24(sp)
  101494:	8fcd                	or	a5,a5,a1
  101496:	097e                	slli	s2,s2,0x1f
  101498:	0127e733          	or	a4,a5,s2
  10149c:	44d2                	lw	s1,20(sp)
  10149e:	4942                	lw	s2,16(sp)
  1014a0:	49b2                	lw	s3,12(sp)
  1014a2:	4a22                	lw	s4,8(sp)
  1014a4:	4a92                	lw	s5,4(sp)
  1014a6:	4b02                	lw	s6,0(sp)
  1014a8:	85ba                	mv	a1,a4
  1014aa:	6105                	addi	sp,sp,32
  1014ac:	8082                	ret
  1014ae:	8522                	mv	a0,s0
  1014b0:	fffff097          	auipc	ra,0xfffff
  1014b4:	c26080e7          	jalr	-986(ra) # 1000d6 <__clzsi2>
  1014b8:	02050a13          	addi	s4,a0,32
  1014bc:	b779                	j	10144a <__floatdidf+0x48>
  1014be:	fd5a0593          	addi	a1,s4,-43
  1014c2:	00b414b3          	sll	s1,s0,a1
  1014c6:	4401                	li	s0,0
  1014c8:	bf75                	j	101484 <__floatdidf+0x82>
  1014ca:	43600793          	li	a5,1078
  1014ce:	0357dc63          	bge	a5,s5,101506 <__floatdidf+0x104>
  1014d2:	4621                	li	a2,8
  1014d4:	41460633          	sub	a2,a2,s4
  1014d8:	8522                	mv	a0,s0
  1014da:	85ce                	mv	a1,s3
  1014dc:	00001097          	auipc	ra,0x1
  1014e0:	f8a080e7          	jalr	-118(ra) # 102466 <__lshrdi3>
  1014e4:	8b2a                	mv	s6,a0
  1014e6:	84ae                	mv	s1,a1
  1014e8:	8522                	mv	a0,s0
  1014ea:	85ce                	mv	a1,s3
  1014ec:	038a0613          	addi	a2,s4,56
  1014f0:	fffff097          	auipc	ra,0xfffff
  1014f4:	b94080e7          	jalr	-1132(ra) # 100084 <__ashldi3>
  1014f8:	00b56433          	or	s0,a0,a1
  1014fc:	00803433          	snez	s0,s0
  101500:	01646433          	or	s0,s0,s6
  101504:	89a6                	mv	s3,s1
  101506:	47a1                	li	a5,8
  101508:	0347d063          	bge	a5,s4,101528 <__floatdidf+0x126>
  10150c:	02800713          	li	a4,40
  101510:	ff8a0793          	addi	a5,s4,-8
  101514:	41470733          	sub	a4,a4,s4
  101518:	00e45733          	srl	a4,s0,a4
  10151c:	00f999b3          	sll	s3,s3,a5
  101520:	013769b3          	or	s3,a4,s3
  101524:	00f41433          	sll	s0,s0,a5
  101528:	ff8005b7          	lui	a1,0xff800
  10152c:	15fd                	addi	a1,a1,-1 # ff7fffff <fromhost+0xff62ffef>
  10152e:	00747793          	andi	a5,s0,7
  101532:	00b9f5b3          	and	a1,s3,a1
  101536:	cf81                	beqz	a5,10154e <__floatdidf+0x14c>
  101538:	00f47793          	andi	a5,s0,15
  10153c:	4711                	li	a4,4
  10153e:	00e78863          	beq	a5,a4,10154e <__floatdidf+0x14c>
  101542:	00440793          	addi	a5,s0,4
  101546:	0087b733          	sltu	a4,a5,s0
  10154a:	95ba                	add	a1,a1,a4
  10154c:	843e                	mv	s0,a5
  10154e:	00859793          	slli	a5,a1,0x8
  101552:	0007da63          	bgez	a5,101566 <__floatdidf+0x164>
  101556:	ff8007b7          	lui	a5,0xff800
  10155a:	17fd                	addi	a5,a5,-1 # ff7fffff <fromhost+0xff62ffef>
  10155c:	8dfd                	and	a1,a1,a5
  10155e:	43f00793          	li	a5,1087
  101562:	41478ab3          	sub	s5,a5,s4
  101566:	800d                	srli	s0,s0,0x3
  101568:	01d59793          	slli	a5,a1,0x1d
  10156c:	8c5d                	or	s0,s0,a5
  10156e:	0035d493          	srli	s1,a1,0x3
  101572:	bf09                	j	101484 <__floatdidf+0x82>
  101574:	4481                	li	s1,0
  101576:	4401                	li	s0,0
  101578:	4a81                	li	s5,0
  10157a:	4901                	li	s2,0
  10157c:	b721                	j	101484 <__floatdidf+0x82>
  10157e:	43300a93          	li	s5,1075
  101582:	b709                	j	101484 <__floatdidf+0x82>

00101584 <__addsf3>:
  101584:	008006b7          	lui	a3,0x800
  101588:	16fd                	addi	a3,a3,-1 # 7fffff <fromhost+0x62ffef>
  10158a:	1141                	addi	sp,sp,-16
  10158c:	00a6f633          	and	a2,a3,a0
  101590:	01755713          	srli	a4,a0,0x17
  101594:	c422                	sw	s0,8(sp)
  101596:	01f55413          	srli	s0,a0,0x1f
  10159a:	00361513          	slli	a0,a2,0x3
  10159e:	0175d613          	srli	a2,a1,0x17
  1015a2:	8eed                	and	a3,a3,a1
  1015a4:	c04a                	sw	s2,0(sp)
  1015a6:	0ff67613          	zext.b	a2,a2
  1015aa:	0ff77913          	zext.b	s2,a4
  1015ae:	c606                	sw	ra,12(sp)
  1015b0:	c226                	sw	s1,4(sp)
  1015b2:	81fd                	srli	a1,a1,0x1f
  1015b4:	00369793          	slli	a5,a3,0x3
  1015b8:	40c906b3          	sub	a3,s2,a2
  1015bc:	12b41063          	bne	s0,a1,1016dc <__addsf3+0x158>
  1015c0:	06d05a63          	blez	a3,101634 <__addsf3+0xb0>
  1015c4:	ee11                	bnez	a2,1015e0 <__addsf3+0x5c>
  1015c6:	cb99                	beqz	a5,1015dc <__addsf3+0x58>
  1015c8:	fff90693          	addi	a3,s2,-1
  1015cc:	e681                	bnez	a3,1015d4 <__addsf3+0x50>
  1015ce:	97aa                	add	a5,a5,a0
  1015d0:	4905                	li	s2,1
  1015d2:	a83d                	j	101610 <__addsf3+0x8c>
  1015d4:	0ff00713          	li	a4,255
  1015d8:	00e91b63          	bne	s2,a4,1015ee <__addsf3+0x6a>
  1015dc:	87aa                	mv	a5,a0
  1015de:	a0f9                	j	1016ac <__addsf3+0x128>
  1015e0:	0ff00713          	li	a4,255
  1015e4:	fee90ce3          	beq	s2,a4,1015dc <__addsf3+0x58>
  1015e8:	04000737          	lui	a4,0x4000
  1015ec:	8fd9                	or	a5,a5,a4
  1015ee:	466d                	li	a2,27
  1015f0:	4705                	li	a4,1
  1015f2:	00d64d63          	blt	a2,a3,10160c <__addsf3+0x88>
  1015f6:	02000613          	li	a2,32
  1015fa:	00d7d733          	srl	a4,a5,a3
  1015fe:	40d606b3          	sub	a3,a2,a3
  101602:	00d796b3          	sll	a3,a5,a3
  101606:	00d036b3          	snez	a3,a3
  10160a:	8f55                	or	a4,a4,a3
  10160c:	00a707b3          	add	a5,a4,a0
  101610:	00579713          	slli	a4,a5,0x5
  101614:	08075c63          	bgez	a4,1016ac <__addsf3+0x128>
  101618:	0905                	addi	s2,s2,1
  10161a:	0ff00713          	li	a4,255
  10161e:	22e90363          	beq	s2,a4,101844 <__addsf3+0x2c0>
  101622:	7e000737          	lui	a4,0x7e000
  101626:	0017f693          	andi	a3,a5,1
  10162a:	177d                	addi	a4,a4,-1 # 7dffffff <fromhost+0x7de2ffef>
  10162c:	8385                	srli	a5,a5,0x1
  10162e:	8ff9                	and	a5,a5,a4
  101630:	8fd5                	or	a5,a5,a3
  101632:	a8ad                	j	1016ac <__addsf3+0x128>
  101634:	caa9                	beqz	a3,101686 <__addsf3+0x102>
  101636:	41260733          	sub	a4,a2,s2
  10163a:	00091d63          	bnez	s2,101654 <__addsf3+0xd0>
  10163e:	cd49                	beqz	a0,1016d8 <__addsf3+0x154>
  101640:	fff70693          	addi	a3,a4,-1
  101644:	d6c9                	beqz	a3,1015ce <__addsf3+0x4a>
  101646:	0ff00593          	li	a1,255
  10164a:	00b71d63          	bne	a4,a1,101664 <__addsf3+0xe0>
  10164e:	0ff00913          	li	s2,255
  101652:	a8a9                	j	1016ac <__addsf3+0x128>
  101654:	0ff00693          	li	a3,255
  101658:	fed60be3          	beq	a2,a3,10164e <__addsf3+0xca>
  10165c:	040006b7          	lui	a3,0x4000
  101660:	8d55                	or	a0,a0,a3
  101662:	86ba                	mv	a3,a4
  101664:	45ed                	li	a1,27
  101666:	4705                	li	a4,1
  101668:	00d5cc63          	blt	a1,a3,101680 <__addsf3+0xfc>
  10166c:	02000713          	li	a4,32
  101670:	8f15                	sub	a4,a4,a3
  101672:	00e51733          	sll	a4,a0,a4
  101676:	00d555b3          	srl	a1,a0,a3
  10167a:	00e03733          	snez	a4,a4
  10167e:	8f4d                	or	a4,a4,a1
  101680:	97ba                	add	a5,a5,a4
  101682:	8932                	mv	s2,a2
  101684:	b771                	j	101610 <__addsf3+0x8c>
  101686:	00190713          	addi	a4,s2,1
  10168a:	0fe77693          	andi	a3,a4,254
  10168e:	ee9d                	bnez	a3,1016cc <__addsf3+0x148>
  101690:	02091963          	bnez	s2,1016c2 <__addsf3+0x13e>
  101694:	cd01                	beqz	a0,1016ac <__addsf3+0x128>
  101696:	d3b9                	beqz	a5,1015dc <__addsf3+0x58>
  101698:	97aa                	add	a5,a5,a0
  10169a:	00579713          	slli	a4,a5,0x5
  10169e:	00075763          	bgez	a4,1016ac <__addsf3+0x128>
  1016a2:	fc000737          	lui	a4,0xfc000
  1016a6:	177d                	addi	a4,a4,-1 # fbffffff <fromhost+0xfbe2ffef>
  1016a8:	8ff9                	and	a5,a5,a4
  1016aa:	4905                	li	s2,1
  1016ac:	0077f713          	andi	a4,a5,7
  1016b0:	18070b63          	beqz	a4,101846 <__addsf3+0x2c2>
  1016b4:	00f7f713          	andi	a4,a5,15
  1016b8:	4691                	li	a3,4
  1016ba:	18d70663          	beq	a4,a3,101846 <__addsf3+0x2c2>
  1016be:	0791                	addi	a5,a5,4
  1016c0:	a259                	j	101846 <__addsf3+0x2c2>
  1016c2:	d551                	beqz	a0,10164e <__addsf3+0xca>
  1016c4:	10079b63          	bnez	a5,1017da <__addsf3+0x256>
  1016c8:	87aa                	mv	a5,a0
  1016ca:	b751                	j	10164e <__addsf3+0xca>
  1016cc:	0ff00693          	li	a3,255
  1016d0:	16d70863          	beq	a4,a3,101840 <__addsf3+0x2bc>
  1016d4:	97aa                	add	a5,a5,a0
  1016d6:	8385                	srli	a5,a5,0x1
  1016d8:	893a                	mv	s2,a4
  1016da:	bfc9                	j	1016ac <__addsf3+0x128>
  1016dc:	06d05263          	blez	a3,101740 <__addsf3+0x1bc>
  1016e0:	ea21                	bnez	a2,101730 <__addsf3+0x1ac>
  1016e2:	ee078de3          	beqz	a5,1015dc <__addsf3+0x58>
  1016e6:	fff90693          	addi	a3,s2,-1
  1016ea:	e689                	bnez	a3,1016f4 <__addsf3+0x170>
  1016ec:	40f507b3          	sub	a5,a0,a5
  1016f0:	4905                	li	s2,1
  1016f2:	a035                	j	10171e <__addsf3+0x19a>
  1016f4:	0ff00713          	li	a4,255
  1016f8:	eee902e3          	beq	s2,a4,1015dc <__addsf3+0x58>
  1016fc:	466d                	li	a2,27
  1016fe:	4705                	li	a4,1
  101700:	00d64d63          	blt	a2,a3,10171a <__addsf3+0x196>
  101704:	02000613          	li	a2,32
  101708:	00d7d733          	srl	a4,a5,a3
  10170c:	40d606b3          	sub	a3,a2,a3
  101710:	00d796b3          	sll	a3,a5,a3
  101714:	00d036b3          	snez	a3,a3
  101718:	8f55                	or	a4,a4,a3
  10171a:	40e507b3          	sub	a5,a0,a4
  10171e:	00579713          	slli	a4,a5,0x5
  101722:	f80755e3          	bgez	a4,1016ac <__addsf3+0x128>
  101726:	040004b7          	lui	s1,0x4000
  10172a:	14fd                	addi	s1,s1,-1 # 3ffffff <fromhost+0x3e2ffef>
  10172c:	8cfd                	and	s1,s1,a5
  10172e:	a0e9                	j	1017f8 <__addsf3+0x274>
  101730:	0ff00713          	li	a4,255
  101734:	eae904e3          	beq	s2,a4,1015dc <__addsf3+0x58>
  101738:	04000737          	lui	a4,0x4000
  10173c:	8fd9                	or	a5,a5,a4
  10173e:	bf7d                	j	1016fc <__addsf3+0x178>
  101740:	ceb9                	beqz	a3,10179e <__addsf3+0x21a>
  101742:	41260733          	sub	a4,a2,s2
  101746:	02091163          	bnez	s2,101768 <__addsf3+0x1e4>
  10174a:	14050563          	beqz	a0,101894 <__addsf3+0x310>
  10174e:	fff70693          	addi	a3,a4,-1 # 3ffffff <fromhost+0x3e2ffef>
  101752:	e681                	bnez	a3,10175a <__addsf3+0x1d6>
  101754:	8f89                	sub	a5,a5,a0
  101756:	842e                	mv	s0,a1
  101758:	bf61                	j	1016f0 <__addsf3+0x16c>
  10175a:	0ff00813          	li	a6,255
  10175e:	01071d63          	bne	a4,a6,101778 <__addsf3+0x1f4>
  101762:	0ff00913          	li	s2,255
  101766:	aa05                	j	101896 <__addsf3+0x312>
  101768:	0ff00693          	li	a3,255
  10176c:	fed60be3          	beq	a2,a3,101762 <__addsf3+0x1de>
  101770:	040006b7          	lui	a3,0x4000
  101774:	8d55                	or	a0,a0,a3
  101776:	86ba                	mv	a3,a4
  101778:	486d                	li	a6,27
  10177a:	4705                	li	a4,1
  10177c:	00d84d63          	blt	a6,a3,101796 <__addsf3+0x212>
  101780:	02000713          	li	a4,32
  101784:	8f15                	sub	a4,a4,a3
  101786:	00e51733          	sll	a4,a0,a4
  10178a:	00d55833          	srl	a6,a0,a3
  10178e:	00e03733          	snez	a4,a4
  101792:	00e86733          	or	a4,a6,a4
  101796:	8f99                	sub	a5,a5,a4
  101798:	8932                	mv	s2,a2
  10179a:	842e                	mv	s0,a1
  10179c:	b749                	j	10171e <__addsf3+0x19a>
  10179e:	00190713          	addi	a4,s2,1
  1017a2:	0fe77713          	andi	a4,a4,254
  1017a6:	e321                	bnez	a4,1017e6 <__addsf3+0x262>
  1017a8:	02091463          	bnez	s2,1017d0 <__addsf3+0x24c>
  1017ac:	e501                	bnez	a0,1017b4 <__addsf3+0x230>
  1017ae:	e7e5                	bnez	a5,101896 <__addsf3+0x312>
  1017b0:	4401                	li	s0,0
  1017b2:	a851                	j	101846 <__addsf3+0x2c2>
  1017b4:	e20784e3          	beqz	a5,1015dc <__addsf3+0x58>
  1017b8:	40f50733          	sub	a4,a0,a5
  1017bc:	00571693          	slli	a3,a4,0x5
  1017c0:	8f89                	sub	a5,a5,a0
  1017c2:	0c06ca63          	bltz	a3,101896 <__addsf3+0x312>
  1017c6:	87ba                	mv	a5,a4
  1017c8:	ee0712e3          	bnez	a4,1016ac <__addsf3+0x128>
  1017cc:	4781                	li	a5,0
  1017ce:	b7cd                	j	1017b0 <__addsf3+0x22c>
  1017d0:	ee051ae3          	bnez	a0,1016c4 <__addsf3+0x140>
  1017d4:	842e                	mv	s0,a1
  1017d6:	e6079ce3          	bnez	a5,10164e <__addsf3+0xca>
  1017da:	4401                	li	s0,0
  1017dc:	020007b7          	lui	a5,0x2000
  1017e0:	0ff00913          	li	s2,255
  1017e4:	a08d                	j	101846 <__addsf3+0x2c2>
  1017e6:	40f504b3          	sub	s1,a0,a5
  1017ea:	00549713          	slli	a4,s1,0x5
  1017ee:	02075e63          	bgez	a4,10182a <__addsf3+0x2a6>
  1017f2:	40a784b3          	sub	s1,a5,a0
  1017f6:	842e                	mv	s0,a1
  1017f8:	8526                	mv	a0,s1
  1017fa:	fffff097          	auipc	ra,0xfffff
  1017fe:	8dc080e7          	jalr	-1828(ra) # 1000d6 <__clzsi2>
  101802:	156d                	addi	a0,a0,-5
  101804:	00a494b3          	sll	s1,s1,a0
  101808:	03254563          	blt	a0,s2,101832 <__addsf3+0x2ae>
  10180c:	41250533          	sub	a0,a0,s2
  101810:	0505                	addi	a0,a0,1
  101812:	02000713          	li	a4,32
  101816:	8f09                	sub	a4,a4,a0
  101818:	00a4d7b3          	srl	a5,s1,a0
  10181c:	00e494b3          	sll	s1,s1,a4
  101820:	009034b3          	snez	s1,s1
  101824:	8fc5                	or	a5,a5,s1
  101826:	4901                	li	s2,0
  101828:	b551                	j	1016ac <__addsf3+0x128>
  10182a:	f4f9                	bnez	s1,1017f8 <__addsf3+0x274>
  10182c:	4781                	li	a5,0
  10182e:	4901                	li	s2,0
  101830:	b741                	j	1017b0 <__addsf3+0x22c>
  101832:	fc0007b7          	lui	a5,0xfc000
  101836:	17fd                	addi	a5,a5,-1 # fbffffff <fromhost+0xfbe2ffef>
  101838:	40a90933          	sub	s2,s2,a0
  10183c:	8fe5                	and	a5,a5,s1
  10183e:	b5bd                	j	1016ac <__addsf3+0x128>
  101840:	0ff00913          	li	s2,255
  101844:	4781                	li	a5,0
  101846:	00579713          	slli	a4,a5,0x5
  10184a:	00075b63          	bgez	a4,101860 <__addsf3+0x2dc>
  10184e:	0905                	addi	s2,s2,1
  101850:	0ff00713          	li	a4,255
  101854:	04e90363          	beq	s2,a4,10189a <__addsf3+0x316>
  101858:	fc000737          	lui	a4,0xfc000
  10185c:	177d                	addi	a4,a4,-1 # fbffffff <fromhost+0xfbe2ffef>
  10185e:	8ff9                	and	a5,a5,a4
  101860:	0ff00713          	li	a4,255
  101864:	838d                	srli	a5,a5,0x3
  101866:	00e91663          	bne	s2,a4,101872 <__addsf3+0x2ee>
  10186a:	c781                	beqz	a5,101872 <__addsf3+0x2ee>
  10186c:	004007b7          	lui	a5,0x400
  101870:	4401                	li	s0,0
  101872:	40b2                	lw	ra,12(sp)
  101874:	01791713          	slli	a4,s2,0x17
  101878:	01f41513          	slli	a0,s0,0x1f
  10187c:	7f8006b7          	lui	a3,0x7f800
  101880:	4422                	lw	s0,8(sp)
  101882:	07a6                	slli	a5,a5,0x9
  101884:	8f75                	and	a4,a4,a3
  101886:	83a5                	srli	a5,a5,0x9
  101888:	8fd9                	or	a5,a5,a4
  10188a:	4492                	lw	s1,4(sp)
  10188c:	4902                	lw	s2,0(sp)
  10188e:	8d5d                	or	a0,a0,a5
  101890:	0141                	addi	sp,sp,16
  101892:	8082                	ret
  101894:	893a                	mv	s2,a4
  101896:	842e                	mv	s0,a1
  101898:	bd11                	j	1016ac <__addsf3+0x128>
  10189a:	4781                	li	a5,0
  10189c:	b7d1                	j	101860 <__addsf3+0x2dc>

0010189e <__divsf3>:
  10189e:	1101                	addi	sp,sp,-32
  1018a0:	ca26                	sw	s1,20(sp)
  1018a2:	01755493          	srli	s1,a0,0x17
  1018a6:	c84a                	sw	s2,16(sp)
  1018a8:	c64e                	sw	s3,12(sp)
  1018aa:	c452                	sw	s4,8(sp)
  1018ac:	00951993          	slli	s3,a0,0x9
  1018b0:	ce06                	sw	ra,28(sp)
  1018b2:	cc22                	sw	s0,24(sp)
  1018b4:	c256                	sw	s5,4(sp)
  1018b6:	0ff4f493          	zext.b	s1,s1
  1018ba:	8a2e                	mv	s4,a1
  1018bc:	0099d993          	srli	s3,s3,0x9
  1018c0:	01f55913          	srli	s2,a0,0x1f
  1018c4:	c4a5                	beqz	s1,10192c <__divsf3+0x8e>
  1018c6:	0ff00793          	li	a5,255
  1018ca:	08f48063          	beq	s1,a5,10194a <__divsf3+0xac>
  1018ce:	098e                	slli	s3,s3,0x3
  1018d0:	040007b7          	lui	a5,0x4000
  1018d4:	00f9e9b3          	or	s3,s3,a5
  1018d8:	f8148493          	addi	s1,s1,-127
  1018dc:	4a81                	li	s5,0
  1018de:	017a5793          	srli	a5,s4,0x17
  1018e2:	009a1413          	slli	s0,s4,0x9
  1018e6:	0ff7f793          	zext.b	a5,a5
  1018ea:	8025                	srli	s0,s0,0x9
  1018ec:	01fa5a13          	srli	s4,s4,0x1f
  1018f0:	c7bd                	beqz	a5,10195e <__divsf3+0xc0>
  1018f2:	0ff00713          	li	a4,255
  1018f6:	08e78263          	beq	a5,a4,10197a <__divsf3+0xdc>
  1018fa:	040e                	slli	s0,s0,0x3
  1018fc:	04000737          	lui	a4,0x4000
  101900:	8c59                	or	s0,s0,a4
  101902:	f8178793          	addi	a5,a5,-127 # 3ffff81 <fromhost+0x3e2ff71>
  101906:	4701                	li	a4,0
  101908:	8c9d                	sub	s1,s1,a5
  10190a:	002a9793          	slli	a5,s5,0x2
  10190e:	8fd9                	or	a5,a5,a4
  101910:	17fd                	addi	a5,a5,-1
  101912:	4639                	li	a2,14
  101914:	014946b3          	xor	a3,s2,s4
  101918:	06f66a63          	bltu	a2,a5,10198c <__divsf3+0xee>
  10191c:	00118637          	lui	a2,0x118
  101920:	078a                	slli	a5,a5,0x2
  101922:	7d860613          	addi	a2,a2,2008 # 1187d8 <halF+0x44>
  101926:	97b2                	add	a5,a5,a2
  101928:	439c                	lw	a5,0(a5)
  10192a:	8782                	jr	a5
  10192c:	02098663          	beqz	s3,101958 <__divsf3+0xba>
  101930:	854e                	mv	a0,s3
  101932:	ffffe097          	auipc	ra,0xffffe
  101936:	7a4080e7          	jalr	1956(ra) # 1000d6 <__clzsi2>
  10193a:	ffb50793          	addi	a5,a0,-5
  10193e:	f8a00493          	li	s1,-118
  101942:	00f999b3          	sll	s3,s3,a5
  101946:	8c89                	sub	s1,s1,a0
  101948:	bf51                	j	1018dc <__divsf3+0x3e>
  10194a:	0ff00493          	li	s1,255
  10194e:	4a89                	li	s5,2
  101950:	f80987e3          	beqz	s3,1018de <__divsf3+0x40>
  101954:	4a8d                	li	s5,3
  101956:	b761                	j	1018de <__divsf3+0x40>
  101958:	4481                	li	s1,0
  10195a:	4a85                	li	s5,1
  10195c:	b749                	j	1018de <__divsf3+0x40>
  10195e:	c405                	beqz	s0,101986 <__divsf3+0xe8>
  101960:	8522                	mv	a0,s0
  101962:	ffffe097          	auipc	ra,0xffffe
  101966:	774080e7          	jalr	1908(ra) # 1000d6 <__clzsi2>
  10196a:	ffb50793          	addi	a5,a0,-5
  10196e:	00f41433          	sll	s0,s0,a5
  101972:	f8a00793          	li	a5,-118
  101976:	8f89                	sub	a5,a5,a0
  101978:	b779                	j	101906 <__divsf3+0x68>
  10197a:	0ff00793          	li	a5,255
  10197e:	4709                	li	a4,2
  101980:	d441                	beqz	s0,101908 <__divsf3+0x6a>
  101982:	470d                	li	a4,3
  101984:	b751                	j	101908 <__divsf3+0x6a>
  101986:	4781                	li	a5,0
  101988:	4705                	li	a4,1
  10198a:	bfbd                	j	101908 <__divsf3+0x6a>
  10198c:	00541613          	slli	a2,s0,0x5
  101990:	0c89fd63          	bgeu	s3,s0,101a6a <__divsf3+0x1cc>
  101994:	14fd                	addi	s1,s1,-1
  101996:	4781                	li	a5,0
  101998:	01065593          	srli	a1,a2,0x10
  10199c:	02b9d833          	divu	a6,s3,a1
  1019a0:	6741                	lui	a4,0x10
  1019a2:	1701                	addi	a4,a4,-32 # ffe0 <_min_stack+0xdfe0>
  1019a4:	8f71                	and	a4,a4,a2
  1019a6:	83c1                	srli	a5,a5,0x10
  1019a8:	02b9f9b3          	remu	s3,s3,a1
  1019ac:	8442                	mv	s0,a6
  1019ae:	03070533          	mul	a0,a4,a6
  1019b2:	09c2                	slli	s3,s3,0x10
  1019b4:	0137e7b3          	or	a5,a5,s3
  1019b8:	00a7fc63          	bgeu	a5,a0,1019d0 <__divsf3+0x132>
  1019bc:	97b2                	add	a5,a5,a2
  1019be:	fff80413          	addi	s0,a6,-1
  1019c2:	00c7e763          	bltu	a5,a2,1019d0 <__divsf3+0x132>
  1019c6:	00a7f563          	bgeu	a5,a0,1019d0 <__divsf3+0x132>
  1019ca:	ffe80413          	addi	s0,a6,-2
  1019ce:	97b2                	add	a5,a5,a2
  1019d0:	8f89                	sub	a5,a5,a0
  1019d2:	02b7d533          	divu	a0,a5,a1
  1019d6:	02b7f7b3          	remu	a5,a5,a1
  1019da:	85aa                	mv	a1,a0
  1019dc:	02a70733          	mul	a4,a4,a0
  1019e0:	07c2                	slli	a5,a5,0x10
  1019e2:	02e7f163          	bgeu	a5,a4,101a04 <__divsf3+0x166>
  1019e6:	00c78833          	add	a6,a5,a2
  1019ea:	00f838b3          	sltu	a7,a6,a5
  1019ee:	fff50593          	addi	a1,a0,-1
  1019f2:	87c2                	mv	a5,a6
  1019f4:	00089863          	bnez	a7,101a04 <__divsf3+0x166>
  1019f8:	00e87663          	bgeu	a6,a4,101a04 <__divsf3+0x166>
  1019fc:	ffe50593          	addi	a1,a0,-2
  101a00:	00c807b3          	add	a5,a6,a2
  101a04:	0442                	slli	s0,s0,0x10
  101a06:	8f99                	sub	a5,a5,a4
  101a08:	8c4d                	or	s0,s0,a1
  101a0a:	00f037b3          	snez	a5,a5
  101a0e:	8c5d                	or	s0,s0,a5
  101a10:	07f48713          	addi	a4,s1,127
  101a14:	08e05763          	blez	a4,101aa2 <__divsf3+0x204>
  101a18:	00747793          	andi	a5,s0,7
  101a1c:	c799                	beqz	a5,101a2a <__divsf3+0x18c>
  101a1e:	00f47793          	andi	a5,s0,15
  101a22:	4611                	li	a2,4
  101a24:	00c78363          	beq	a5,a2,101a2a <__divsf3+0x18c>
  101a28:	0411                	addi	s0,s0,4
  101a2a:	00441793          	slli	a5,s0,0x4
  101a2e:	0007d863          	bgez	a5,101a3e <__divsf3+0x1a0>
  101a32:	f80007b7          	lui	a5,0xf8000
  101a36:	17fd                	addi	a5,a5,-1 # f7ffffff <fromhost+0xf7e2ffef>
  101a38:	8c7d                	and	s0,s0,a5
  101a3a:	08048713          	addi	a4,s1,128
  101a3e:	0fe00793          	li	a5,254
  101a42:	04e7c563          	blt	a5,a4,101a8c <__divsf3+0x1ee>
  101a46:	00345793          	srli	a5,s0,0x3
  101a4a:	40f2                	lw	ra,28(sp)
  101a4c:	4462                	lw	s0,24(sp)
  101a4e:	07a6                	slli	a5,a5,0x9
  101a50:	075e                	slli	a4,a4,0x17
  101a52:	83a5                	srli	a5,a5,0x9
  101a54:	8f5d                	or	a4,a4,a5
  101a56:	01f69513          	slli	a0,a3,0x1f
  101a5a:	44d2                	lw	s1,20(sp)
  101a5c:	4942                	lw	s2,16(sp)
  101a5e:	49b2                	lw	s3,12(sp)
  101a60:	4a22                	lw	s4,8(sp)
  101a62:	4a92                	lw	s5,4(sp)
  101a64:	8d59                	or	a0,a0,a4
  101a66:	6105                	addi	sp,sp,32
  101a68:	8082                	ret
  101a6a:	01f99793          	slli	a5,s3,0x1f
  101a6e:	0019d993          	srli	s3,s3,0x1
  101a72:	b71d                	j	101998 <__divsf3+0xfa>
  101a74:	86ca                	mv	a3,s2
  101a76:	844e                	mv	s0,s3
  101a78:	8756                	mv	a4,s5
  101a7a:	478d                	li	a5,3
  101a7c:	06f70263          	beq	a4,a5,101ae0 <__divsf3+0x242>
  101a80:	4785                	li	a5,1
  101a82:	06f70563          	beq	a4,a5,101aec <__divsf3+0x24e>
  101a86:	4789                	li	a5,2
  101a88:	f8f714e3          	bne	a4,a5,101a10 <__divsf3+0x172>
  101a8c:	4781                	li	a5,0
  101a8e:	0ff00713          	li	a4,255
  101a92:	bf65                	j	101a4a <__divsf3+0x1ac>
  101a94:	86d2                	mv	a3,s4
  101a96:	b7d5                	j	101a7a <__divsf3+0x1dc>
  101a98:	00400437          	lui	s0,0x400
  101a9c:	4681                	li	a3,0
  101a9e:	470d                	li	a4,3
  101aa0:	bfe9                	j	101a7a <__divsf3+0x1dc>
  101aa2:	4785                	li	a5,1
  101aa4:	8f99                	sub	a5,a5,a4
  101aa6:	476d                	li	a4,27
  101aa8:	04f74263          	blt	a4,a5,101aec <__divsf3+0x24e>
  101aac:	09e48493          	addi	s1,s1,158
  101ab0:	00f457b3          	srl	a5,s0,a5
  101ab4:	00941433          	sll	s0,s0,s1
  101ab8:	00803433          	snez	s0,s0
  101abc:	8fc1                	or	a5,a5,s0
  101abe:	0077f713          	andi	a4,a5,7
  101ac2:	c719                	beqz	a4,101ad0 <__divsf3+0x232>
  101ac4:	00f7f713          	andi	a4,a5,15
  101ac8:	4611                	li	a2,4
  101aca:	00c70363          	beq	a4,a2,101ad0 <__divsf3+0x232>
  101ace:	0791                	addi	a5,a5,4
  101ad0:	00579713          	slli	a4,a5,0x5
  101ad4:	838d                	srli	a5,a5,0x3
  101ad6:	00075c63          	bgez	a4,101aee <__divsf3+0x250>
  101ada:	4781                	li	a5,0
  101adc:	4705                	li	a4,1
  101ade:	b7b5                	j	101a4a <__divsf3+0x1ac>
  101ae0:	004007b7          	lui	a5,0x400
  101ae4:	0ff00713          	li	a4,255
  101ae8:	4681                	li	a3,0
  101aea:	b785                	j	101a4a <__divsf3+0x1ac>
  101aec:	4781                	li	a5,0
  101aee:	4701                	li	a4,0
  101af0:	bfa9                	j	101a4a <__divsf3+0x1ac>

00101af2 <__eqsf2>:
  101af2:	01755693          	srli	a3,a0,0x17
  101af6:	008007b7          	lui	a5,0x800
  101afa:	17fd                	addi	a5,a5,-1 # 7fffff <fromhost+0x62ffef>
  101afc:	0175d613          	srli	a2,a1,0x17
  101b00:	0ff6f693          	zext.b	a3,a3
  101b04:	0ff00893          	li	a7,255
  101b08:	00a7f833          	and	a6,a5,a0
  101b0c:	01f55713          	srli	a4,a0,0x1f
  101b10:	8fed                	and	a5,a5,a1
  101b12:	0ff67613          	zext.b	a2,a2
  101b16:	81fd                	srli	a1,a1,0x1f
  101b18:	4505                	li	a0,1
  101b1a:	01169863          	bne	a3,a7,101b2a <__eqsf2+0x38>
  101b1e:	00081563          	bnez	a6,101b28 <__eqsf2+0x36>
  101b22:	00d61363          	bne	a2,a3,101b28 <__eqsf2+0x36>
  101b26:	cb81                	beqz	a5,101b36 <__eqsf2+0x44>
  101b28:	8082                	ret
  101b2a:	ff160fe3          	beq	a2,a7,101b28 <__eqsf2+0x36>
  101b2e:	fec69de3          	bne	a3,a2,101b28 <__eqsf2+0x36>
  101b32:	fef81be3          	bne	a6,a5,101b28 <__eqsf2+0x36>
  101b36:	4501                	li	a0,0
  101b38:	feb708e3          	beq	a4,a1,101b28 <__eqsf2+0x36>
  101b3c:	4505                	li	a0,1
  101b3e:	f6ed                	bnez	a3,101b28 <__eqsf2+0x36>
  101b40:	01003533          	snez	a0,a6
  101b44:	8082                	ret

00101b46 <__gesf2>:
  101b46:	008007b7          	lui	a5,0x800
  101b4a:	17fd                	addi	a5,a5,-1 # 7fffff <fromhost+0x62ffef>
  101b4c:	01755693          	srli	a3,a0,0x17
  101b50:	00a7f633          	and	a2,a5,a0
  101b54:	01f55713          	srli	a4,a0,0x1f
  101b58:	0ff6f693          	zext.b	a3,a3
  101b5c:	0175d513          	srli	a0,a1,0x17
  101b60:	0ff00813          	li	a6,255
  101b64:	8fed                	and	a5,a5,a1
  101b66:	0ff57513          	zext.b	a0,a0
  101b6a:	81fd                	srli	a1,a1,0x1f
  101b6c:	01069363          	bne	a3,a6,101b72 <__gesf2+0x2c>
  101b70:	e615                	bnez	a2,101b9c <__gesf2+0x56>
  101b72:	0ff00813          	li	a6,255
  101b76:	01051363          	bne	a0,a6,101b7c <__gesf2+0x36>
  101b7a:	e38d                	bnez	a5,101b9c <__gesf2+0x56>
  101b7c:	ea95                	bnez	a3,101bb0 <__gesf2+0x6a>
  101b7e:	e10d                	bnez	a0,101ba0 <__gesf2+0x5a>
  101b80:	ea0d                	bnez	a2,101bb2 <__gesf2+0x6c>
  101b82:	c795                	beqz	a5,101bae <__gesf2+0x68>
  101b84:	4505                	li	a0,1
  101b86:	e585                	bnez	a1,101bae <__gesf2+0x68>
  101b88:	557d                	li	a0,-1
  101b8a:	8082                	ret
  101b8c:	fea6cce3          	blt	a3,a0,101b84 <__gesf2+0x3e>
  101b90:	00c7ed63          	bltu	a5,a2,101baa <__gesf2+0x64>
  101b94:	4501                	li	a0,0
  101b96:	00f67c63          	bgeu	a2,a5,101bae <__gesf2+0x68>
  101b9a:	b7ed                	j	101b84 <__gesf2+0x3e>
  101b9c:	5579                	li	a0,-2
  101b9e:	8082                	ret
  101ba0:	d275                	beqz	a2,101b84 <__gesf2+0x3e>
  101ba2:	00e59963          	bne	a1,a4,101bb4 <__gesf2+0x6e>
  101ba6:	fed553e3          	bge	a0,a3,101b8c <__gesf2+0x46>
  101baa:	557d                	li	a0,-1
  101bac:	c591                	beqz	a1,101bb8 <__gesf2+0x72>
  101bae:	8082                	ret
  101bb0:	f96d                	bnez	a0,101ba2 <__gesf2+0x5c>
  101bb2:	fbe5                	bnez	a5,101ba2 <__gesf2+0x5c>
  101bb4:	557d                	li	a0,-1
  101bb6:	ff65                	bnez	a4,101bae <__gesf2+0x68>
  101bb8:	4505                	li	a0,1
  101bba:	8082                	ret

00101bbc <__lesf2>:
  101bbc:	008007b7          	lui	a5,0x800
  101bc0:	17fd                	addi	a5,a5,-1 # 7fffff <fromhost+0x62ffef>
  101bc2:	01755693          	srli	a3,a0,0x17
  101bc6:	00a7f633          	and	a2,a5,a0
  101bca:	01f55713          	srli	a4,a0,0x1f
  101bce:	0ff6f693          	zext.b	a3,a3
  101bd2:	0175d513          	srli	a0,a1,0x17
  101bd6:	0ff00813          	li	a6,255
  101bda:	8fed                	and	a5,a5,a1
  101bdc:	0ff57513          	zext.b	a0,a0
  101be0:	81fd                	srli	a1,a1,0x1f
  101be2:	01069363          	bne	a3,a6,101be8 <__lesf2+0x2c>
  101be6:	e615                	bnez	a2,101c12 <__lesf2+0x56>
  101be8:	0ff00813          	li	a6,255
  101bec:	01051363          	bne	a0,a6,101bf2 <__lesf2+0x36>
  101bf0:	e38d                	bnez	a5,101c12 <__lesf2+0x56>
  101bf2:	ea95                	bnez	a3,101c26 <__lesf2+0x6a>
  101bf4:	e10d                	bnez	a0,101c16 <__lesf2+0x5a>
  101bf6:	ea0d                	bnez	a2,101c28 <__lesf2+0x6c>
  101bf8:	c795                	beqz	a5,101c24 <__lesf2+0x68>
  101bfa:	4505                	li	a0,1
  101bfc:	e585                	bnez	a1,101c24 <__lesf2+0x68>
  101bfe:	557d                	li	a0,-1
  101c00:	8082                	ret
  101c02:	fea6cce3          	blt	a3,a0,101bfa <__lesf2+0x3e>
  101c06:	00c7ed63          	bltu	a5,a2,101c20 <__lesf2+0x64>
  101c0a:	4501                	li	a0,0
  101c0c:	00f67c63          	bgeu	a2,a5,101c24 <__lesf2+0x68>
  101c10:	b7ed                	j	101bfa <__lesf2+0x3e>
  101c12:	4509                	li	a0,2
  101c14:	8082                	ret
  101c16:	d275                	beqz	a2,101bfa <__lesf2+0x3e>
  101c18:	00e59963          	bne	a1,a4,101c2a <__lesf2+0x6e>
  101c1c:	fed553e3          	bge	a0,a3,101c02 <__lesf2+0x46>
  101c20:	557d                	li	a0,-1
  101c22:	c591                	beqz	a1,101c2e <__lesf2+0x72>
  101c24:	8082                	ret
  101c26:	f96d                	bnez	a0,101c18 <__lesf2+0x5c>
  101c28:	fbe5                	bnez	a5,101c18 <__lesf2+0x5c>
  101c2a:	557d                	li	a0,-1
  101c2c:	ff65                	bnez	a4,101c24 <__lesf2+0x68>
  101c2e:	4505                	li	a0,1
  101c30:	8082                	ret

00101c32 <__mulsf3>:
  101c32:	1101                	addi	sp,sp,-32
  101c34:	c84a                	sw	s2,16(sp)
  101c36:	01755913          	srli	s2,a0,0x17
  101c3a:	ca26                	sw	s1,20(sp)
  101c3c:	c64e                	sw	s3,12(sp)
  101c3e:	c256                	sw	s5,4(sp)
  101c40:	00951493          	slli	s1,a0,0x9
  101c44:	ce06                	sw	ra,28(sp)
  101c46:	cc22                	sw	s0,24(sp)
  101c48:	c452                	sw	s4,8(sp)
  101c4a:	0ff97913          	zext.b	s2,s2
  101c4e:	8aae                	mv	s5,a1
  101c50:	80a5                	srli	s1,s1,0x9
  101c52:	01f55993          	srli	s3,a0,0x1f
  101c56:	0c090763          	beqz	s2,101d24 <__mulsf3+0xf2>
  101c5a:	0ff00793          	li	a5,255
  101c5e:	0ef90263          	beq	s2,a5,101d42 <__mulsf3+0x110>
  101c62:	048e                	slli	s1,s1,0x3
  101c64:	040007b7          	lui	a5,0x4000
  101c68:	8cdd                	or	s1,s1,a5
  101c6a:	f8190913          	addi	s2,s2,-127
  101c6e:	4a01                	li	s4,0
  101c70:	017ad793          	srli	a5,s5,0x17
  101c74:	009a9413          	slli	s0,s5,0x9
  101c78:	0ff7f793          	zext.b	a5,a5
  101c7c:	8025                	srli	s0,s0,0x9
  101c7e:	01fada93          	srli	s5,s5,0x1f
  101c82:	cbe9                	beqz	a5,101d54 <__mulsf3+0x122>
  101c84:	0ff00713          	li	a4,255
  101c88:	0ee78463          	beq	a5,a4,101d70 <__mulsf3+0x13e>
  101c8c:	040e                	slli	s0,s0,0x3
  101c8e:	04000737          	lui	a4,0x4000
  101c92:	8c59                	or	s0,s0,a4
  101c94:	f8178793          	addi	a5,a5,-127 # 3ffff81 <fromhost+0x3e2ff71>
  101c98:	4701                	li	a4,0
  101c9a:	993e                	add	s2,s2,a5
  101c9c:	002a1793          	slli	a5,s4,0x2
  101ca0:	8fd9                	or	a5,a5,a4
  101ca2:	4629                	li	a2,10
  101ca4:	00190693          	addi	a3,s2,1
  101ca8:	16f64163          	blt	a2,a5,101e0a <__mulsf3+0x1d8>
  101cac:	4609                	li	a2,2
  101cae:	0159c9b3          	xor	s3,s3,s5
  101cb2:	0cf64863          	blt	a2,a5,101d82 <__mulsf3+0x150>
  101cb6:	17fd                	addi	a5,a5,-1
  101cb8:	4605                	li	a2,1
  101cba:	0ef67163          	bgeu	a2,a5,101d9c <__mulsf3+0x16a>
  101cbe:	6841                	lui	a6,0x10
  101cc0:	fff80513          	addi	a0,a6,-1 # ffff <_min_stack+0xdfff>
  101cc4:	0104d613          	srli	a2,s1,0x10
  101cc8:	01045793          	srli	a5,s0,0x10
  101ccc:	8ce9                	and	s1,s1,a0
  101cce:	8c69                	and	s0,s0,a0
  101cd0:	029405b3          	mul	a1,s0,s1
  101cd4:	02860433          	mul	s0,a2,s0
  101cd8:	02f60633          	mul	a2,a2,a5
  101cdc:	029787b3          	mul	a5,a5,s1
  101ce0:	00878733          	add	a4,a5,s0
  101ce4:	0105d793          	srli	a5,a1,0x10
  101ce8:	97ba                	add	a5,a5,a4
  101cea:	0087f363          	bgeu	a5,s0,101cf0 <__mulsf3+0xbe>
  101cee:	9642                	add	a2,a2,a6
  101cf0:	00a7f733          	and	a4,a5,a0
  101cf4:	0742                	slli	a4,a4,0x10
  101cf6:	8de9                	and	a1,a1,a0
  101cf8:	972e                	add	a4,a4,a1
  101cfa:	83c1                	srli	a5,a5,0x10
  101cfc:	00671413          	slli	s0,a4,0x6
  101d00:	97b2                	add	a5,a5,a2
  101d02:	8369                	srli	a4,a4,0x1a
  101d04:	079a                	slli	a5,a5,0x6
  101d06:	00803433          	snez	s0,s0
  101d0a:	8c59                	or	s0,s0,a4
  101d0c:	00479713          	slli	a4,a5,0x4
  101d10:	8c5d                	or	s0,s0,a5
  101d12:	00075763          	bgez	a4,101d20 <__mulsf3+0xee>
  101d16:	00145793          	srli	a5,s0,0x1
  101d1a:	8805                	andi	s0,s0,1
  101d1c:	8c5d                	or	s0,s0,a5
  101d1e:	8936                	mv	s2,a3
  101d20:	86ca                	mv	a3,s2
  101d22:	a071                	j	101dae <__mulsf3+0x17c>
  101d24:	c48d                	beqz	s1,101d4e <__mulsf3+0x11c>
  101d26:	8526                	mv	a0,s1
  101d28:	ffffe097          	auipc	ra,0xffffe
  101d2c:	3ae080e7          	jalr	942(ra) # 1000d6 <__clzsi2>
  101d30:	ffb50793          	addi	a5,a0,-5
  101d34:	f8a00913          	li	s2,-118
  101d38:	00f494b3          	sll	s1,s1,a5
  101d3c:	40a90933          	sub	s2,s2,a0
  101d40:	b73d                	j	101c6e <__mulsf3+0x3c>
  101d42:	0ff00913          	li	s2,255
  101d46:	4a09                	li	s4,2
  101d48:	d485                	beqz	s1,101c70 <__mulsf3+0x3e>
  101d4a:	4a0d                	li	s4,3
  101d4c:	b715                	j	101c70 <__mulsf3+0x3e>
  101d4e:	4901                	li	s2,0
  101d50:	4a05                	li	s4,1
  101d52:	bf39                	j	101c70 <__mulsf3+0x3e>
  101d54:	c405                	beqz	s0,101d7c <__mulsf3+0x14a>
  101d56:	8522                	mv	a0,s0
  101d58:	ffffe097          	auipc	ra,0xffffe
  101d5c:	37e080e7          	jalr	894(ra) # 1000d6 <__clzsi2>
  101d60:	ffb50793          	addi	a5,a0,-5
  101d64:	00f41433          	sll	s0,s0,a5
  101d68:	f8a00793          	li	a5,-118
  101d6c:	8f89                	sub	a5,a5,a0
  101d6e:	b72d                	j	101c98 <__mulsf3+0x66>
  101d70:	0ff00793          	li	a5,255
  101d74:	4709                	li	a4,2
  101d76:	d015                	beqz	s0,101c9a <__mulsf3+0x68>
  101d78:	470d                	li	a4,3
  101d7a:	b705                	j	101c9a <__mulsf3+0x68>
  101d7c:	4781                	li	a5,0
  101d7e:	4705                	li	a4,1
  101d80:	bf29                	j	101c9a <__mulsf3+0x68>
  101d82:	4605                	li	a2,1
  101d84:	00f617b3          	sll	a5,a2,a5
  101d88:	5307f613          	andi	a2,a5,1328
  101d8c:	e649                	bnez	a2,101e16 <__mulsf3+0x1e4>
  101d8e:	2407f613          	andi	a2,a5,576
  101d92:	ea61                	bnez	a2,101e62 <__mulsf3+0x230>
  101d94:	0887f793          	andi	a5,a5,136
  101d98:	d39d                	beqz	a5,101cbe <__mulsf3+0x8c>
  101d9a:	89d6                	mv	s3,s5
  101d9c:	4789                	li	a5,2
  101d9e:	0af70e63          	beq	a4,a5,101e5a <__mulsf3+0x228>
  101da2:	478d                	li	a5,3
  101da4:	0af70f63          	beq	a4,a5,101e62 <__mulsf3+0x230>
  101da8:	4785                	li	a5,1
  101daa:	0cf70263          	beq	a4,a5,101e6e <__mulsf3+0x23c>
  101dae:	07f68713          	addi	a4,a3,127 # 7f80007f <fromhost+0x7f63006f>
  101db2:	06e05563          	blez	a4,101e1c <__mulsf3+0x1ea>
  101db6:	00747793          	andi	a5,s0,7
  101dba:	c799                	beqz	a5,101dc8 <__mulsf3+0x196>
  101dbc:	00f47793          	andi	a5,s0,15
  101dc0:	4611                	li	a2,4
  101dc2:	00c78363          	beq	a5,a2,101dc8 <__mulsf3+0x196>
  101dc6:	0411                	addi	s0,s0,4 # 400004 <fromhost+0x22fff4>
  101dc8:	00441793          	slli	a5,s0,0x4
  101dcc:	0007d863          	bgez	a5,101ddc <__mulsf3+0x1aa>
  101dd0:	f80007b7          	lui	a5,0xf8000
  101dd4:	17fd                	addi	a5,a5,-1 # f7ffffff <fromhost+0xf7e2ffef>
  101dd6:	8c7d                	and	s0,s0,a5
  101dd8:	08068713          	addi	a4,a3,128
  101ddc:	0fe00793          	li	a5,254
  101de0:	06e7cd63          	blt	a5,a4,101e5a <__mulsf3+0x228>
  101de4:	00345793          	srli	a5,s0,0x3
  101de8:	40f2                	lw	ra,28(sp)
  101dea:	4462                	lw	s0,24(sp)
  101dec:	07a6                	slli	a5,a5,0x9
  101dee:	01771513          	slli	a0,a4,0x17
  101df2:	83a5                	srli	a5,a5,0x9
  101df4:	09fe                	slli	s3,s3,0x1f
  101df6:	8d5d                	or	a0,a0,a5
  101df8:	44d2                	lw	s1,20(sp)
  101dfa:	4942                	lw	s2,16(sp)
  101dfc:	4a22                	lw	s4,8(sp)
  101dfe:	4a92                	lw	s5,4(sp)
  101e00:	01356533          	or	a0,a0,s3
  101e04:	49b2                	lw	s3,12(sp)
  101e06:	6105                	addi	sp,sp,32
  101e08:	8082                	ret
  101e0a:	463d                	li	a2,15
  101e0c:	04c78b63          	beq	a5,a2,101e62 <__mulsf3+0x230>
  101e10:	462d                	li	a2,11
  101e12:	f8c784e3          	beq	a5,a2,101d9a <__mulsf3+0x168>
  101e16:	8426                	mv	s0,s1
  101e18:	8752                	mv	a4,s4
  101e1a:	b749                	j	101d9c <__mulsf3+0x16a>
  101e1c:	4785                	li	a5,1
  101e1e:	8f99                	sub	a5,a5,a4
  101e20:	476d                	li	a4,27
  101e22:	04f74663          	blt	a4,a5,101e6e <__mulsf3+0x23c>
  101e26:	09e68693          	addi	a3,a3,158
  101e2a:	00d416b3          	sll	a3,s0,a3
  101e2e:	00f457b3          	srl	a5,s0,a5
  101e32:	00d036b3          	snez	a3,a3
  101e36:	8fd5                	or	a5,a5,a3
  101e38:	0077f713          	andi	a4,a5,7
  101e3c:	c719                	beqz	a4,101e4a <__mulsf3+0x218>
  101e3e:	00f7f713          	andi	a4,a5,15
  101e42:	4691                	li	a3,4
  101e44:	00d70363          	beq	a4,a3,101e4a <__mulsf3+0x218>
  101e48:	0791                	addi	a5,a5,4
  101e4a:	00579713          	slli	a4,a5,0x5
  101e4e:	838d                	srli	a5,a5,0x3
  101e50:	02075063          	bgez	a4,101e70 <__mulsf3+0x23e>
  101e54:	4781                	li	a5,0
  101e56:	4705                	li	a4,1
  101e58:	bf41                	j	101de8 <__mulsf3+0x1b6>
  101e5a:	4781                	li	a5,0
  101e5c:	0ff00713          	li	a4,255
  101e60:	b761                	j	101de8 <__mulsf3+0x1b6>
  101e62:	004007b7          	lui	a5,0x400
  101e66:	0ff00713          	li	a4,255
  101e6a:	4981                	li	s3,0
  101e6c:	bfb5                	j	101de8 <__mulsf3+0x1b6>
  101e6e:	4781                	li	a5,0
  101e70:	4701                	li	a4,0
  101e72:	bf9d                	j	101de8 <__mulsf3+0x1b6>

00101e74 <__subsf3>:
  101e74:	008006b7          	lui	a3,0x800
  101e78:	16fd                	addi	a3,a3,-1 # 7fffff <fromhost+0x62ffef>
  101e7a:	1141                	addi	sp,sp,-16
  101e7c:	00a6f633          	and	a2,a3,a0
  101e80:	01755713          	srli	a4,a0,0x17
  101e84:	c422                	sw	s0,8(sp)
  101e86:	01f55413          	srli	s0,a0,0x1f
  101e8a:	00361513          	slli	a0,a2,0x3
  101e8e:	0175d613          	srli	a2,a1,0x17
  101e92:	8eed                	and	a3,a3,a1
  101e94:	c04a                	sw	s2,0(sp)
  101e96:	c606                	sw	ra,12(sp)
  101e98:	0ff77913          	zext.b	s2,a4
  101e9c:	c226                	sw	s1,4(sp)
  101e9e:	0ff67613          	zext.b	a2,a2
  101ea2:	0ff00713          	li	a4,255
  101ea6:	81fd                	srli	a1,a1,0x1f
  101ea8:	00369793          	slli	a5,a3,0x3
  101eac:	00e61363          	bne	a2,a4,101eb2 <__subsf3+0x3e>
  101eb0:	e399                	bnez	a5,101eb6 <__subsf3+0x42>
  101eb2:	0015c593          	xori	a1,a1,1
  101eb6:	40c906b3          	sub	a3,s2,a2
  101eba:	12859063          	bne	a1,s0,101fda <__subsf3+0x166>
  101ebe:	06d05a63          	blez	a3,101f32 <__subsf3+0xbe>
  101ec2:	ee11                	bnez	a2,101ede <__subsf3+0x6a>
  101ec4:	cb99                	beqz	a5,101eda <__subsf3+0x66>
  101ec6:	fff90693          	addi	a3,s2,-1
  101eca:	e681                	bnez	a3,101ed2 <__subsf3+0x5e>
  101ecc:	97aa                	add	a5,a5,a0
  101ece:	4905                	li	s2,1
  101ed0:	a83d                	j	101f0e <__subsf3+0x9a>
  101ed2:	0ff00713          	li	a4,255
  101ed6:	00e91b63          	bne	s2,a4,101eec <__subsf3+0x78>
  101eda:	87aa                	mv	a5,a0
  101edc:	a0f9                	j	101faa <__subsf3+0x136>
  101ede:	0ff00713          	li	a4,255
  101ee2:	fee90ce3          	beq	s2,a4,101eda <__subsf3+0x66>
  101ee6:	04000737          	lui	a4,0x4000
  101eea:	8fd9                	or	a5,a5,a4
  101eec:	466d                	li	a2,27
  101eee:	4705                	li	a4,1
  101ef0:	00d64d63          	blt	a2,a3,101f0a <__subsf3+0x96>
  101ef4:	02000613          	li	a2,32
  101ef8:	00d7d733          	srl	a4,a5,a3
  101efc:	40d606b3          	sub	a3,a2,a3
  101f00:	00d796b3          	sll	a3,a5,a3
  101f04:	00d036b3          	snez	a3,a3
  101f08:	8f55                	or	a4,a4,a3
  101f0a:	00a707b3          	add	a5,a4,a0
  101f0e:	00579713          	slli	a4,a5,0x5
  101f12:	08075c63          	bgez	a4,101faa <__subsf3+0x136>
  101f16:	0905                	addi	s2,s2,1
  101f18:	0ff00713          	li	a4,255
  101f1c:	22e90363          	beq	s2,a4,102142 <__subsf3+0x2ce>
  101f20:	7e000737          	lui	a4,0x7e000
  101f24:	0017f693          	andi	a3,a5,1
  101f28:	177d                	addi	a4,a4,-1 # 7dffffff <fromhost+0x7de2ffef>
  101f2a:	8385                	srli	a5,a5,0x1
  101f2c:	8ff9                	and	a5,a5,a4
  101f2e:	8fd5                	or	a5,a5,a3
  101f30:	a8ad                	j	101faa <__subsf3+0x136>
  101f32:	caa9                	beqz	a3,101f84 <__subsf3+0x110>
  101f34:	41260733          	sub	a4,a2,s2
  101f38:	00091d63          	bnez	s2,101f52 <__subsf3+0xde>
  101f3c:	cd49                	beqz	a0,101fd6 <__subsf3+0x162>
  101f3e:	fff70693          	addi	a3,a4,-1
  101f42:	d6c9                	beqz	a3,101ecc <__subsf3+0x58>
  101f44:	0ff00593          	li	a1,255
  101f48:	00b71d63          	bne	a4,a1,101f62 <__subsf3+0xee>
  101f4c:	0ff00913          	li	s2,255
  101f50:	a8a9                	j	101faa <__subsf3+0x136>
  101f52:	0ff00693          	li	a3,255
  101f56:	fed60be3          	beq	a2,a3,101f4c <__subsf3+0xd8>
  101f5a:	040006b7          	lui	a3,0x4000
  101f5e:	8d55                	or	a0,a0,a3
  101f60:	86ba                	mv	a3,a4
  101f62:	45ed                	li	a1,27
  101f64:	4705                	li	a4,1
  101f66:	00d5cc63          	blt	a1,a3,101f7e <__subsf3+0x10a>
  101f6a:	02000713          	li	a4,32
  101f6e:	8f15                	sub	a4,a4,a3
  101f70:	00e51733          	sll	a4,a0,a4
  101f74:	00d555b3          	srl	a1,a0,a3
  101f78:	00e03733          	snez	a4,a4
  101f7c:	8f4d                	or	a4,a4,a1
  101f7e:	97ba                	add	a5,a5,a4
  101f80:	8932                	mv	s2,a2
  101f82:	b771                	j	101f0e <__subsf3+0x9a>
  101f84:	00190713          	addi	a4,s2,1
  101f88:	0fe77693          	andi	a3,a4,254
  101f8c:	ee9d                	bnez	a3,101fca <__subsf3+0x156>
  101f8e:	02091963          	bnez	s2,101fc0 <__subsf3+0x14c>
  101f92:	cd01                	beqz	a0,101faa <__subsf3+0x136>
  101f94:	d3b9                	beqz	a5,101eda <__subsf3+0x66>
  101f96:	97aa                	add	a5,a5,a0
  101f98:	00579713          	slli	a4,a5,0x5
  101f9c:	00075763          	bgez	a4,101faa <__subsf3+0x136>
  101fa0:	fc000737          	lui	a4,0xfc000
  101fa4:	177d                	addi	a4,a4,-1 # fbffffff <fromhost+0xfbe2ffef>
  101fa6:	8ff9                	and	a5,a5,a4
  101fa8:	4905                	li	s2,1
  101faa:	0077f713          	andi	a4,a5,7
  101fae:	18070b63          	beqz	a4,102144 <__subsf3+0x2d0>
  101fb2:	00f7f713          	andi	a4,a5,15
  101fb6:	4691                	li	a3,4
  101fb8:	18d70663          	beq	a4,a3,102144 <__subsf3+0x2d0>
  101fbc:	0791                	addi	a5,a5,4 # 400004 <fromhost+0x22fff4>
  101fbe:	a259                	j	102144 <__subsf3+0x2d0>
  101fc0:	d551                	beqz	a0,101f4c <__subsf3+0xd8>
  101fc2:	10079b63          	bnez	a5,1020d8 <__subsf3+0x264>
  101fc6:	87aa                	mv	a5,a0
  101fc8:	b751                	j	101f4c <__subsf3+0xd8>
  101fca:	0ff00693          	li	a3,255
  101fce:	16d70863          	beq	a4,a3,10213e <__subsf3+0x2ca>
  101fd2:	97aa                	add	a5,a5,a0
  101fd4:	8385                	srli	a5,a5,0x1
  101fd6:	893a                	mv	s2,a4
  101fd8:	bfc9                	j	101faa <__subsf3+0x136>
  101fda:	06d05263          	blez	a3,10203e <__subsf3+0x1ca>
  101fde:	ea21                	bnez	a2,10202e <__subsf3+0x1ba>
  101fe0:	ee078de3          	beqz	a5,101eda <__subsf3+0x66>
  101fe4:	fff90693          	addi	a3,s2,-1
  101fe8:	e689                	bnez	a3,101ff2 <__subsf3+0x17e>
  101fea:	40f507b3          	sub	a5,a0,a5
  101fee:	4905                	li	s2,1
  101ff0:	a035                	j	10201c <__subsf3+0x1a8>
  101ff2:	0ff00713          	li	a4,255
  101ff6:	eee902e3          	beq	s2,a4,101eda <__subsf3+0x66>
  101ffa:	466d                	li	a2,27
  101ffc:	4705                	li	a4,1
  101ffe:	00d64d63          	blt	a2,a3,102018 <__subsf3+0x1a4>
  102002:	02000613          	li	a2,32
  102006:	00d7d733          	srl	a4,a5,a3
  10200a:	40d606b3          	sub	a3,a2,a3
  10200e:	00d796b3          	sll	a3,a5,a3
  102012:	00d036b3          	snez	a3,a3
  102016:	8f55                	or	a4,a4,a3
  102018:	40e507b3          	sub	a5,a0,a4
  10201c:	00579713          	slli	a4,a5,0x5
  102020:	f80755e3          	bgez	a4,101faa <__subsf3+0x136>
  102024:	040004b7          	lui	s1,0x4000
  102028:	14fd                	addi	s1,s1,-1 # 3ffffff <fromhost+0x3e2ffef>
  10202a:	8cfd                	and	s1,s1,a5
  10202c:	a0e9                	j	1020f6 <__subsf3+0x282>
  10202e:	0ff00713          	li	a4,255
  102032:	eae904e3          	beq	s2,a4,101eda <__subsf3+0x66>
  102036:	04000737          	lui	a4,0x4000
  10203a:	8fd9                	or	a5,a5,a4
  10203c:	bf7d                	j	101ffa <__subsf3+0x186>
  10203e:	ceb9                	beqz	a3,10209c <__subsf3+0x228>
  102040:	41260733          	sub	a4,a2,s2
  102044:	02091163          	bnez	s2,102066 <__subsf3+0x1f2>
  102048:	14050563          	beqz	a0,102192 <__subsf3+0x31e>
  10204c:	fff70693          	addi	a3,a4,-1 # 3ffffff <fromhost+0x3e2ffef>
  102050:	e681                	bnez	a3,102058 <__subsf3+0x1e4>
  102052:	8f89                	sub	a5,a5,a0
  102054:	842e                	mv	s0,a1
  102056:	bf61                	j	101fee <__subsf3+0x17a>
  102058:	0ff00813          	li	a6,255
  10205c:	01071d63          	bne	a4,a6,102076 <__subsf3+0x202>
  102060:	0ff00913          	li	s2,255
  102064:	aa05                	j	102194 <__subsf3+0x320>
  102066:	0ff00693          	li	a3,255
  10206a:	fed60be3          	beq	a2,a3,102060 <__subsf3+0x1ec>
  10206e:	040006b7          	lui	a3,0x4000
  102072:	8d55                	or	a0,a0,a3
  102074:	86ba                	mv	a3,a4
  102076:	486d                	li	a6,27
  102078:	4705                	li	a4,1
  10207a:	00d84d63          	blt	a6,a3,102094 <__subsf3+0x220>
  10207e:	02000713          	li	a4,32
  102082:	8f15                	sub	a4,a4,a3
  102084:	00e51733          	sll	a4,a0,a4
  102088:	00d55833          	srl	a6,a0,a3
  10208c:	00e03733          	snez	a4,a4
  102090:	00e86733          	or	a4,a6,a4
  102094:	8f99                	sub	a5,a5,a4
  102096:	8932                	mv	s2,a2
  102098:	842e                	mv	s0,a1
  10209a:	b749                	j	10201c <__subsf3+0x1a8>
  10209c:	00190713          	addi	a4,s2,1
  1020a0:	0fe77713          	andi	a4,a4,254
  1020a4:	e321                	bnez	a4,1020e4 <__subsf3+0x270>
  1020a6:	02091463          	bnez	s2,1020ce <__subsf3+0x25a>
  1020aa:	e501                	bnez	a0,1020b2 <__subsf3+0x23e>
  1020ac:	e7e5                	bnez	a5,102194 <__subsf3+0x320>
  1020ae:	4401                	li	s0,0
  1020b0:	a851                	j	102144 <__subsf3+0x2d0>
  1020b2:	e20784e3          	beqz	a5,101eda <__subsf3+0x66>
  1020b6:	40f50733          	sub	a4,a0,a5
  1020ba:	00571693          	slli	a3,a4,0x5
  1020be:	8f89                	sub	a5,a5,a0
  1020c0:	0c06ca63          	bltz	a3,102194 <__subsf3+0x320>
  1020c4:	87ba                	mv	a5,a4
  1020c6:	ee0712e3          	bnez	a4,101faa <__subsf3+0x136>
  1020ca:	4781                	li	a5,0
  1020cc:	b7cd                	j	1020ae <__subsf3+0x23a>
  1020ce:	ee051ae3          	bnez	a0,101fc2 <__subsf3+0x14e>
  1020d2:	842e                	mv	s0,a1
  1020d4:	e6079ce3          	bnez	a5,101f4c <__subsf3+0xd8>
  1020d8:	4401                	li	s0,0
  1020da:	020007b7          	lui	a5,0x2000
  1020de:	0ff00913          	li	s2,255
  1020e2:	a08d                	j	102144 <__subsf3+0x2d0>
  1020e4:	40f504b3          	sub	s1,a0,a5
  1020e8:	00549713          	slli	a4,s1,0x5
  1020ec:	02075e63          	bgez	a4,102128 <__subsf3+0x2b4>
  1020f0:	40a784b3          	sub	s1,a5,a0
  1020f4:	842e                	mv	s0,a1
  1020f6:	8526                	mv	a0,s1
  1020f8:	ffffe097          	auipc	ra,0xffffe
  1020fc:	fde080e7          	jalr	-34(ra) # 1000d6 <__clzsi2>
  102100:	156d                	addi	a0,a0,-5
  102102:	00a494b3          	sll	s1,s1,a0
  102106:	03254563          	blt	a0,s2,102130 <__subsf3+0x2bc>
  10210a:	41250533          	sub	a0,a0,s2
  10210e:	0505                	addi	a0,a0,1
  102110:	02000713          	li	a4,32
  102114:	8f09                	sub	a4,a4,a0
  102116:	00a4d7b3          	srl	a5,s1,a0
  10211a:	00e494b3          	sll	s1,s1,a4
  10211e:	009034b3          	snez	s1,s1
  102122:	8fc5                	or	a5,a5,s1
  102124:	4901                	li	s2,0
  102126:	b551                	j	101faa <__subsf3+0x136>
  102128:	f4f9                	bnez	s1,1020f6 <__subsf3+0x282>
  10212a:	4781                	li	a5,0
  10212c:	4901                	li	s2,0
  10212e:	b741                	j	1020ae <__subsf3+0x23a>
  102130:	fc0007b7          	lui	a5,0xfc000
  102134:	17fd                	addi	a5,a5,-1 # fbffffff <fromhost+0xfbe2ffef>
  102136:	40a90933          	sub	s2,s2,a0
  10213a:	8fe5                	and	a5,a5,s1
  10213c:	b5bd                	j	101faa <__subsf3+0x136>
  10213e:	0ff00913          	li	s2,255
  102142:	4781                	li	a5,0
  102144:	00579713          	slli	a4,a5,0x5
  102148:	00075b63          	bgez	a4,10215e <__subsf3+0x2ea>
  10214c:	0905                	addi	s2,s2,1
  10214e:	0ff00713          	li	a4,255
  102152:	04e90363          	beq	s2,a4,102198 <__subsf3+0x324>
  102156:	fc000737          	lui	a4,0xfc000
  10215a:	177d                	addi	a4,a4,-1 # fbffffff <fromhost+0xfbe2ffef>
  10215c:	8ff9                	and	a5,a5,a4
  10215e:	0ff00713          	li	a4,255
  102162:	838d                	srli	a5,a5,0x3
  102164:	00e91663          	bne	s2,a4,102170 <__subsf3+0x2fc>
  102168:	c781                	beqz	a5,102170 <__subsf3+0x2fc>
  10216a:	004007b7          	lui	a5,0x400
  10216e:	4401                	li	s0,0
  102170:	40b2                	lw	ra,12(sp)
  102172:	01791713          	slli	a4,s2,0x17
  102176:	01f41513          	slli	a0,s0,0x1f
  10217a:	7f8006b7          	lui	a3,0x7f800
  10217e:	4422                	lw	s0,8(sp)
  102180:	07a6                	slli	a5,a5,0x9
  102182:	8f75                	and	a4,a4,a3
  102184:	83a5                	srli	a5,a5,0x9
  102186:	8fd9                	or	a5,a5,a4
  102188:	4492                	lw	s1,4(sp)
  10218a:	4902                	lw	s2,0(sp)
  10218c:	8d5d                	or	a0,a0,a5
  10218e:	0141                	addi	sp,sp,16
  102190:	8082                	ret
  102192:	893a                	mv	s2,a4
  102194:	842e                	mv	s0,a1
  102196:	bd11                	j	101faa <__subsf3+0x136>
  102198:	4781                	li	a5,0
  10219a:	b7d1                	j	10215e <__subsf3+0x2ea>

0010219c <__fixsfsi>:
  10219c:	00800637          	lui	a2,0x800
  1021a0:	01755713          	srli	a4,a0,0x17
  1021a4:	fff60793          	addi	a5,a2,-1 # 7fffff <fromhost+0x62ffef>
  1021a8:	0ff77713          	zext.b	a4,a4
  1021ac:	07e00593          	li	a1,126
  1021b0:	8fe9                	and	a5,a5,a0
  1021b2:	01f55693          	srli	a3,a0,0x1f
  1021b6:	02e5df63          	bge	a1,a4,1021f4 <__fixsfsi+0x58>
  1021ba:	09d00593          	li	a1,157
  1021be:	00e5d763          	bge	a1,a4,1021cc <__fixsfsi+0x30>
  1021c2:	80000537          	lui	a0,0x80000
  1021c6:	157d                	addi	a0,a0,-1 # 7fffffff <fromhost+0x7fe2ffef>
  1021c8:	9536                	add	a0,a0,a3
  1021ca:	8082                	ret
  1021cc:	00c7e533          	or	a0,a5,a2
  1021d0:	09500793          	li	a5,149
  1021d4:	00e7da63          	bge	a5,a4,1021e8 <__fixsfsi+0x4c>
  1021d8:	f6a70713          	addi	a4,a4,-150
  1021dc:	00e51533          	sll	a0,a0,a4
  1021e0:	ca99                	beqz	a3,1021f6 <__fixsfsi+0x5a>
  1021e2:	40a00533          	neg	a0,a0
  1021e6:	8082                	ret
  1021e8:	09600793          	li	a5,150
  1021ec:	8f99                	sub	a5,a5,a4
  1021ee:	00f55533          	srl	a0,a0,a5
  1021f2:	b7fd                	j	1021e0 <__fixsfsi+0x44>
  1021f4:	4501                	li	a0,0
  1021f6:	8082                	ret

001021f8 <__floatsisf>:
  1021f8:	1141                	addi	sp,sp,-16
  1021fa:	c606                	sw	ra,12(sp)
  1021fc:	c422                	sw	s0,8(sp)
  1021fe:	c226                	sw	s1,4(sp)
  102200:	87aa                	mv	a5,a0
  102202:	c15d                	beqz	a0,1022a8 <__floatsisf+0xb0>
  102204:	41f55713          	srai	a4,a0,0x1f
  102208:	00a74433          	xor	s0,a4,a0
  10220c:	8c19                	sub	s0,s0,a4
  10220e:	01f55493          	srli	s1,a0,0x1f
  102212:	8522                	mv	a0,s0
  102214:	ffffe097          	auipc	ra,0xffffe
  102218:	ec2080e7          	jalr	-318(ra) # 1000d6 <__clzsi2>
  10221c:	09e00793          	li	a5,158
  102220:	8f89                	sub	a5,a5,a0
  102222:	09600713          	li	a4,150
  102226:	02f74463          	blt	a4,a5,10224e <__floatsisf+0x56>
  10222a:	4721                	li	a4,8
  10222c:	08e50163          	beq	a0,a4,1022ae <__floatsisf+0xb6>
  102230:	1561                	addi	a0,a0,-8
  102232:	00a41433          	sll	s0,s0,a0
  102236:	0426                	slli	s0,s0,0x9
  102238:	8025                	srli	s0,s0,0x9
  10223a:	07de                	slli	a5,a5,0x17
  10223c:	40b2                	lw	ra,12(sp)
  10223e:	8fc1                	or	a5,a5,s0
  102240:	4422                	lw	s0,8(sp)
  102242:	01f49513          	slli	a0,s1,0x1f
  102246:	8d5d                	or	a0,a0,a5
  102248:	4492                	lw	s1,4(sp)
  10224a:	0141                	addi	sp,sp,16
  10224c:	8082                	ret
  10224e:	09900713          	li	a4,153
  102252:	04f75663          	bge	a4,a5,10229e <__floatsisf+0xa6>
  102256:	4715                	li	a4,5
  102258:	8f09                	sub	a4,a4,a0
  10225a:	01b50693          	addi	a3,a0,27
  10225e:	00e45733          	srl	a4,s0,a4
  102262:	00d41433          	sll	s0,s0,a3
  102266:	00803433          	snez	s0,s0
  10226a:	8f41                	or	a4,a4,s0
  10226c:	fc000437          	lui	s0,0xfc000
  102270:	147d                	addi	s0,s0,-1 # fbffffff <fromhost+0xfbe2ffef>
  102272:	00777693          	andi	a3,a4,7
  102276:	8c79                	and	s0,s0,a4
  102278:	c691                	beqz	a3,102284 <__floatsisf+0x8c>
  10227a:	8b3d                	andi	a4,a4,15
  10227c:	4691                	li	a3,4
  10227e:	00d70363          	beq	a4,a3,102284 <__floatsisf+0x8c>
  102282:	0411                	addi	s0,s0,4
  102284:	00541713          	slli	a4,s0,0x5
  102288:	00075963          	bgez	a4,10229a <__floatsisf+0xa2>
  10228c:	fc0007b7          	lui	a5,0xfc000
  102290:	17fd                	addi	a5,a5,-1 # fbffffff <fromhost+0xfbe2ffef>
  102292:	8c7d                	and	s0,s0,a5
  102294:	09f00793          	li	a5,159
  102298:	8f89                	sub	a5,a5,a0
  10229a:	800d                	srli	s0,s0,0x3
  10229c:	bf69                	j	102236 <__floatsisf+0x3e>
  10229e:	ffb50713          	addi	a4,a0,-5
  1022a2:	00e41733          	sll	a4,s0,a4
  1022a6:	b7d9                	j	10226c <__floatsisf+0x74>
  1022a8:	4481                	li	s1,0
  1022aa:	4401                	li	s0,0
  1022ac:	b769                	j	102236 <__floatsisf+0x3e>
  1022ae:	09600793          	li	a5,150
  1022b2:	b751                	j	102236 <__floatsisf+0x3e>

001022b4 <__extendsfdf2>:
  1022b4:	01755713          	srli	a4,a0,0x17
  1022b8:	0ff77713          	zext.b	a4,a4
  1022bc:	1141                	addi	sp,sp,-16
  1022be:	00170793          	addi	a5,a4,1
  1022c2:	c422                	sw	s0,8(sp)
  1022c4:	c226                	sw	s1,4(sp)
  1022c6:	00951413          	slli	s0,a0,0x9
  1022ca:	c606                	sw	ra,12(sp)
  1022cc:	0fe7f793          	andi	a5,a5,254
  1022d0:	8025                	srli	s0,s0,0x9
  1022d2:	01f55493          	srli	s1,a0,0x1f
  1022d6:	c78d                	beqz	a5,102300 <__extendsfdf2+0x4c>
  1022d8:	00345793          	srli	a5,s0,0x3
  1022dc:	38070713          	addi	a4,a4,896
  1022e0:	0476                	slli	s0,s0,0x1d
  1022e2:	07b2                	slli	a5,a5,0xc
  1022e4:	83b1                	srli	a5,a5,0xc
  1022e6:	0752                	slli	a4,a4,0x14
  1022e8:	01f49513          	slli	a0,s1,0x1f
  1022ec:	8f5d                	or	a4,a4,a5
  1022ee:	40b2                	lw	ra,12(sp)
  1022f0:	00a767b3          	or	a5,a4,a0
  1022f4:	8522                	mv	a0,s0
  1022f6:	4422                	lw	s0,8(sp)
  1022f8:	4492                	lw	s1,4(sp)
  1022fa:	85be                	mv	a1,a5
  1022fc:	0141                	addi	sp,sp,16
  1022fe:	8082                	ret
  102300:	ef0d                	bnez	a4,10233a <__extendsfdf2+0x86>
  102302:	4781                	li	a5,0
  102304:	dc79                	beqz	s0,1022e2 <__extendsfdf2+0x2e>
  102306:	8522                	mv	a0,s0
  102308:	ffffe097          	auipc	ra,0xffffe
  10230c:	dce080e7          	jalr	-562(ra) # 1000d6 <__clzsi2>
  102310:	47a9                	li	a5,10
  102312:	00a7ce63          	blt	a5,a0,10232e <__extendsfdf2+0x7a>
  102316:	47ad                	li	a5,11
  102318:	8f89                	sub	a5,a5,a0
  10231a:	01550713          	addi	a4,a0,21
  10231e:	00f457b3          	srl	a5,s0,a5
  102322:	00e41433          	sll	s0,s0,a4
  102326:	38900713          	li	a4,905
  10232a:	8f09                	sub	a4,a4,a0
  10232c:	bf5d                	j	1022e2 <__extendsfdf2+0x2e>
  10232e:	ff550793          	addi	a5,a0,-11
  102332:	00f417b3          	sll	a5,s0,a5
  102336:	4401                	li	s0,0
  102338:	b7fd                	j	102326 <__extendsfdf2+0x72>
  10233a:	4781                	li	a5,0
  10233c:	c419                	beqz	s0,10234a <__extendsfdf2+0x96>
  10233e:	00345793          	srli	a5,s0,0x3
  102342:	00080737          	lui	a4,0x80
  102346:	0476                	slli	s0,s0,0x1d
  102348:	8fd9                	or	a5,a5,a4
  10234a:	7ff00713          	li	a4,2047
  10234e:	bf51                	j	1022e2 <__extendsfdf2+0x2e>

00102350 <__truncdfsf2>:
  102350:	0145d613          	srli	a2,a1,0x14
  102354:	7ff67613          	andi	a2,a2,2047
  102358:	00c59793          	slli	a5,a1,0xc
  10235c:	00160713          	addi	a4,a2,1
  102360:	83a5                	srli	a5,a5,0x9
  102362:	01d55693          	srli	a3,a0,0x1d
  102366:	7fe77713          	andi	a4,a4,2046
  10236a:	8edd                	or	a3,a3,a5
  10236c:	81fd                	srli	a1,a1,0x1f
  10236e:	00351793          	slli	a5,a0,0x3
  102372:	c349                	beqz	a4,1023f4 <__truncdfsf2+0xa4>
  102374:	c8060713          	addi	a4,a2,-896
  102378:	0fe00813          	li	a6,254
  10237c:	08e84863          	blt	a6,a4,10240c <__truncdfsf2+0xbc>
  102380:	06e04263          	bgtz	a4,1023e4 <__truncdfsf2+0x94>
  102384:	5525                	li	a0,-23
  102386:	0ca74563          	blt	a4,a0,102450 <__truncdfsf2+0x100>
  10238a:	00800537          	lui	a0,0x800
  10238e:	8ec9                	or	a3,a3,a0
  102390:	4579                	li	a0,30
  102392:	8d19                	sub	a0,a0,a4
  102394:	487d                	li	a6,31
  102396:	02a84363          	blt	a6,a0,1023bc <__truncdfsf2+0x6c>
  10239a:	c8260613          	addi	a2,a2,-894
  10239e:	00a7d533          	srl	a0,a5,a0
  1023a2:	00c797b3          	sll	a5,a5,a2
  1023a6:	00f037b3          	snez	a5,a5
  1023aa:	00c696b3          	sll	a3,a3,a2
  1023ae:	8fd5                	or	a5,a5,a3
  1023b0:	8fc9                	or	a5,a5,a0
  1023b2:	4701                	li	a4,0
  1023b4:	0077f693          	andi	a3,a5,7
  1023b8:	cea9                	beqz	a3,102412 <__truncdfsf2+0xc2>
  1023ba:	a869                	j	102454 <__truncdfsf2+0x104>
  1023bc:	5879                	li	a6,-2
  1023be:	40e80833          	sub	a6,a6,a4
  1023c2:	02000893          	li	a7,32
  1023c6:	0106d833          	srl	a6,a3,a6
  1023ca:	4701                	li	a4,0
  1023cc:	01150663          	beq	a0,a7,1023d8 <__truncdfsf2+0x88>
  1023d0:	ca260613          	addi	a2,a2,-862
  1023d4:	00c69733          	sll	a4,a3,a2
  1023d8:	8f5d                	or	a4,a4,a5
  1023da:	00e03733          	snez	a4,a4
  1023de:	00e867b3          	or	a5,a6,a4
  1023e2:	bfc1                	j	1023b2 <__truncdfsf2+0x62>
  1023e4:	051a                	slli	a0,a0,0x6
  1023e6:	00a03533          	snez	a0,a0
  1023ea:	068e                	slli	a3,a3,0x3
  1023ec:	83f5                	srli	a5,a5,0x1d
  1023ee:	8ec9                	or	a3,a3,a0
  1023f0:	8fd5                	or	a5,a5,a3
  1023f2:	b7c9                	j	1023b4 <__truncdfsf2+0x64>
  1023f4:	8fd5                	or	a5,a5,a3
  1023f6:	e601                	bnez	a2,1023fe <__truncdfsf2+0xae>
  1023f8:	00f037b3          	snez	a5,a5
  1023fc:	bf5d                	j	1023b2 <__truncdfsf2+0x62>
  1023fe:	0ff00713          	li	a4,255
  102402:	cb81                	beqz	a5,102412 <__truncdfsf2+0xc2>
  102404:	068e                	slli	a3,a3,0x3
  102406:	020007b7          	lui	a5,0x2000
  10240a:	b7dd                	j	1023f0 <__truncdfsf2+0xa0>
  10240c:	4781                	li	a5,0
  10240e:	0ff00713          	li	a4,255
  102412:	00579693          	slli	a3,a5,0x5
  102416:	0006db63          	bgez	a3,10242c <__truncdfsf2+0xdc>
  10241a:	0705                	addi	a4,a4,1 # 80001 <tohost+0x5fff9>
  10241c:	0ff00693          	li	a3,255
  102420:	04d70163          	beq	a4,a3,102462 <__truncdfsf2+0x112>
  102424:	fc0006b7          	lui	a3,0xfc000
  102428:	16fd                	addi	a3,a3,-1 # fbffffff <fromhost+0xfbe2ffef>
  10242a:	8ff5                	and	a5,a5,a3
  10242c:	0ff00693          	li	a3,255
  102430:	838d                	srli	a5,a5,0x3
  102432:	00d71663          	bne	a4,a3,10243e <__truncdfsf2+0xee>
  102436:	c781                	beqz	a5,10243e <__truncdfsf2+0xee>
  102438:	004007b7          	lui	a5,0x400
  10243c:	4581                	li	a1,0
  10243e:	7f8006b7          	lui	a3,0x7f800
  102442:	075e                	slli	a4,a4,0x17
  102444:	8f75                	and	a4,a4,a3
  102446:	8f5d                	or	a4,a4,a5
  102448:	01f59513          	slli	a0,a1,0x1f
  10244c:	8d59                	or	a0,a0,a4
  10244e:	8082                	ret
  102450:	4785                	li	a5,1
  102452:	4701                	li	a4,0
  102454:	00f7f693          	andi	a3,a5,15
  102458:	4611                	li	a2,4
  10245a:	fac68ce3          	beq	a3,a2,102412 <__truncdfsf2+0xc2>
  10245e:	0791                	addi	a5,a5,4 # 400004 <fromhost+0x22fff4>
  102460:	bf4d                	j	102412 <__truncdfsf2+0xc2>
  102462:	4781                	li	a5,0
  102464:	b7e1                	j	10242c <__truncdfsf2+0xdc>

00102466 <__lshrdi3>:
  102466:	ca19                	beqz	a2,10247c <__lshrdi3+0x16>
  102468:	02000793          	li	a5,32
  10246c:	8f91                	sub	a5,a5,a2
  10246e:	00f04863          	bgtz	a5,10247e <__lshrdi3+0x18>
  102472:	1601                	addi	a2,a2,-32
  102474:	00c5d533          	srl	a0,a1,a2
  102478:	4701                	li	a4,0
  10247a:	85ba                	mv	a1,a4
  10247c:	8082                	ret
  10247e:	00c5d733          	srl	a4,a1,a2
  102482:	00c55533          	srl	a0,a0,a2
  102486:	00f595b3          	sll	a1,a1,a5
  10248a:	8d4d                	or	a0,a0,a1
  10248c:	b7fd                	j	10247a <__lshrdi3+0x14>

0010248e <reset_handler>:
  10248e:	00000093          	li	ra,0
  102492:	8106                	mv	sp,ra
  102494:	8186                	mv	gp,ra
  102496:	8206                	mv	tp,ra
  102498:	8286                	mv	t0,ra
  10249a:	8306                	mv	t1,ra
  10249c:	8386                	mv	t2,ra
  10249e:	8406                	mv	s0,ra
  1024a0:	8486                	mv	s1,ra
  1024a2:	8506                	mv	a0,ra
  1024a4:	8586                	mv	a1,ra
  1024a6:	8606                	mv	a2,ra
  1024a8:	8686                	mv	a3,ra
  1024aa:	8706                	mv	a4,ra
  1024ac:	8786                	mv	a5,ra
  1024ae:	8806                	mv	a6,ra
  1024b0:	8886                	mv	a7,ra
  1024b2:	8906                	mv	s2,ra
  1024b4:	8986                	mv	s3,ra
  1024b6:	8a06                	mv	s4,ra
  1024b8:	8a86                	mv	s5,ra
  1024ba:	8b06                	mv	s6,ra
  1024bc:	8b86                	mv	s7,ra
  1024be:	8c06                	mv	s8,ra
  1024c0:	8c86                	mv	s9,ra
  1024c2:	8d06                	mv	s10,ra
  1024c4:	8d86                	mv	s11,ra
  1024c6:	8e06                	mv	t3,ra
  1024c8:	8e86                	mv	t4,ra
  1024ca:	8f06                	mv	t5,ra
  1024cc:	8f86                	mv	t6,ra
  1024ce:	000ce117          	auipc	sp,0xce
  1024d2:	b3210113          	addi	sp,sp,-1230 # 1d0000 <_stack_start>

001024d6 <_start>:
  1024d6:	0001fd17          	auipc	s10,0x1f
  1024da:	d9ad0d13          	addi	s10,s10,-614 # 121270 <_ZGVZ5setupE18static_interpreter>
  1024de:	0002ed97          	auipc	s11,0x2e
  1024e2:	2b2d8d93          	addi	s11,s11,690 # 130790 <_bss_end>
  1024e6:	01bd5763          	bge	s10,s11,1024f4 <main_entry>

001024ea <zero_loop>:
  1024ea:	000d2023          	sw	zero,0(s10)
  1024ee:	0d11                	addi	s10,s10,4
  1024f0:	ffaddde3          	bge	s11,s10,1024ea <zero_loop>

001024f4 <main_entry>:
  1024f4:	4501                	li	a0,0
  1024f6:	4581                	li	a1,0
  1024f8:	732020ef          	jal	104c2a <main>
  1024fc:	000202b7          	lui	t0,0x20
  102500:	02a1                	addi	t0,t0,8 # 20008 <tohost>
  102502:	4305                	li	t1,1
  102504:	0062a023          	sw	t1,0(t0)

00102508 <sleep_loop>:
  102508:	10500073          	wfi
  10250c:	bff5                	j	102508 <sleep_loop>

0010250e <__adddf3>:
  10250e:	00100837          	lui	a6,0x100
  102512:	187d                	addi	a6,a6,-1 # fffff <tohost+0xdfff7>
  102514:	1101                	addi	sp,sp,-32
  102516:	00b878b3          	and	a7,a6,a1
  10251a:	0145d713          	srli	a4,a1,0x14
  10251e:	01d55793          	srli	a5,a0,0x1d
  102522:	00d87833          	and	a6,a6,a3
  102526:	ca26                	sw	s1,20(sp)
  102528:	7ff77493          	andi	s1,a4,2047
  10252c:	00389713          	slli	a4,a7,0x3
  102530:	0146d893          	srli	a7,a3,0x14
  102534:	080e                	slli	a6,a6,0x3
  102536:	c84a                	sw	s2,16(sp)
  102538:	8fd9                	or	a5,a5,a4
  10253a:	7ff8f893          	andi	a7,a7,2047
  10253e:	01d65713          	srli	a4,a2,0x1d
  102542:	ce06                	sw	ra,28(sp)
  102544:	cc22                	sw	s0,24(sp)
  102546:	c64e                	sw	s3,12(sp)
  102548:	01f5d913          	srli	s2,a1,0x1f
  10254c:	82fd                	srli	a3,a3,0x1f
  10254e:	01076733          	or	a4,a4,a6
  102552:	050e                	slli	a0,a0,0x3
  102554:	060e                	slli	a2,a2,0x3
  102556:	41148833          	sub	a6,s1,a7
  10255a:	22d91963          	bne	s2,a3,10278c <__adddf3+0x27e>
  10255e:	0f005563          	blez	a6,102648 <__adddf3+0x13a>
  102562:	02089963          	bnez	a7,102594 <__adddf3+0x86>
  102566:	00c766b3          	or	a3,a4,a2
  10256a:	52068263          	beqz	a3,102a8e <__adddf3+0x580>
  10256e:	fff80593          	addi	a1,a6,-1
  102572:	e991                	bnez	a1,102586 <__adddf3+0x78>
  102574:	962a                	add	a2,a2,a0
  102576:	00a636b3          	sltu	a3,a2,a0
  10257a:	973e                	add	a4,a4,a5
  10257c:	8532                	mv	a0,a2
  10257e:	00d707b3          	add	a5,a4,a3
  102582:	4485                	li	s1,1
  102584:	a8b9                	j	1025e2 <__adddf3+0xd4>
  102586:	7ff00693          	li	a3,2047
  10258a:	00d81d63          	bne	a6,a3,1025a4 <__adddf3+0x96>
  10258e:	7ff00493          	li	s1,2047
  102592:	a24d                	j	102734 <__adddf3+0x226>
  102594:	7ff00693          	li	a3,2047
  102598:	18d48e63          	beq	s1,a3,102734 <__adddf3+0x226>
  10259c:	008006b7          	lui	a3,0x800
  1025a0:	8f55                	or	a4,a4,a3
  1025a2:	85c2                	mv	a1,a6
  1025a4:	03800693          	li	a3,56
  1025a8:	08b6cb63          	blt	a3,a1,10263e <__adddf3+0x130>
  1025ac:	46fd                	li	a3,31
  1025ae:	06b6c163          	blt	a3,a1,102610 <__adddf3+0x102>
  1025b2:	02000813          	li	a6,32
  1025b6:	40b80833          	sub	a6,a6,a1
  1025ba:	010716b3          	sll	a3,a4,a6
  1025be:	00b658b3          	srl	a7,a2,a1
  1025c2:	01061833          	sll	a6,a2,a6
  1025c6:	0116e6b3          	or	a3,a3,a7
  1025ca:	01003833          	snez	a6,a6
  1025ce:	0106e6b3          	or	a3,a3,a6
  1025d2:	00b755b3          	srl	a1,a4,a1
  1025d6:	9536                	add	a0,a0,a3
  1025d8:	95be                	add	a1,a1,a5
  1025da:	00d536b3          	sltu	a3,a0,a3
  1025de:	00d587b3          	add	a5,a1,a3
  1025e2:	00879713          	slli	a4,a5,0x8
  1025e6:	14075763          	bgez	a4,102734 <__adddf3+0x226>
  1025ea:	0485                	addi	s1,s1,1
  1025ec:	7ff00713          	li	a4,2047
  1025f0:	48e48c63          	beq	s1,a4,102a88 <__adddf3+0x57a>
  1025f4:	ff800737          	lui	a4,0xff800
  1025f8:	177d                	addi	a4,a4,-1 # ff7fffff <fromhost+0xff62ffef>
  1025fa:	8f7d                	and	a4,a4,a5
  1025fc:	00155793          	srli	a5,a0,0x1
  102600:	8905                	andi	a0,a0,1
  102602:	8fc9                	or	a5,a5,a0
  102604:	01f71513          	slli	a0,a4,0x1f
  102608:	8d5d                	or	a0,a0,a5
  10260a:	00175793          	srli	a5,a4,0x1
  10260e:	a21d                	j	102734 <__adddf3+0x226>
  102610:	fe058693          	addi	a3,a1,-32
  102614:	02000893          	li	a7,32
  102618:	00d756b3          	srl	a3,a4,a3
  10261c:	4801                	li	a6,0
  10261e:	01158863          	beq	a1,a7,10262e <__adddf3+0x120>
  102622:	04000813          	li	a6,64
  102626:	40b80833          	sub	a6,a6,a1
  10262a:	01071833          	sll	a6,a4,a6
  10262e:	00c86833          	or	a6,a6,a2
  102632:	01003833          	snez	a6,a6
  102636:	0106e6b3          	or	a3,a3,a6
  10263a:	4581                	li	a1,0
  10263c:	bf69                	j	1025d6 <__adddf3+0xc8>
  10263e:	00c766b3          	or	a3,a4,a2
  102642:	00d036b3          	snez	a3,a3
  102646:	bfd5                	j	10263a <__adddf3+0x12c>
  102648:	0a080963          	beqz	a6,1026fa <__adddf3+0x1ec>
  10264c:	409886b3          	sub	a3,a7,s1
  102650:	ec99                	bnez	s1,10266e <__adddf3+0x160>
  102652:	00a7e5b3          	or	a1,a5,a0
  102656:	42058163          	beqz	a1,102a78 <__adddf3+0x56a>
  10265a:	fff68593          	addi	a1,a3,-1 # 7fffff <fromhost+0x62ffef>
  10265e:	d999                	beqz	a1,102574 <__adddf3+0x66>
  102660:	7ff00813          	li	a6,2047
  102664:	01069d63          	bne	a3,a6,10267e <__adddf3+0x170>
  102668:	87ba                	mv	a5,a4
  10266a:	8532                	mv	a0,a2
  10266c:	b70d                	j	10258e <__adddf3+0x80>
  10266e:	7ff00593          	li	a1,2047
  102672:	feb88be3          	beq	a7,a1,102668 <__adddf3+0x15a>
  102676:	008005b7          	lui	a1,0x800
  10267a:	8fcd                	or	a5,a5,a1
  10267c:	85b6                	mv	a1,a3
  10267e:	03800693          	li	a3,56
  102682:	06b6c763          	blt	a3,a1,1026f0 <__adddf3+0x1e2>
  102686:	46fd                	li	a3,31
  102688:	02b6cd63          	blt	a3,a1,1026c2 <__adddf3+0x1b4>
  10268c:	02000813          	li	a6,32
  102690:	40b80833          	sub	a6,a6,a1
  102694:	010796b3          	sll	a3,a5,a6
  102698:	00b55333          	srl	t1,a0,a1
  10269c:	01051833          	sll	a6,a0,a6
  1026a0:	0066e6b3          	or	a3,a3,t1
  1026a4:	01003833          	snez	a6,a6
  1026a8:	0106e6b3          	or	a3,a3,a6
  1026ac:	00b7d5b3          	srl	a1,a5,a1
  1026b0:	9636                	add	a2,a2,a3
  1026b2:	95ba                	add	a1,a1,a4
  1026b4:	00d636b3          	sltu	a3,a2,a3
  1026b8:	8532                	mv	a0,a2
  1026ba:	00d587b3          	add	a5,a1,a3
  1026be:	84c6                	mv	s1,a7
  1026c0:	b70d                	j	1025e2 <__adddf3+0xd4>
  1026c2:	fe058693          	addi	a3,a1,-32 # 7fffe0 <fromhost+0x62ffd0>
  1026c6:	02000313          	li	t1,32
  1026ca:	00d7d6b3          	srl	a3,a5,a3
  1026ce:	4801                	li	a6,0
  1026d0:	00658863          	beq	a1,t1,1026e0 <__adddf3+0x1d2>
  1026d4:	04000813          	li	a6,64
  1026d8:	40b80833          	sub	a6,a6,a1
  1026dc:	01079833          	sll	a6,a5,a6
  1026e0:	00a86833          	or	a6,a6,a0
  1026e4:	01003833          	snez	a6,a6
  1026e8:	0106e6b3          	or	a3,a3,a6
  1026ec:	4581                	li	a1,0
  1026ee:	b7c9                	j	1026b0 <__adddf3+0x1a2>
  1026f0:	00a7e6b3          	or	a3,a5,a0
  1026f4:	00d036b3          	snez	a3,a3
  1026f8:	bfd5                	j	1026ec <__adddf3+0x1de>
  1026fa:	00148693          	addi	a3,s1,1
  1026fe:	7fe6f593          	andi	a1,a3,2046
  102702:	e5a5                	bnez	a1,10276a <__adddf3+0x25c>
  102704:	00a7e6b3          	or	a3,a5,a0
  102708:	e4b1                	bnez	s1,102754 <__adddf3+0x246>
  10270a:	36068a63          	beqz	a3,102a7e <__adddf3+0x570>
  10270e:	00c766b3          	or	a3,a4,a2
  102712:	c28d                	beqz	a3,102734 <__adddf3+0x226>
  102714:	962a                	add	a2,a2,a0
  102716:	00a636b3          	sltu	a3,a2,a0
  10271a:	973e                	add	a4,a4,a5
  10271c:	00d707b3          	add	a5,a4,a3
  102720:	00879713          	slli	a4,a5,0x8
  102724:	8532                	mv	a0,a2
  102726:	00075763          	bgez	a4,102734 <__adddf3+0x226>
  10272a:	ff800737          	lui	a4,0xff800
  10272e:	177d                	addi	a4,a4,-1 # ff7fffff <fromhost+0xff62ffef>
  102730:	8ff9                	and	a5,a5,a4
  102732:	4485                	li	s1,1
  102734:	00757713          	andi	a4,a0,7
  102738:	36070363          	beqz	a4,102a9e <__adddf3+0x590>
  10273c:	00f57713          	andi	a4,a0,15
  102740:	4691                	li	a3,4
  102742:	34d70e63          	beq	a4,a3,102a9e <__adddf3+0x590>
  102746:	00450713          	addi	a4,a0,4 # 800004 <fromhost+0x62fff4>
  10274a:	00a736b3          	sltu	a3,a4,a0
  10274e:	97b6                	add	a5,a5,a3
  102750:	853a                	mv	a0,a4
  102752:	a6b1                	j	102a9e <__adddf3+0x590>
  102754:	da91                	beqz	a3,102668 <__adddf3+0x15a>
  102756:	8e59                	or	a2,a2,a4
  102758:	e2060be3          	beqz	a2,10258e <__adddf3+0x80>
  10275c:	4901                	li	s2,0
  10275e:	004007b7          	lui	a5,0x400
  102762:	4501                	li	a0,0
  102764:	7ff00493          	li	s1,2047
  102768:	ae1d                	j	102a9e <__adddf3+0x590>
  10276a:	7ff00593          	li	a1,2047
  10276e:	30b68b63          	beq	a3,a1,102a84 <__adddf3+0x576>
  102772:	962a                	add	a2,a2,a0
  102774:	00a63533          	sltu	a0,a2,a0
  102778:	973e                	add	a4,a4,a5
  10277a:	972a                	add	a4,a4,a0
  10277c:	01f71513          	slli	a0,a4,0x1f
  102780:	8205                	srli	a2,a2,0x1
  102782:	8d51                	or	a0,a0,a2
  102784:	00175793          	srli	a5,a4,0x1
  102788:	84b6                	mv	s1,a3
  10278a:	b76d                	j	102734 <__adddf3+0x226>
  10278c:	0d005a63          	blez	a6,102860 <__adddf3+0x352>
  102790:	08089463          	bnez	a7,102818 <__adddf3+0x30a>
  102794:	00c766b3          	or	a3,a4,a2
  102798:	2e068b63          	beqz	a3,102a8e <__adddf3+0x580>
  10279c:	fff80693          	addi	a3,a6,-1
  1027a0:	ee81                	bnez	a3,1027b8 <__adddf3+0x2aa>
  1027a2:	40c50633          	sub	a2,a0,a2
  1027a6:	00c536b3          	sltu	a3,a0,a2
  1027aa:	40e78733          	sub	a4,a5,a4
  1027ae:	8532                	mv	a0,a2
  1027b0:	40d707b3          	sub	a5,a4,a3
  1027b4:	4485                	li	s1,1
  1027b6:	a0b9                	j	102804 <__adddf3+0x2f6>
  1027b8:	7ff00593          	li	a1,2047
  1027bc:	dcb809e3          	beq	a6,a1,10258e <__adddf3+0x80>
  1027c0:	03800593          	li	a1,56
  1027c4:	08d5ca63          	blt	a1,a3,102858 <__adddf3+0x34a>
  1027c8:	45fd                	li	a1,31
  1027ca:	06d5c063          	blt	a1,a3,10282a <__adddf3+0x31c>
  1027ce:	02000813          	li	a6,32
  1027d2:	40d80833          	sub	a6,a6,a3
  1027d6:	00d658b3          	srl	a7,a2,a3
  1027da:	010715b3          	sll	a1,a4,a6
  1027de:	01061833          	sll	a6,a2,a6
  1027e2:	0115e5b3          	or	a1,a1,a7
  1027e6:	01003833          	snez	a6,a6
  1027ea:	0105e633          	or	a2,a1,a6
  1027ee:	00d756b3          	srl	a3,a4,a3
  1027f2:	40c50633          	sub	a2,a0,a2
  1027f6:	00c53733          	sltu	a4,a0,a2
  1027fa:	40d786b3          	sub	a3,a5,a3
  1027fe:	8532                	mv	a0,a2
  102800:	40e687b3          	sub	a5,a3,a4
  102804:	00879713          	slli	a4,a5,0x8
  102808:	f20756e3          	bgez	a4,102734 <__adddf3+0x226>
  10280c:	00800437          	lui	s0,0x800
  102810:	147d                	addi	s0,s0,-1 # 7fffff <fromhost+0x62ffef>
  102812:	8c7d                	and	s0,s0,a5
  102814:	89aa                	mv	s3,a0
  102816:	aa45                	j	1029c6 <__adddf3+0x4b8>
  102818:	7ff00693          	li	a3,2047
  10281c:	f0d48ce3          	beq	s1,a3,102734 <__adddf3+0x226>
  102820:	008006b7          	lui	a3,0x800
  102824:	8f55                	or	a4,a4,a3
  102826:	86c2                	mv	a3,a6
  102828:	bf61                	j	1027c0 <__adddf3+0x2b2>
  10282a:	fe068593          	addi	a1,a3,-32 # 7fffe0 <fromhost+0x62ffd0>
  10282e:	02000893          	li	a7,32
  102832:	00b755b3          	srl	a1,a4,a1
  102836:	4801                	li	a6,0
  102838:	01168863          	beq	a3,a7,102848 <__adddf3+0x33a>
  10283c:	04000813          	li	a6,64
  102840:	40d80833          	sub	a6,a6,a3
  102844:	01071833          	sll	a6,a4,a6
  102848:	00c86833          	or	a6,a6,a2
  10284c:	01003833          	snez	a6,a6
  102850:	0105e633          	or	a2,a1,a6
  102854:	4681                	li	a3,0
  102856:	bf71                	j	1027f2 <__adddf3+0x2e4>
  102858:	8e59                	or	a2,a2,a4
  10285a:	00c03633          	snez	a2,a2
  10285e:	bfdd                	j	102854 <__adddf3+0x346>
  102860:	0c080563          	beqz	a6,10292a <__adddf3+0x41c>
  102864:	40988833          	sub	a6,a7,s1
  102868:	e895                	bnez	s1,10289c <__adddf3+0x38e>
  10286a:	00a7e5b3          	or	a1,a5,a0
  10286e:	22058263          	beqz	a1,102a92 <__adddf3+0x584>
  102872:	fff80593          	addi	a1,a6,-1
  102876:	e991                	bnez	a1,10288a <__adddf3+0x37c>
  102878:	40a60533          	sub	a0,a2,a0
  10287c:	8f1d                	sub	a4,a4,a5
  10287e:	00a63633          	sltu	a2,a2,a0
  102882:	40c707b3          	sub	a5,a4,a2
  102886:	8936                	mv	s2,a3
  102888:	b735                	j	1027b4 <__adddf3+0x2a6>
  10288a:	7ff00313          	li	t1,2047
  10288e:	00681f63          	bne	a6,t1,1028ac <__adddf3+0x39e>
  102892:	87ba                	mv	a5,a4
  102894:	8532                	mv	a0,a2
  102896:	7ff00493          	li	s1,2047
  10289a:	a07d                	j	102948 <__adddf3+0x43a>
  10289c:	7ff00593          	li	a1,2047
  1028a0:	feb889e3          	beq	a7,a1,102892 <__adddf3+0x384>
  1028a4:	008005b7          	lui	a1,0x800
  1028a8:	8fcd                	or	a5,a5,a1
  1028aa:	85c2                	mv	a1,a6
  1028ac:	03800813          	li	a6,56
  1028b0:	06b84963          	blt	a6,a1,102922 <__adddf3+0x414>
  1028b4:	487d                	li	a6,31
  1028b6:	02b84f63          	blt	a6,a1,1028f4 <__adddf3+0x3e6>
  1028ba:	02000313          	li	t1,32
  1028be:	40b30333          	sub	t1,t1,a1
  1028c2:	00b55e33          	srl	t3,a0,a1
  1028c6:	00679833          	sll	a6,a5,t1
  1028ca:	00651333          	sll	t1,a0,t1
  1028ce:	01c86833          	or	a6,a6,t3
  1028d2:	00603333          	snez	t1,t1
  1028d6:	00686533          	or	a0,a6,t1
  1028da:	00b7d5b3          	srl	a1,a5,a1
  1028de:	40a60533          	sub	a0,a2,a0
  1028e2:	40b705b3          	sub	a1,a4,a1
  1028e6:	00a63633          	sltu	a2,a2,a0
  1028ea:	40c587b3          	sub	a5,a1,a2
  1028ee:	84c6                	mv	s1,a7
  1028f0:	8936                	mv	s2,a3
  1028f2:	bf09                	j	102804 <__adddf3+0x2f6>
  1028f4:	fe058813          	addi	a6,a1,-32 # 7fffe0 <fromhost+0x62ffd0>
  1028f8:	02000e13          	li	t3,32
  1028fc:	0107d833          	srl	a6,a5,a6
  102900:	4301                	li	t1,0
  102902:	01c58863          	beq	a1,t3,102912 <__adddf3+0x404>
  102906:	04000313          	li	t1,64
  10290a:	40b30333          	sub	t1,t1,a1
  10290e:	00679333          	sll	t1,a5,t1
  102912:	00a36333          	or	t1,t1,a0
  102916:	00603333          	snez	t1,t1
  10291a:	00686533          	or	a0,a6,t1
  10291e:	4581                	li	a1,0
  102920:	bf7d                	j	1028de <__adddf3+0x3d0>
  102922:	8d5d                	or	a0,a0,a5
  102924:	00a03533          	snez	a0,a0
  102928:	bfdd                	j	10291e <__adddf3+0x410>
  10292a:	00148593          	addi	a1,s1,1
  10292e:	7fe5f593          	andi	a1,a1,2046
  102932:	e5ad                	bnez	a1,10299c <__adddf3+0x48e>
  102934:	00a7e833          	or	a6,a5,a0
  102938:	00c765b3          	or	a1,a4,a2
  10293c:	e4a9                	bnez	s1,102986 <__adddf3+0x478>
  10293e:	00081763          	bnez	a6,10294c <__adddf3+0x43e>
  102942:	c1e5                	beqz	a1,102a22 <__adddf3+0x514>
  102944:	87ba                	mv	a5,a4
  102946:	8532                	mv	a0,a2
  102948:	8936                	mv	s2,a3
  10294a:	b3ed                	j	102734 <__adddf3+0x226>
  10294c:	de0584e3          	beqz	a1,102734 <__adddf3+0x226>
  102950:	40c50833          	sub	a6,a0,a2
  102954:	010538b3          	sltu	a7,a0,a6
  102958:	40e785b3          	sub	a1,a5,a4
  10295c:	411585b3          	sub	a1,a1,a7
  102960:	00859893          	slli	a7,a1,0x8
  102964:	0008da63          	bgez	a7,102978 <__adddf3+0x46a>
  102968:	40a60533          	sub	a0,a2,a0
  10296c:	8f1d                	sub	a4,a4,a5
  10296e:	00a63633          	sltu	a2,a2,a0
  102972:	40c707b3          	sub	a5,a4,a2
  102976:	bfc9                	j	102948 <__adddf3+0x43a>
  102978:	00b86533          	or	a0,a6,a1
  10297c:	10050f63          	beqz	a0,102a9a <__adddf3+0x58c>
  102980:	87ae                	mv	a5,a1
  102982:	8542                	mv	a0,a6
  102984:	bb45                	j	102734 <__adddf3+0x226>
  102986:	00081863          	bnez	a6,102996 <__adddf3+0x488>
  10298a:	dc0589e3          	beqz	a1,10275c <__adddf3+0x24e>
  10298e:	87ba                	mv	a5,a4
  102990:	8532                	mv	a0,a2
  102992:	8936                	mv	s2,a3
  102994:	beed                	j	10258e <__adddf3+0x80>
  102996:	be058ce3          	beqz	a1,10258e <__adddf3+0x80>
  10299a:	b3c9                	j	10275c <__adddf3+0x24e>
  10299c:	40c505b3          	sub	a1,a0,a2
  1029a0:	00b53833          	sltu	a6,a0,a1
  1029a4:	40e78433          	sub	s0,a5,a4
  1029a8:	41040433          	sub	s0,s0,a6
  1029ac:	00841813          	slli	a6,s0,0x8
  1029b0:	89ae                	mv	s3,a1
  1029b2:	06085563          	bgez	a6,102a1c <__adddf3+0x50e>
  1029b6:	40a609b3          	sub	s3,a2,a0
  1029ba:	40f70433          	sub	s0,a4,a5
  1029be:	01363633          	sltu	a2,a2,s3
  1029c2:	8c11                	sub	s0,s0,a2
  1029c4:	8936                	mv	s2,a3
  1029c6:	c025                	beqz	s0,102a26 <__adddf3+0x518>
  1029c8:	8522                	mv	a0,s0
  1029ca:	ffffd097          	auipc	ra,0xffffd
  1029ce:	70c080e7          	jalr	1804(ra) # 1000d6 <__clzsi2>
  1029d2:	ff850693          	addi	a3,a0,-8
  1029d6:	02000793          	li	a5,32
  1029da:	8f95                	sub	a5,a5,a3
  1029dc:	00d41433          	sll	s0,s0,a3
  1029e0:	00f9d7b3          	srl	a5,s3,a5
  1029e4:	8fc1                	or	a5,a5,s0
  1029e6:	00d99433          	sll	s0,s3,a3
  1029ea:	0896c063          	blt	a3,s1,102a6a <__adddf3+0x55c>
  1029ee:	8e85                	sub	a3,a3,s1
  1029f0:	00168613          	addi	a2,a3,1
  1029f4:	477d                	li	a4,31
  1029f6:	04c74763          	blt	a4,a2,102a44 <__adddf3+0x536>
  1029fa:	02000713          	li	a4,32
  1029fe:	8f11                	sub	a4,a4,a2
  102a00:	00e79533          	sll	a0,a5,a4
  102a04:	00c456b3          	srl	a3,s0,a2
  102a08:	00e41733          	sll	a4,s0,a4
  102a0c:	8d55                	or	a0,a0,a3
  102a0e:	00e03733          	snez	a4,a4
  102a12:	8d59                	or	a0,a0,a4
  102a14:	00c7d7b3          	srl	a5,a5,a2
  102a18:	4481                	li	s1,0
  102a1a:	bb29                	j	102734 <__adddf3+0x226>
  102a1c:	8dc1                	or	a1,a1,s0
  102a1e:	f5c5                	bnez	a1,1029c6 <__adddf3+0x4b8>
  102a20:	4481                	li	s1,0
  102a22:	4901                	li	s2,0
  102a24:	a095                	j	102a88 <__adddf3+0x57a>
  102a26:	854e                	mv	a0,s3
  102a28:	ffffd097          	auipc	ra,0xffffd
  102a2c:	6ae080e7          	jalr	1710(ra) # 1000d6 <__clzsi2>
  102a30:	01850693          	addi	a3,a0,24
  102a34:	47fd                	li	a5,31
  102a36:	fad7d0e3          	bge	a5,a3,1029d6 <__adddf3+0x4c8>
  102a3a:	ff850793          	addi	a5,a0,-8
  102a3e:	00f997b3          	sll	a5,s3,a5
  102a42:	b765                	j	1029ea <__adddf3+0x4dc>
  102a44:	1685                	addi	a3,a3,-31
  102a46:	00d7d533          	srl	a0,a5,a3
  102a4a:	02000693          	li	a3,32
  102a4e:	4701                	li	a4,0
  102a50:	00d60763          	beq	a2,a3,102a5e <__adddf3+0x550>
  102a54:	04000713          	li	a4,64
  102a58:	8f11                	sub	a4,a4,a2
  102a5a:	00e79733          	sll	a4,a5,a4
  102a5e:	8f41                	or	a4,a4,s0
  102a60:	00e03733          	snez	a4,a4
  102a64:	8d59                	or	a0,a0,a4
  102a66:	4781                	li	a5,0
  102a68:	bf45                	j	102a18 <__adddf3+0x50a>
  102a6a:	ff800737          	lui	a4,0xff800
  102a6e:	177d                	addi	a4,a4,-1 # ff7fffff <fromhost+0xff62ffef>
  102a70:	8c95                	sub	s1,s1,a3
  102a72:	8ff9                	and	a5,a5,a4
  102a74:	8522                	mv	a0,s0
  102a76:	b97d                	j	102734 <__adddf3+0x226>
  102a78:	87ba                	mv	a5,a4
  102a7a:	8532                	mv	a0,a2
  102a7c:	b331                	j	102788 <__adddf3+0x27a>
  102a7e:	87ba                	mv	a5,a4
  102a80:	8532                	mv	a0,a2
  102a82:	b94d                	j	102734 <__adddf3+0x226>
  102a84:	7ff00493          	li	s1,2047
  102a88:	4781                	li	a5,0
  102a8a:	4501                	li	a0,0
  102a8c:	a809                	j	102a9e <__adddf3+0x590>
  102a8e:	84c2                	mv	s1,a6
  102a90:	b155                	j	102734 <__adddf3+0x226>
  102a92:	87ba                	mv	a5,a4
  102a94:	8532                	mv	a0,a2
  102a96:	84c2                	mv	s1,a6
  102a98:	bd45                	j	102948 <__adddf3+0x43a>
  102a9a:	4781                	li	a5,0
  102a9c:	4901                	li	s2,0
  102a9e:	00879713          	slli	a4,a5,0x8
  102aa2:	00075b63          	bgez	a4,102ab8 <__adddf3+0x5aa>
  102aa6:	0485                	addi	s1,s1,1
  102aa8:	7ff00713          	li	a4,2047
  102aac:	04e48b63          	beq	s1,a4,102b02 <__adddf3+0x5f4>
  102ab0:	ff800737          	lui	a4,0xff800
  102ab4:	177d                	addi	a4,a4,-1 # ff7fffff <fromhost+0xff62ffef>
  102ab6:	8ff9                	and	a5,a5,a4
  102ab8:	01d79693          	slli	a3,a5,0x1d
  102abc:	810d                	srli	a0,a0,0x3
  102abe:	7ff00713          	li	a4,2047
  102ac2:	8ec9                	or	a3,a3,a0
  102ac4:	838d                	srli	a5,a5,0x3
  102ac6:	00e49963          	bne	s1,a4,102ad8 <__adddf3+0x5ca>
  102aca:	8edd                	or	a3,a3,a5
  102acc:	4781                	li	a5,0
  102ace:	c689                	beqz	a3,102ad8 <__adddf3+0x5ca>
  102ad0:	000807b7          	lui	a5,0x80
  102ad4:	4681                	li	a3,0
  102ad6:	4901                	li	s2,0
  102ad8:	01449713          	slli	a4,s1,0x14
  102adc:	7ff00637          	lui	a2,0x7ff00
  102ae0:	07b2                	slli	a5,a5,0xc
  102ae2:	8f71                	and	a4,a4,a2
  102ae4:	40f2                	lw	ra,28(sp)
  102ae6:	4462                	lw	s0,24(sp)
  102ae8:	83b1                	srli	a5,a5,0xc
  102aea:	8fd9                	or	a5,a5,a4
  102aec:	01f91713          	slli	a4,s2,0x1f
  102af0:	00e7e633          	or	a2,a5,a4
  102af4:	44d2                	lw	s1,20(sp)
  102af6:	4942                	lw	s2,16(sp)
  102af8:	49b2                	lw	s3,12(sp)
  102afa:	8536                	mv	a0,a3
  102afc:	85b2                	mv	a1,a2
  102afe:	6105                	addi	sp,sp,32
  102b00:	8082                	ret
  102b02:	4781                	li	a5,0
  102b04:	4501                	li	a0,0
  102b06:	bf4d                	j	102ab8 <__adddf3+0x5aa>

00102b08 <memset>:
  102b08:	433d                	li	t1,15
  102b0a:	872a                	mv	a4,a0
  102b0c:	02c37363          	bgeu	t1,a2,102b32 <memset+0x2a>
  102b10:	00f77793          	andi	a5,a4,15
  102b14:	efbd                	bnez	a5,102b92 <memset+0x8a>
  102b16:	e5ad                	bnez	a1,102b80 <memset+0x78>
  102b18:	ff067693          	andi	a3,a2,-16
  102b1c:	8a3d                	andi	a2,a2,15
  102b1e:	96ba                	add	a3,a3,a4
  102b20:	c30c                	sw	a1,0(a4)
  102b22:	c34c                	sw	a1,4(a4)
  102b24:	c70c                	sw	a1,8(a4)
  102b26:	c74c                	sw	a1,12(a4)
  102b28:	0741                	addi	a4,a4,16
  102b2a:	fed76be3          	bltu	a4,a3,102b20 <memset+0x18>
  102b2e:	e211                	bnez	a2,102b32 <memset+0x2a>
  102b30:	8082                	ret
  102b32:	40c306b3          	sub	a3,t1,a2
  102b36:	068a                	slli	a3,a3,0x2
  102b38:	00000297          	auipc	t0,0x0
  102b3c:	9696                	add	a3,a3,t0
  102b3e:	00a68067          	jr	10(a3)
  102b42:	00b70723          	sb	a1,14(a4)
  102b46:	00b706a3          	sb	a1,13(a4)
  102b4a:	00b70623          	sb	a1,12(a4)
  102b4e:	00b705a3          	sb	a1,11(a4)
  102b52:	00b70523          	sb	a1,10(a4)
  102b56:	00b704a3          	sb	a1,9(a4)
  102b5a:	00b70423          	sb	a1,8(a4)
  102b5e:	00b703a3          	sb	a1,7(a4)
  102b62:	00b70323          	sb	a1,6(a4)
  102b66:	00b702a3          	sb	a1,5(a4)
  102b6a:	00b70223          	sb	a1,4(a4)
  102b6e:	00b701a3          	sb	a1,3(a4)
  102b72:	00b70123          	sb	a1,2(a4)
  102b76:	00b700a3          	sb	a1,1(a4)
  102b7a:	00b70023          	sb	a1,0(a4)
  102b7e:	8082                	ret
  102b80:	0ff5f593          	zext.b	a1,a1
  102b84:	00859693          	slli	a3,a1,0x8
  102b88:	8dd5                	or	a1,a1,a3
  102b8a:	01059693          	slli	a3,a1,0x10
  102b8e:	8dd5                	or	a1,a1,a3
  102b90:	b761                	j	102b18 <memset+0x10>
  102b92:	00279693          	slli	a3,a5,0x2
  102b96:	00000297          	auipc	t0,0x0
  102b9a:	9696                	add	a3,a3,t0
  102b9c:	8286                	mv	t0,ra
  102b9e:	fa8680e7          	jalr	-88(a3)
  102ba2:	8096                	mv	ra,t0
  102ba4:	17c1                	addi	a5,a5,-16 # 7fff0 <tohost+0x5ffe8>
  102ba6:	8f1d                	sub	a4,a4,a5
  102ba8:	963e                	add	a2,a2,a5
  102baa:	f8c374e3          	bgeu	t1,a2,102b32 <memset+0x2a>
  102bae:	b7a5                	j	102b16 <memset+0xe>

00102bb0 <strcmp>:
  102bb0:	00b56733          	or	a4,a0,a1
  102bb4:	53fd                	li	t2,-1
  102bb6:	8b0d                	andi	a4,a4,3
  102bb8:	e779                	bnez	a4,102c86 <strcmp+0xd6>
  102bba:	7f7f87b7          	lui	a5,0x7f7f8
  102bbe:	f7f78793          	addi	a5,a5,-129 # 7f7f7f7f <fromhost+0x7f627f6f>
  102bc2:	4110                	lw	a2,0(a0)
  102bc4:	4194                	lw	a3,0(a1)
  102bc6:	00f672b3          	and	t0,a2,a5
  102bca:	00f66333          	or	t1,a2,a5
  102bce:	92be                	add	t0,t0,a5
  102bd0:	0062e2b3          	or	t0,t0,t1
  102bd4:	0c729763          	bne	t0,t2,102ca2 <strcmp+0xf2>
  102bd8:	06d61863          	bne	a2,a3,102c48 <strcmp+0x98>
  102bdc:	4150                	lw	a2,4(a0)
  102bde:	41d4                	lw	a3,4(a1)
  102be0:	00f672b3          	and	t0,a2,a5
  102be4:	00f66333          	or	t1,a2,a5
  102be8:	92be                	add	t0,t0,a5
  102bea:	0062e2b3          	or	t0,t0,t1
  102bee:	0a729863          	bne	t0,t2,102c9e <strcmp+0xee>
  102bf2:	04d61b63          	bne	a2,a3,102c48 <strcmp+0x98>
  102bf6:	4510                	lw	a2,8(a0)
  102bf8:	4594                	lw	a3,8(a1)
  102bfa:	00f672b3          	and	t0,a2,a5
  102bfe:	00f66333          	or	t1,a2,a5
  102c02:	92be                	add	t0,t0,a5
  102c04:	0062e2b3          	or	t0,t0,t1
  102c08:	0a729163          	bne	t0,t2,102caa <strcmp+0xfa>
  102c0c:	02d61e63          	bne	a2,a3,102c48 <strcmp+0x98>
  102c10:	4550                	lw	a2,12(a0)
  102c12:	45d4                	lw	a3,12(a1)
  102c14:	00f672b3          	and	t0,a2,a5
  102c18:	00f66333          	or	t1,a2,a5
  102c1c:	92be                	add	t0,t0,a5
  102c1e:	0062e2b3          	or	t0,t0,t1
  102c22:	08729a63          	bne	t0,t2,102cb6 <strcmp+0x106>
  102c26:	02d61163          	bne	a2,a3,102c48 <strcmp+0x98>
  102c2a:	4910                	lw	a2,16(a0)
  102c2c:	4994                	lw	a3,16(a1)
  102c2e:	00f672b3          	and	t0,a2,a5
  102c32:	00f66333          	or	t1,a2,a5
  102c36:	92be                	add	t0,t0,a5
  102c38:	0062e2b3          	or	t0,t0,t1
  102c3c:	08729363          	bne	t0,t2,102cc2 <strcmp+0x112>
  102c40:	0551                	addi	a0,a0,20
  102c42:	05d1                	addi	a1,a1,20
  102c44:	f6d60fe3          	beq	a2,a3,102bc2 <strcmp+0x12>
  102c48:	01061713          	slli	a4,a2,0x10
  102c4c:	01069793          	slli	a5,a3,0x10
  102c50:	00f71c63          	bne	a4,a5,102c68 <strcmp+0xb8>
  102c54:	01065713          	srli	a4,a2,0x10
  102c58:	0106d793          	srli	a5,a3,0x10
  102c5c:	40f70533          	sub	a0,a4,a5
  102c60:	0ff57593          	zext.b	a1,a0
  102c64:	e991                	bnez	a1,102c78 <strcmp+0xc8>
  102c66:	8082                	ret
  102c68:	8341                	srli	a4,a4,0x10
  102c6a:	83c1                	srli	a5,a5,0x10
  102c6c:	40f70533          	sub	a0,a4,a5
  102c70:	0ff57593          	zext.b	a1,a0
  102c74:	e191                	bnez	a1,102c78 <strcmp+0xc8>
  102c76:	8082                	ret
  102c78:	0ff77713          	zext.b	a4,a4
  102c7c:	0ff7f793          	zext.b	a5,a5
  102c80:	40f70533          	sub	a0,a4,a5
  102c84:	8082                	ret
  102c86:	00054603          	lbu	a2,0(a0)
  102c8a:	0005c683          	lbu	a3,0(a1)
  102c8e:	0505                	addi	a0,a0,1
  102c90:	0585                	addi	a1,a1,1
  102c92:	00d61363          	bne	a2,a3,102c98 <strcmp+0xe8>
  102c96:	fa65                	bnez	a2,102c86 <strcmp+0xd6>
  102c98:	40d60533          	sub	a0,a2,a3
  102c9c:	8082                	ret
  102c9e:	0511                	addi	a0,a0,4
  102ca0:	0591                	addi	a1,a1,4
  102ca2:	fed612e3          	bne	a2,a3,102c86 <strcmp+0xd6>
  102ca6:	4501                	li	a0,0
  102ca8:	8082                	ret
  102caa:	0521                	addi	a0,a0,8
  102cac:	05a1                	addi	a1,a1,8
  102cae:	fcd61ce3          	bne	a2,a3,102c86 <strcmp+0xd6>
  102cb2:	4501                	li	a0,0
  102cb4:	8082                	ret
  102cb6:	0531                	addi	a0,a0,12
  102cb8:	05b1                	addi	a1,a1,12
  102cba:	fcd616e3          	bne	a2,a3,102c86 <strcmp+0xd6>
  102cbe:	4501                	li	a0,0
  102cc0:	8082                	ret
  102cc2:	0541                	addi	a0,a0,16
  102cc4:	05c1                	addi	a1,a1,16
  102cc6:	fcd610e3          	bne	a2,a3,102c86 <strcmp+0xd6>
  102cca:	4501                	li	a0,0
  102ccc:	8082                	ret

00102cce <__eqtf2>:
  102cce:	455c                	lw	a5,12(a0)
  102cd0:	0005af03          	lw	t5,0(a1)
  102cd4:	0045af83          	lw	t6,4(a1)
  102cd8:	0085a283          	lw	t0,8(a1)
  102cdc:	45cc                	lw	a1,12(a1)
  102cde:	6721                	lui	a4,0x8
  102ce0:	0107d693          	srli	a3,a5,0x10
  102ce4:	177d                	addi	a4,a4,-1 # 7fff <_min_stack+0x5fff>
  102ce6:	01079813          	slli	a6,a5,0x10
  102cea:	01059e93          	slli	t4,a1,0x10
  102cee:	01f7d613          	srli	a2,a5,0x1f
  102cf2:	8ef9                	and	a3,a3,a4
  102cf4:	0105d793          	srli	a5,a1,0x10
  102cf8:	00052883          	lw	a7,0(a0)
  102cfc:	00452303          	lw	t1,4(a0)
  102d00:	00852e03          	lw	t3,8(a0)
  102d04:	1141                	addi	sp,sp,-16
  102d06:	01085813          	srli	a6,a6,0x10
  102d0a:	010ede93          	srli	t4,t4,0x10
  102d0e:	8ff9                	and	a5,a5,a4
  102d10:	81fd                	srli	a1,a1,0x1f
  102d12:	00e69d63          	bne	a3,a4,102d2c <__eqtf2+0x5e>
  102d16:	0068e733          	or	a4,a7,t1
  102d1a:	01c76733          	or	a4,a4,t3
  102d1e:	01076733          	or	a4,a4,a6
  102d22:	4505                	li	a0,1
  102d24:	e721                	bnez	a4,102d6c <__eqtf2+0x9e>
  102d26:	04d79363          	bne	a5,a3,102d6c <__eqtf2+0x9e>
  102d2a:	a019                	j	102d30 <__eqtf2+0x62>
  102d2c:	00e79a63          	bne	a5,a4,102d40 <__eqtf2+0x72>
  102d30:	01ff6733          	or	a4,t5,t6
  102d34:	00576733          	or	a4,a4,t0
  102d38:	01d76733          	or	a4,a4,t4
  102d3c:	4505                	li	a0,1
  102d3e:	e71d                	bnez	a4,102d6c <__eqtf2+0x9e>
  102d40:	4505                	li	a0,1
  102d42:	02d79563          	bne	a5,a3,102d6c <__eqtf2+0x9e>
  102d46:	03e89363          	bne	a7,t5,102d6c <__eqtf2+0x9e>
  102d4a:	03f31163          	bne	t1,t6,102d6c <__eqtf2+0x9e>
  102d4e:	005e1f63          	bne	t3,t0,102d6c <__eqtf2+0x9e>
  102d52:	01d81d63          	bne	a6,t4,102d6c <__eqtf2+0x9e>
  102d56:	00b60d63          	beq	a2,a1,102d70 <__eqtf2+0xa2>
  102d5a:	eb89                	bnez	a5,102d6c <__eqtf2+0x9e>
  102d5c:	0068e533          	or	a0,a7,t1
  102d60:	01c56533          	or	a0,a0,t3
  102d64:	01056533          	or	a0,a0,a6
  102d68:	00a03533          	snez	a0,a0
  102d6c:	0141                	addi	sp,sp,16
  102d6e:	8082                	ret
  102d70:	4501                	li	a0,0
  102d72:	bfed                	j	102d6c <__eqtf2+0x9e>

00102d74 <__getf2>:
  102d74:	455c                	lw	a5,12(a0)
  102d76:	45d4                	lw	a3,12(a1)
  102d78:	6721                	lui	a4,0x8
  102d7a:	0107d613          	srli	a2,a5,0x10
  102d7e:	177d                	addi	a4,a4,-1 # 7fff <_min_stack+0x5fff>
  102d80:	01079813          	slli	a6,a5,0x10
  102d84:	01069293          	slli	t0,a3,0x10
  102d88:	00052883          	lw	a7,0(a0)
  102d8c:	00452303          	lw	t1,4(a0)
  102d90:	00852e03          	lw	t3,8(a0)
  102d94:	8e79                	and	a2,a2,a4
  102d96:	0106d513          	srli	a0,a3,0x10
  102d9a:	0005ae83          	lw	t4,0(a1)
  102d9e:	0045af03          	lw	t5,4(a1)
  102da2:	0085af83          	lw	t6,8(a1)
  102da6:	1141                	addi	sp,sp,-16
  102da8:	01085813          	srli	a6,a6,0x10
  102dac:	83fd                	srli	a5,a5,0x1f
  102dae:	0102d293          	srli	t0,t0,0x10
  102db2:	8d79                	and	a0,a0,a4
  102db4:	82fd                	srli	a3,a3,0x1f
  102db6:	00e61963          	bne	a2,a4,102dc8 <__getf2+0x54>
  102dba:	01136733          	or	a4,t1,a7
  102dbe:	01c76733          	or	a4,a4,t3
  102dc2:	01076733          	or	a4,a4,a6
  102dc6:	ef35                	bnez	a4,102e42 <__getf2+0xce>
  102dc8:	6721                	lui	a4,0x8
  102dca:	177d                	addi	a4,a4,-1 # 7fff <_min_stack+0x5fff>
  102dcc:	00e51963          	bne	a0,a4,102dde <__getf2+0x6a>
  102dd0:	01eee733          	or	a4,t4,t5
  102dd4:	01f76733          	or	a4,a4,t6
  102dd8:	00576733          	or	a4,a4,t0
  102ddc:	e33d                	bnez	a4,102e42 <__getf2+0xce>
  102dde:	4701                	li	a4,0
  102de0:	ea09                	bnez	a2,102df2 <__getf2+0x7e>
  102de2:	01136733          	or	a4,t1,a7
  102de6:	01c76733          	or	a4,a4,t3
  102dea:	01076733          	or	a4,a4,a6
  102dee:	00173713          	seqz	a4,a4
  102df2:	e931                	bnez	a0,102e46 <__getf2+0xd2>
  102df4:	01eee5b3          	or	a1,t4,t5
  102df8:	01f5e5b3          	or	a1,a1,t6
  102dfc:	0055e5b3          	or	a1,a1,t0
  102e00:	c711                	beqz	a4,102e0c <__getf2+0x98>
  102e02:	c981                	beqz	a1,102e12 <__getf2+0x9e>
  102e04:	4505                	li	a0,1
  102e06:	e691                	bnez	a3,102e12 <__getf2+0x9e>
  102e08:	557d                	li	a0,-1
  102e0a:	a021                	j	102e12 <__getf2+0x9e>
  102e0c:	ed95                	bnez	a1,102e48 <__getf2+0xd4>
  102e0e:	557d                	li	a0,-1
  102e10:	c3b1                	beqz	a5,102e54 <__getf2+0xe0>
  102e12:	0141                	addi	sp,sp,16
  102e14:	8082                	ret
  102e16:	fea647e3          	blt	a2,a0,102e04 <__getf2+0x90>
  102e1a:	ff02eae3          	bltu	t0,a6,102e0e <__getf2+0x9a>
  102e1e:	00581f63          	bne	a6,t0,102e3c <__getf2+0xc8>
  102e22:	ffcfe6e3          	bltu	t6,t3,102e0e <__getf2+0x9a>
  102e26:	01fe1b63          	bne	t3,t6,102e3c <__getf2+0xc8>
  102e2a:	fe6f62e3          	bltu	t5,t1,102e0e <__getf2+0x9a>
  102e2e:	01e31763          	bne	t1,t5,102e3c <__getf2+0xc8>
  102e32:	fd1eeee3          	bltu	t4,a7,102e0e <__getf2+0x9a>
  102e36:	4501                	li	a0,0
  102e38:	fdd8fde3          	bgeu	a7,t4,102e12 <__getf2+0x9e>
  102e3c:	4505                	li	a0,1
  102e3e:	fbf1                	bnez	a5,102e12 <__getf2+0x9e>
  102e40:	b7e1                	j	102e08 <__getf2+0x94>
  102e42:	5579                	li	a0,-2
  102e44:	b7f9                	j	102e12 <__getf2+0x9e>
  102e46:	ff5d                	bnez	a4,102e04 <__getf2+0x90>
  102e48:	fcf693e3          	bne	a3,a5,102e0e <__getf2+0x9a>
  102e4c:	fcc555e3          	bge	a0,a2,102e16 <__getf2+0xa2>
  102e50:	557d                	li	a0,-1
  102e52:	f2e1                	bnez	a3,102e12 <__getf2+0x9e>
  102e54:	4505                	li	a0,1
  102e56:	bf75                	j	102e12 <__getf2+0x9e>

00102e58 <__letf2>:
  102e58:	455c                	lw	a5,12(a0)
  102e5a:	45d4                	lw	a3,12(a1)
  102e5c:	6721                	lui	a4,0x8
  102e5e:	0107d613          	srli	a2,a5,0x10
  102e62:	177d                	addi	a4,a4,-1 # 7fff <_min_stack+0x5fff>
  102e64:	01079813          	slli	a6,a5,0x10
  102e68:	01069293          	slli	t0,a3,0x10
  102e6c:	00052883          	lw	a7,0(a0)
  102e70:	00452303          	lw	t1,4(a0)
  102e74:	00852e03          	lw	t3,8(a0)
  102e78:	8e79                	and	a2,a2,a4
  102e7a:	0106d513          	srli	a0,a3,0x10
  102e7e:	0005ae83          	lw	t4,0(a1)
  102e82:	0045af03          	lw	t5,4(a1)
  102e86:	0085af83          	lw	t6,8(a1)
  102e8a:	1141                	addi	sp,sp,-16
  102e8c:	01085813          	srli	a6,a6,0x10
  102e90:	83fd                	srli	a5,a5,0x1f
  102e92:	0102d293          	srli	t0,t0,0x10
  102e96:	8d79                	and	a0,a0,a4
  102e98:	82fd                	srli	a3,a3,0x1f
  102e9a:	00e61963          	bne	a2,a4,102eac <__letf2+0x54>
  102e9e:	01136733          	or	a4,t1,a7
  102ea2:	01c76733          	or	a4,a4,t3
  102ea6:	01076733          	or	a4,a4,a6
  102eaa:	ef35                	bnez	a4,102f26 <__letf2+0xce>
  102eac:	6721                	lui	a4,0x8
  102eae:	177d                	addi	a4,a4,-1 # 7fff <_min_stack+0x5fff>
  102eb0:	00e51963          	bne	a0,a4,102ec2 <__letf2+0x6a>
  102eb4:	01eee733          	or	a4,t4,t5
  102eb8:	01f76733          	or	a4,a4,t6
  102ebc:	00576733          	or	a4,a4,t0
  102ec0:	e33d                	bnez	a4,102f26 <__letf2+0xce>
  102ec2:	4701                	li	a4,0
  102ec4:	ea09                	bnez	a2,102ed6 <__letf2+0x7e>
  102ec6:	01136733          	or	a4,t1,a7
  102eca:	01c76733          	or	a4,a4,t3
  102ece:	01076733          	or	a4,a4,a6
  102ed2:	00173713          	seqz	a4,a4
  102ed6:	e931                	bnez	a0,102f2a <__letf2+0xd2>
  102ed8:	01eee5b3          	or	a1,t4,t5
  102edc:	01f5e5b3          	or	a1,a1,t6
  102ee0:	0055e5b3          	or	a1,a1,t0
  102ee4:	c711                	beqz	a4,102ef0 <__letf2+0x98>
  102ee6:	c981                	beqz	a1,102ef6 <__letf2+0x9e>
  102ee8:	4505                	li	a0,1
  102eea:	e691                	bnez	a3,102ef6 <__letf2+0x9e>
  102eec:	557d                	li	a0,-1
  102eee:	a021                	j	102ef6 <__letf2+0x9e>
  102ef0:	ed95                	bnez	a1,102f2c <__letf2+0xd4>
  102ef2:	557d                	li	a0,-1
  102ef4:	c3b1                	beqz	a5,102f38 <__letf2+0xe0>
  102ef6:	0141                	addi	sp,sp,16
  102ef8:	8082                	ret
  102efa:	fea647e3          	blt	a2,a0,102ee8 <__letf2+0x90>
  102efe:	ff02eae3          	bltu	t0,a6,102ef2 <__letf2+0x9a>
  102f02:	00581f63          	bne	a6,t0,102f20 <__letf2+0xc8>
  102f06:	ffcfe6e3          	bltu	t6,t3,102ef2 <__letf2+0x9a>
  102f0a:	01fe1b63          	bne	t3,t6,102f20 <__letf2+0xc8>
  102f0e:	fe6f62e3          	bltu	t5,t1,102ef2 <__letf2+0x9a>
  102f12:	01e31763          	bne	t1,t5,102f20 <__letf2+0xc8>
  102f16:	fd1eeee3          	bltu	t4,a7,102ef2 <__letf2+0x9a>
  102f1a:	4501                	li	a0,0
  102f1c:	fdd8fde3          	bgeu	a7,t4,102ef6 <__letf2+0x9e>
  102f20:	4505                	li	a0,1
  102f22:	fbf1                	bnez	a5,102ef6 <__letf2+0x9e>
  102f24:	b7e1                	j	102eec <__letf2+0x94>
  102f26:	4509                	li	a0,2
  102f28:	b7f9                	j	102ef6 <__letf2+0x9e>
  102f2a:	ff5d                	bnez	a4,102ee8 <__letf2+0x90>
  102f2c:	fcf693e3          	bne	a3,a5,102ef2 <__letf2+0x9a>
  102f30:	fcc555e3          	bge	a0,a2,102efa <__letf2+0xa2>
  102f34:	557d                	li	a0,-1
  102f36:	f2e1                	bnez	a3,102ef6 <__letf2+0x9e>
  102f38:	4505                	li	a0,1
  102f3a:	bf75                	j	102ef6 <__letf2+0x9e>

00102f3c <__multf3>:
  102f3c:	7171                	addi	sp,sp,-176
  102f3e:	cd52                	sw	s4,152(sp)
  102f40:	00c5aa03          	lw	s4,12(a1)
  102f44:	419c                	lw	a5,0(a1)
  102f46:	4594                	lw	a3,8(a1)
  102f48:	d522                	sw	s0,168(sp)
  102f4a:	842a                	mv	s0,a0
  102f4c:	41c8                	lw	a0,4(a1)
  102f4e:	010a1713          	slli	a4,s4,0x10
  102f52:	d14a                	sw	s2,160(sp)
  102f54:	cf4e                	sw	s3,156(sp)
  102f56:	00062903          	lw	s2,0(a2) # 7ff00000 <fromhost+0x7fd2fff0>
  102f5a:	00c62983          	lw	s3,12(a2)
  102f5e:	cb56                	sw	s5,148(sp)
  102f60:	c95a                	sw	s6,144(sp)
  102f62:	00862a83          	lw	s5,8(a2)
  102f66:	00462b03          	lw	s6,4(a2)
  102f6a:	6621                	lui	a2,0x8
  102f6c:	d326                	sw	s1,164(sp)
  102f6e:	8341                	srli	a4,a4,0x10
  102f70:	010a5493          	srli	s1,s4,0x10
  102f74:	167d                	addi	a2,a2,-1 # 7fff <_min_stack+0x5fff>
  102f76:	ced2                	sw	s4,92(sp)
  102f78:	d706                	sw	ra,172(sp)
  102f7a:	c75e                	sw	s7,140(sp)
  102f7c:	c562                	sw	s8,136(sp)
  102f7e:	c366                	sw	s9,132(sp)
  102f80:	c16a                	sw	s10,128(sp)
  102f82:	deee                	sw	s11,124(sp)
  102f84:	c8be                	sw	a5,80(sp)
  102f86:	caaa                	sw	a0,84(sp)
  102f88:	ccb6                	sw	a3,88(sp)
  102f8a:	d03e                	sw	a5,32(sp)
  102f8c:	d22a                	sw	a0,36(sp)
  102f8e:	d436                	sw	a3,40(sp)
  102f90:	d63a                	sw	a4,44(sp)
  102f92:	8cf1                	and	s1,s1,a2
  102f94:	01fa5a13          	srli	s4,s4,0x1f
  102f98:	62048c63          	beqz	s1,1035d0 <__multf3+0x694>
  102f9c:	72c48663          	beq	s1,a2,1036c8 <__multf3+0x78c>
  102fa0:	66c1                	lui	a3,0x10
  102fa2:	8f55                	or	a4,a4,a3
  102fa4:	d63a                	sw	a4,44(sp)
  102fa6:	084c                	addi	a1,sp,20
  102fa8:	1018                	addi	a4,sp,32
  102faa:	4754                	lw	a3,12(a4)
  102fac:	4710                	lw	a2,8(a4)
  102fae:	1771                	addi	a4,a4,-4
  102fb0:	068e                	slli	a3,a3,0x3
  102fb2:	8275                	srli	a2,a2,0x1d
  102fb4:	8ed1                	or	a3,a3,a2
  102fb6:	cb14                	sw	a3,16(a4)
  102fb8:	fee599e3          	bne	a1,a4,102faa <__multf3+0x6e>
  102fbc:	078e                	slli	a5,a5,0x3
  102fbe:	d03e                	sw	a5,32(sp)
  102fc0:	77f1                	lui	a5,0xffffc
  102fc2:	0785                	addi	a5,a5,1 # ffffc001 <fromhost+0xffe2bff1>
  102fc4:	94be                	add	s1,s1,a5
  102fc6:	4b81                	li	s7,0
  102fc8:	01099513          	slli	a0,s3,0x10
  102fcc:	6721                	lui	a4,0x8
  102fce:	0109d793          	srli	a5,s3,0x10
  102fd2:	8141                	srli	a0,a0,0x10
  102fd4:	177d                	addi	a4,a4,-1 # 7fff <_min_stack+0x5fff>
  102fd6:	cece                	sw	s3,92(sp)
  102fd8:	c8ca                	sw	s2,80(sp)
  102fda:	cada                	sw	s6,84(sp)
  102fdc:	ccd6                	sw	s5,88(sp)
  102fde:	d84a                	sw	s2,48(sp)
  102fe0:	da5a                	sw	s6,52(sp)
  102fe2:	dc56                	sw	s5,56(sp)
  102fe4:	de2a                	sw	a0,60(sp)
  102fe6:	8ff9                	and	a5,a5,a4
  102fe8:	01f9d993          	srli	s3,s3,0x1f
  102fec:	6e078963          	beqz	a5,1036de <__multf3+0x7a2>
  102ff0:	7ee78663          	beq	a5,a4,1037dc <__multf3+0x8a0>
  102ff4:	6741                	lui	a4,0x10
  102ff6:	8d59                	or	a0,a0,a4
  102ff8:	de2a                	sw	a0,60(sp)
  102ffa:	1818                	addi	a4,sp,48
  102ffc:	104c                	addi	a1,sp,36
  102ffe:	4754                	lw	a3,12(a4)
  103000:	4710                	lw	a2,8(a4)
  103002:	1771                	addi	a4,a4,-4 # fffc <_min_stack+0xdffc>
  103004:	068e                	slli	a3,a3,0x3
  103006:	8275                	srli	a2,a2,0x1d
  103008:	8ed1                	or	a3,a3,a2
  10300a:	cb14                	sw	a3,16(a4)
  10300c:	fee599e3          	bne	a1,a4,102ffe <__multf3+0xc2>
  103010:	7771                	lui	a4,0xffffc
  103012:	090e                	slli	s2,s2,0x3
  103014:	0705                	addi	a4,a4,1 # ffffc001 <fromhost+0xffe2bff1>
  103016:	d84a                	sw	s2,48(sp)
  103018:	97ba                	add	a5,a5,a4
  10301a:	4681                	li	a3,0
  10301c:	97a6                	add	a5,a5,s1
  10301e:	c63e                	sw	a5,12(sp)
  103020:	0785                	addi	a5,a5,1
  103022:	c43e                	sw	a5,8(sp)
  103024:	002b9793          	slli	a5,s7,0x2
  103028:	8fd5                	or	a5,a5,a3
  10302a:	4729                	li	a4,10
  10302c:	7ef74b63          	blt	a4,a5,103822 <__multf3+0x8e6>
  103030:	013a4733          	xor	a4,s4,s3
  103034:	c23a                	sw	a4,4(sp)
  103036:	4709                	li	a4,2
  103038:	7cf74063          	blt	a4,a5,1037f8 <__multf3+0x8bc>
  10303c:	17fd                	addi	a5,a5,-1
  10303e:	4705                	li	a4,1
  103040:	7ef77963          	bgeu	a4,a5,103832 <__multf3+0x8f6>
  103044:	5882                	lw	a7,32(sp)
  103046:	5f42                	lw	t5,48(sp)
  103048:	65c1                	lui	a1,0x10
  10304a:	fff58713          	addi	a4,a1,-1 # ffff <_min_stack+0xdfff>
  10304e:	0108d913          	srli	s2,a7,0x10
  103052:	010f5493          	srli	s1,t5,0x10
  103056:	00e8f8b3          	and	a7,a7,a4
  10305a:	00ef7f33          	and	t5,t5,a4
  10305e:	031f0633          	mul	a2,t5,a7
  103062:	03e90533          	mul	a0,s2,t5
  103066:	01065793          	srli	a5,a2,0x10
  10306a:	031486b3          	mul	a3,s1,a7
  10306e:	96aa                	add	a3,a3,a0
  103070:	97b6                	add	a5,a5,a3
  103072:	02990bb3          	mul	s7,s2,s1
  103076:	00a7f363          	bgeu	a5,a0,10307c <__multf3+0x140>
  10307a:	9bae                	add	s7,s7,a1
  10307c:	5ed2                	lw	t4,52(sp)
  10307e:	0107d693          	srli	a3,a5,0x10
  103082:	8ff9                	and	a5,a5,a4
  103084:	8e79                	and	a2,a2,a4
  103086:	07c2                	slli	a5,a5,0x10
  103088:	97b2                	add	a5,a5,a2
  10308a:	010ed293          	srli	t0,t4,0x10
  10308e:	00eefeb3          	and	t4,t4,a4
  103092:	03d90633          	mul	a2,s2,t4
  103096:	c83e                	sw	a5,16(sp)
  103098:	c8be                	sw	a5,80(sp)
  10309a:	03128733          	mul	a4,t0,a7
  10309e:	031e87b3          	mul	a5,t4,a7
  1030a2:	9732                	add	a4,a4,a2
  1030a4:	0107d313          	srli	t1,a5,0x10
  1030a8:	933a                	add	t1,t1,a4
  1030aa:	02590b33          	mul	s6,s2,t0
  1030ae:	00c37463          	bgeu	t1,a2,1030b6 <__multf3+0x17a>
  1030b2:	6741                	lui	a4,0x10
  1030b4:	9b3a                	add	s6,s6,a4
  1030b6:	5812                	lw	a6,36(sp)
  1030b8:	6741                	lui	a4,0x10
  1030ba:	fff70613          	addi	a2,a4,-1 # ffff <_min_stack+0xdfff>
  1030be:	01035513          	srli	a0,t1,0x10
  1030c2:	00c37333          	and	t1,t1,a2
  1030c6:	8ff1                	and	a5,a5,a2
  1030c8:	01085393          	srli	t2,a6,0x10
  1030cc:	0342                	slli	t1,t1,0x10
  1030ce:	00c87833          	and	a6,a6,a2
  1030d2:	933e                	add	t1,t1,a5
  1030d4:	03e38fb3          	mul	t6,t2,t5
  1030d8:	969a                	add	a3,a3,t1
  1030da:	03e807b3          	mul	a5,a6,t5
  1030de:	03048e33          	mul	t3,s1,a6
  1030e2:	0107d613          	srli	a2,a5,0x10
  1030e6:	9e7e                	add	t3,t3,t6
  1030e8:	9672                	add	a2,a2,t3
  1030ea:	027485b3          	mul	a1,s1,t2
  1030ee:	01f67363          	bgeu	a2,t6,1030f4 <__multf3+0x1b8>
  1030f2:	95ba                	add	a1,a1,a4
  1030f4:	01065a93          	srli	s5,a2,0x10
  1030f8:	6741                	lui	a4,0x10
  1030fa:	9aae                	add	s5,s5,a1
  1030fc:	fff70593          	addi	a1,a4,-1 # ffff <_min_stack+0xdfff>
  103100:	8fed                	and	a5,a5,a1
  103102:	8e6d                	and	a2,a2,a1
  103104:	0642                	slli	a2,a2,0x10
  103106:	030e85b3          	mul	a1,t4,a6
  10310a:	963e                	add	a2,a2,a5
  10310c:	03d38fb3          	mul	t6,t2,t4
  103110:	0105d793          	srli	a5,a1,0x10
  103114:	03028e33          	mul	t3,t0,a6
  103118:	9e7e                	add	t3,t3,t6
  10311a:	97f2                	add	a5,a5,t3
  10311c:	027289b3          	mul	s3,t0,t2
  103120:	01f7f363          	bgeu	a5,t6,103126 <__multf3+0x1ea>
  103124:	99ba                	add	s3,s3,a4
  103126:	0107d713          	srli	a4,a5,0x10
  10312a:	974e                	add	a4,a4,s3
  10312c:	6a41                	lui	s4,0x10
  10312e:	ca3a                	sw	a4,20(sp)
  103130:	fffa0713          	addi	a4,s4,-1 # ffff <_min_stack+0xdfff>
  103134:	5e62                	lw	t3,56(sp)
  103136:	8ff9                	and	a5,a5,a4
  103138:	8df9                	and	a1,a1,a4
  10313a:	07c2                	slli	a5,a5,0x10
  10313c:	97ae                	add	a5,a5,a1
  10313e:	cc3e                	sw	a5,24(sp)
  103140:	010e5793          	srli	a5,t3,0x10
  103144:	00ee7e33          	and	t3,t3,a4
  103148:	031e05b3          	mul	a1,t3,a7
  10314c:	03c90c33          	mul	s8,s2,t3
  103150:	0105d713          	srli	a4,a1,0x10
  103154:	031789b3          	mul	s3,a5,a7
  103158:	99e2                	add	s3,s3,s8
  10315a:	974e                	add	a4,a4,s3
  10315c:	02f90fb3          	mul	t6,s2,a5
  103160:	01877363          	bgeu	a4,s8,103166 <__multf3+0x22a>
  103164:	9fd2                	add	t6,t6,s4
  103166:	01075993          	srli	s3,a4,0x10
  10316a:	6cc1                	lui	s9,0x10
  10316c:	9fce                	add	t6,t6,s3
  10316e:	fffc8993          	addi	s3,s9,-1 # ffff <_min_stack+0xdfff>
  103172:	01377733          	and	a4,a4,s3
  103176:	0135f5b3          	and	a1,a1,s3
  10317a:	0742                	slli	a4,a4,0x10
  10317c:	972e                	add	a4,a4,a1
  10317e:	55a2                	lw	a1,40(sp)
  103180:	ce7e                	sw	t6,28(sp)
  103182:	0105df93          	srli	t6,a1,0x10
  103186:	0135f5b3          	and	a1,a1,s3
  10318a:	03e58a33          	mul	s4,a1,t5
  10318e:	03ef8d33          	mul	s10,t6,t5
  103192:	010a5d93          	srli	s11,s4,0x10
  103196:	02b489b3          	mul	s3,s1,a1
  10319a:	99ea                	add	s3,s3,s10
  10319c:	99ee                	add	s3,s3,s11
  10319e:	03f48c33          	mul	s8,s1,t6
  1031a2:	01a9f363          	bgeu	s3,s10,1031a8 <__multf3+0x26c>
  1031a6:	9c66                	add	s8,s8,s9
  1031a8:	96de                	add	a3,a3,s7
  1031aa:	0066b333          	sltu	t1,a3,t1
  1031ae:	0109dd13          	srli	s10,s3,0x10
  1031b2:	951a                	add	a0,a0,t1
  1031b4:	6cc1                	lui	s9,0x10
  1031b6:	955a                	add	a0,a0,s6
  1031b8:	9d62                	add	s10,s10,s8
  1031ba:	9636                	add	a2,a2,a3
  1031bc:	fffc8c13          	addi	s8,s9,-1 # ffff <_min_stack+0xdfff>
  1031c0:	9aaa                	add	s5,s5,a0
  1031c2:	0189f9b3          	and	s3,s3,s8
  1031c6:	00d636b3          	sltu	a3,a2,a3
  1031ca:	96d6                	add	a3,a3,s5
  1031cc:	09c2                	slli	s3,s3,0x10
  1031ce:	018a7a33          	and	s4,s4,s8
  1031d2:	9a4e                	add	s4,s4,s3
  1031d4:	00aab9b3          	sltu	s3,s5,a0
  1031d8:	0156bab3          	sltu	s5,a3,s5
  1031dc:	0159e9b3          	or	s3,s3,s5
  1031e0:	00653533          	sltu	a0,a0,t1
  1031e4:	954e                	add	a0,a0,s3
  1031e6:	4362                	lw	t1,24(sp)
  1031e8:	49d2                	lw	s3,20(sp)
  1031ea:	cab2                	sw	a2,84(sp)
  1031ec:	9336                	add	t1,t1,a3
  1031ee:	01350ab3          	add	s5,a0,s3
  1031f2:	49f2                	lw	s3,28(sp)
  1031f4:	00d336b3          	sltu	a3,t1,a3
  1031f8:	96d6                	add	a3,a3,s5
  1031fa:	971a                	add	a4,a4,t1
  1031fc:	01368b33          	add	s6,a3,s3
  103200:	00673333          	sltu	t1,a4,t1
  103204:	935a                	add	t1,t1,s6
  103206:	9a3a                	add	s4,s4,a4
  103208:	9d1a                	add	s10,s10,t1
  10320a:	00ea3733          	sltu	a4,s4,a4
  10320e:	00aab533          	sltu	a0,s5,a0
  103212:	976a                	add	a4,a4,s10
  103214:	0156bab3          	sltu	s5,a3,s5
  103218:	00db36b3          	sltu	a3,s6,a3
  10321c:	01633b33          	sltu	s6,t1,s6
  103220:	0166e6b3          	or	a3,a3,s6
  103224:	006d39b3          	sltu	s3,s10,t1
  103228:	01556ab3          	or	s5,a0,s5
  10322c:	01a73d33          	sltu	s10,a4,s10
  103230:	9ab6                	add	s5,s5,a3
  103232:	01a9e9b3          	or	s3,s3,s10
  103236:	99d6                	add	s3,s3,s5
  103238:	5af2                	lw	s5,60(sp)
  10323a:	ccd2                	sw	s4,88(sp)
  10323c:	010adb13          	srli	s6,s5,0x10
  103240:	018afab3          	and	s5,s5,s8
  103244:	031a86b3          	mul	a3,s5,a7
  103248:	03590533          	mul	a0,s2,s5
  10324c:	031b08b3          	mul	a7,s6,a7
  103250:	00a88333          	add	t1,a7,a0
  103254:	0106d893          	srli	a7,a3,0x10
  103258:	989a                	add	a7,a7,t1
  10325a:	03690933          	mul	s2,s2,s6
  10325e:	00a8f363          	bgeu	a7,a0,103264 <__multf3+0x328>
  103262:	9966                	add	s2,s2,s9
  103264:	5bb2                	lw	s7,44(sp)
  103266:	0108d513          	srli	a0,a7,0x10
  10326a:	954a                	add	a0,a0,s2
  10326c:	6c41                	lui	s8,0x10
  10326e:	ca2a                	sw	a0,20(sp)
  103270:	fffc0513          	addi	a0,s8,-1 # ffff <_min_stack+0xdfff>
  103274:	010bd913          	srli	s2,s7,0x10
  103278:	00abfbb3          	and	s7,s7,a0
  10327c:	8ee9                	and	a3,a3,a0
  10327e:	00a8f8b3          	and	a7,a7,a0
  103282:	03248333          	mul	t1,s1,s2
  103286:	08c2                	slli	a7,a7,0x10
  103288:	98b6                	add	a7,a7,a3
  10328a:	03eb8533          	mul	a0,s7,t5
  10328e:	037484b3          	mul	s1,s1,s7
  103292:	01055693          	srli	a3,a0,0x10
  103296:	03e90f33          	mul	t5,s2,t5
  10329a:	94fa                	add	s1,s1,t5
  10329c:	96a6                	add	a3,a3,s1
  10329e:	01e6f363          	bgeu	a3,t5,1032a4 <__multf3+0x368>
  1032a2:	9362                	add	t1,t1,s8
  1032a4:	0106df13          	srli	t5,a3,0x10
  1032a8:	6cc1                	lui	s9,0x10
  1032aa:	006f04b3          	add	s1,t5,t1
  1032ae:	fffc8313          	addi	t1,s9,-1 # ffff <_min_stack+0xdfff>
  1032b2:	00657533          	and	a0,a0,t1
  1032b6:	0066f6b3          	and	a3,a3,t1
  1032ba:	03c38f33          	mul	t5,t2,t3
  1032be:	cc26                	sw	s1,24(sp)
  1032c0:	06c2                	slli	a3,a3,0x10
  1032c2:	96aa                	add	a3,a3,a0
  1032c4:	03c80333          	mul	t1,a6,t3
  1032c8:	030784b3          	mul	s1,a5,a6
  1032cc:	01035513          	srli	a0,t1,0x10
  1032d0:	94fa                	add	s1,s1,t5
  1032d2:	9526                	add	a0,a0,s1
  1032d4:	02f38c33          	mul	s8,t2,a5
  1032d8:	01e57363          	bgeu	a0,t5,1032de <__multf3+0x3a2>
  1032dc:	9c66                	add	s8,s8,s9
  1032de:	6d41                	lui	s10,0x10
  1032e0:	fffd0f13          	addi	t5,s10,-1 # ffff <_min_stack+0xdfff>
  1032e4:	01055493          	srli	s1,a0,0x10
  1032e8:	01e57533          	and	a0,a0,t5
  1032ec:	01e37333          	and	t1,t1,t5
  1032f0:	0542                	slli	a0,a0,0x10
  1032f2:	94e2                	add	s1,s1,s8
  1032f4:	02b28f33          	mul	t5,t0,a1
  1032f8:	951a                	add	a0,a0,t1
  1032fa:	03df8c33          	mul	s8,t6,t4
  1032fe:	02be8333          	mul	t1,t4,a1
  103302:	9f62                	add	t5,t5,s8
  103304:	01035d93          	srli	s11,t1,0x10
  103308:	9f6e                	add	t5,t5,s11
  10330a:	03f28cb3          	mul	s9,t0,t6
  10330e:	018f7363          	bgeu	t5,s8,103314 <__multf3+0x3d8>
  103312:	9cea                	add	s9,s9,s10
  103314:	010f5c13          	srli	s8,t5,0x10
  103318:	9c66                	add	s8,s8,s9
  10331a:	6cc1                	lui	s9,0x10
  10331c:	fffc8d13          	addi	s10,s9,-1 # ffff <_min_stack+0xdfff>
  103320:	01af7f33          	and	t5,t5,s10
  103324:	0f42                	slli	t5,t5,0x10
  103326:	01a37333          	and	t1,t1,s10
  10332a:	937a                	add	t1,t1,t5
  10332c:	4f52                	lw	t5,20(sp)
  10332e:	98ba                	add	a7,a7,a4
  103330:	4d62                	lw	s10,24(sp)
  103332:	9f4e                	add	t5,t5,s3
  103334:	00e8b733          	sltu	a4,a7,a4
  103338:	977a                	add	a4,a4,t5
  10333a:	96c6                	add	a3,a3,a7
  10333c:	9d3a                	add	s10,s10,a4
  10333e:	0116b8b3          	sltu	a7,a3,a7
  103342:	98ea                	add	a7,a7,s10
  103344:	9536                	add	a0,a0,a3
  103346:	94c6                	add	s1,s1,a7
  103348:	00d536b3          	sltu	a3,a0,a3
  10334c:	96a6                	add	a3,a3,s1
  10334e:	013f39b3          	sltu	s3,t5,s3
  103352:	01e73f33          	sltu	t5,a4,t5
  103356:	00ed3733          	sltu	a4,s10,a4
  10335a:	01a8bd33          	sltu	s10,a7,s10
  10335e:	01e9ef33          	or	t5,s3,t5
  103362:	0114b8b3          	sltu	a7,s1,a7
  103366:	01a76733          	or	a4,a4,s10
  10336a:	0096b4b3          	sltu	s1,a3,s1
  10336e:	9c36                	add	s8,s8,a3
  103370:	977a                	add	a4,a4,t5
  103372:	0098e8b3          	or	a7,a7,s1
  103376:	00e884b3          	add	s1,a7,a4
  10337a:	03cf8f33          	mul	t5,t6,t3
  10337e:	00dc38b3          	sltu	a7,s8,a3
  103382:	932a                	add	t1,t1,a0
  103384:	00a33533          	sltu	a0,t1,a0
  103388:	9562                	add	a0,a0,s8
  10338a:	01853c33          	sltu	s8,a0,s8
  10338e:	0188e8b3          	or	a7,a7,s8
  103392:	ce9a                	sw	t1,92(sp)
  103394:	98a6                	add	a7,a7,s1
  103396:	02be06b3          	mul	a3,t3,a1
  10339a:	02b789b3          	mul	s3,a5,a1
  10339e:	0106d713          	srli	a4,a3,0x10
  1033a2:	99fa                	add	s3,s3,t5
  1033a4:	974e                	add	a4,a4,s3
  1033a6:	03f784b3          	mul	s1,a5,t6
  1033aa:	01e77363          	bgeu	a4,t5,1033b0 <__multf3+0x474>
  1033ae:	94e6                	add	s1,s1,s9
  1033b0:	01075f13          	srli	t5,a4,0x10
  1033b4:	9f26                	add	t5,t5,s1
  1033b6:	64c1                	lui	s1,0x10
  1033b8:	fff48993          	addi	s3,s1,-1 # ffff <_min_stack+0xdfff>
  1033bc:	01377733          	and	a4,a4,s3
  1033c0:	0136f6b3          	and	a3,a3,s3
  1033c4:	0742                	slli	a4,a4,0x10
  1033c6:	035389b3          	mul	s3,t2,s5
  1033ca:	9736                	add	a4,a4,a3
  1033cc:	030a86b3          	mul	a3,s5,a6
  1033d0:	030b0833          	mul	a6,s6,a6
  1033d4:	01380c33          	add	s8,a6,s3
  1033d8:	0106d813          	srli	a6,a3,0x10
  1033dc:	9862                	add	a6,a6,s8
  1033de:	036383b3          	mul	t2,t2,s6
  1033e2:	01387363          	bgeu	a6,s3,1033e8 <__multf3+0x4ac>
  1033e6:	93a6                	add	t2,t2,s1
  1033e8:	01085493          	srli	s1,a6,0x10
  1033ec:	6c41                	lui	s8,0x10
  1033ee:	93a6                	add	t2,t2,s1
  1033f0:	fffc0493          	addi	s1,s8,-1 # ffff <_min_stack+0xdfff>
  1033f4:	8ee5                	and	a3,a3,s1
  1033f6:	00987833          	and	a6,a6,s1
  1033fa:	0842                	slli	a6,a6,0x10
  1033fc:	03db89b3          	mul	s3,s7,t4
  103400:	9836                	add	a6,a6,a3
  103402:	03d90eb3          	mul	t4,s2,t4
  103406:	0109d693          	srli	a3,s3,0x10
  10340a:	032284b3          	mul	s1,t0,s2
  10340e:	037282b3          	mul	t0,t0,s7
  103412:	92f6                	add	t0,t0,t4
  103414:	9696                	add	a3,a3,t0
  103416:	01d6f363          	bgeu	a3,t4,10341c <__multf3+0x4e0>
  10341a:	94e2                	add	s1,s1,s8
  10341c:	0106de93          	srli	t4,a3,0x10
  103420:	9ea6                	add	t4,t4,s1
  103422:	64c1                	lui	s1,0x10
  103424:	fff48293          	addi	t0,s1,-1 # ffff <_min_stack+0xdfff>
  103428:	0056f6b3          	and	a3,a3,t0
  10342c:	0059f9b3          	and	s3,s3,t0
  103430:	06c2                	slli	a3,a3,0x10
  103432:	02ba82b3          	mul	t0,s5,a1
  103436:	96ce                	add	a3,a3,s3
  103438:	02bb05b3          	mul	a1,s6,a1
  10343c:	035f89b3          	mul	s3,t6,s5
  103440:	01358c33          	add	s8,a1,s3
  103444:	0102d593          	srli	a1,t0,0x10
  103448:	95e2                	add	a1,a1,s8
  10344a:	036f8fb3          	mul	t6,t6,s6
  10344e:	0135f363          	bgeu	a1,s3,103454 <__multf3+0x518>
  103452:	9fa6                	add	t6,t6,s1
  103454:	0105d493          	srli	s1,a1,0x10
  103458:	9fa6                	add	t6,t6,s1
  10345a:	64c1                	lui	s1,0x10
  10345c:	fff48993          	addi	s3,s1,-1 # ffff <_min_stack+0xdfff>
  103460:	0135f5b3          	and	a1,a1,s3
  103464:	0132f2b3          	and	t0,t0,s3
  103468:	05c2                	slli	a1,a1,0x10
  10346a:	032789b3          	mul	s3,a5,s2
  10346e:	9596                	add	a1,a1,t0
  103470:	037787b3          	mul	a5,a5,s7
  103474:	03cb82b3          	mul	t0,s7,t3
  103478:	03c90e33          	mul	t3,s2,t3
  10347c:	0102dc13          	srli	s8,t0,0x10
  103480:	97f2                	add	a5,a5,t3
  103482:	97e2                	add	a5,a5,s8
  103484:	01c7f363          	bgeu	a5,t3,10348a <__multf3+0x54e>
  103488:	99a6                	add	s3,s3,s1
  10348a:	972a                	add	a4,a4,a0
  10348c:	983a                	add	a6,a6,a4
  10348e:	9f46                	add	t5,t5,a7
  103490:	00a73533          	sltu	a0,a4,a0
  103494:	957a                	add	a0,a0,t5
  103496:	96c2                	add	a3,a3,a6
  103498:	93aa                	add	t2,t2,a0
  10349a:	00e83733          	sltu	a4,a6,a4
  10349e:	d0b6                	sw	a3,96(sp)
  1034a0:	0106b6b3          	sltu	a3,a3,a6
  1034a4:	037a8833          	mul	a6,s5,s7
  1034a8:	971e                	add	a4,a4,t2
  1034aa:	9eba                	add	t4,t4,a4
  1034ac:	96f6                	add	a3,a3,t4
  1034ae:	0107de13          	srli	t3,a5,0x10
  1034b2:	011f38b3          	sltu	a7,t5,a7
  1034b6:	64c1                	lui	s1,0x10
  1034b8:	01e53f33          	sltu	t5,a0,t5
  1034bc:	00a3b533          	sltu	a0,t2,a0
  1034c0:	007733b3          	sltu	t2,a4,t2
  1034c4:	03590ab3          	mul	s5,s2,s5
  1034c8:	9e4e                	add	t3,t3,s3
  1034ca:	00756533          	or	a0,a0,t2
  1034ce:	fff48993          	addi	s3,s1,-1 # ffff <_min_stack+0xdfff>
  1034d2:	00eeb733          	sltu	a4,t4,a4
  1034d6:	01e8e8b3          	or	a7,a7,t5
  1034da:	01d6beb3          	sltu	t4,a3,t4
  1034de:	98aa                	add	a7,a7,a0
  1034e0:	0137f7b3          	and	a5,a5,s3
  1034e4:	01d76733          	or	a4,a4,t4
  1034e8:	032b0933          	mul	s2,s6,s2
  1034ec:	95b6                	add	a1,a1,a3
  1034ee:	9746                	add	a4,a4,a7
  1034f0:	07c2                	slli	a5,a5,0x10
  1034f2:	0132f2b3          	and	t0,t0,s3
  1034f6:	9fba                	add	t6,t6,a4
  1034f8:	9796                	add	a5,a5,t0
  1034fa:	00d5b6b3          	sltu	a3,a1,a3
  1034fe:	96fe                	add	a3,a3,t6
  103500:	97ae                	add	a5,a5,a1
  103502:	037b0b33          	mul	s6,s6,s7
  103506:	00efb733          	sltu	a4,t6,a4
  10350a:	9e36                	add	t3,t3,a3
  10350c:	01f6bfb3          	sltu	t6,a3,t6
  103510:	d2be                	sw	a5,100(sp)
  103512:	00b7b7b3          	sltu	a5,a5,a1
  103516:	01f76533          	or	a0,a4,t6
  10351a:	97f2                	add	a5,a5,t3
  10351c:	01085713          	srli	a4,a6,0x10
  103520:	00de36b3          	sltu	a3,t3,a3
  103524:	9b56                	add	s6,s6,s5
  103526:	01c7be33          	sltu	t3,a5,t3
  10352a:	975a                	add	a4,a4,s6
  10352c:	01c6e6b3          	or	a3,a3,t3
  103530:	01577363          	bgeu	a4,s5,103536 <__multf3+0x5fa>
  103534:	9926                	add	s2,s2,s1
  103536:	01075593          	srli	a1,a4,0x10
  10353a:	95aa                	add	a1,a1,a0
  10353c:	6541                	lui	a0,0x10
  10353e:	157d                	addi	a0,a0,-1 # ffff <_min_stack+0xdfff>
  103540:	8f69                	and	a4,a4,a0
  103542:	0742                	slli	a4,a4,0x10
  103544:	00a87833          	and	a6,a6,a0
  103548:	9742                	add	a4,a4,a6
  10354a:	973e                	add	a4,a4,a5
  10354c:	96ae                	add	a3,a3,a1
  10354e:	00f737b3          	sltu	a5,a4,a5
  103552:	97b6                	add	a5,a5,a3
  103554:	97ca                	add	a5,a5,s2
  103556:	d6be                	sw	a5,108(sp)
  103558:	47c2                	lw	a5,16(sp)
  10355a:	0336                	slli	t1,t1,0xd
  10355c:	d4ba                	sw	a4,104(sp)
  10355e:	8fd1                	or	a5,a5,a2
  103560:	0147e7b3          	or	a5,a5,s4
  103564:	00f36333          	or	t1,t1,a5
  103568:	1090                	addi	a2,sp,96
  10356a:	089c                	addi	a5,sp,80
  10356c:	47d8                	lw	a4,12(a5)
  10356e:	4b94                	lw	a3,16(a5)
  103570:	834d                	srli	a4,a4,0x13
  103572:	06b6                	slli	a3,a3,0xd
  103574:	8f55                	or	a4,a4,a3
  103576:	c398                	sw	a4,0(a5)
  103578:	0791                	addi	a5,a5,4
  10357a:	fef619e3          	bne	a2,a5,10356c <__multf3+0x630>
  10357e:	47c6                	lw	a5,80(sp)
  103580:	00603333          	snez	t1,t1
  103584:	4776                	lw	a4,92(sp)
  103586:	00f36333          	or	t1,t1,a5
  10358a:	47e6                	lw	a5,88(sp)
  10358c:	c6ba                	sw	a4,76(sp)
  10358e:	c09a                	sw	t1,64(sp)
  103590:	c4be                	sw	a5,72(sp)
  103592:	47d6                	lw	a5,84(sp)
  103594:	c2be                	sw	a5,68(sp)
  103596:	00b71793          	slli	a5,a4,0xb
  10359a:	0207d863          	bgez	a5,1035ca <__multf3+0x68e>
  10359e:	037e                	slli	t1,t1,0x1f
  1035a0:	009c                	addi	a5,sp,64
  1035a2:	00ec                	addi	a1,sp,76
  1035a4:	4394                	lw	a3,0(a5)
  1035a6:	43d0                	lw	a2,4(a5)
  1035a8:	8285                	srli	a3,a3,0x1
  1035aa:	067e                	slli	a2,a2,0x1f
  1035ac:	8ed1                	or	a3,a3,a2
  1035ae:	c394                	sw	a3,0(a5)
  1035b0:	0791                	addi	a5,a5,4
  1035b2:	fef599e3          	bne	a1,a5,1035a4 <__multf3+0x668>
  1035b6:	4786                	lw	a5,64(sp)
  1035b8:	00603333          	snez	t1,t1
  1035bc:	8305                	srli	a4,a4,0x1
  1035be:	0067e7b3          	or	a5,a5,t1
  1035c2:	c0be                	sw	a5,64(sp)
  1035c4:	47a2                	lw	a5,8(sp)
  1035c6:	c6ba                	sw	a4,76(sp)
  1035c8:	c63e                	sw	a5,12(sp)
  1035ca:	47b2                	lw	a5,12(sp)
  1035cc:	c43e                	sw	a5,8(sp)
  1035ce:	ac61                	j	103866 <__multf3+0x92a>
  1035d0:	00a7e633          	or	a2,a5,a0
  1035d4:	8e55                	or	a2,a2,a3
  1035d6:	8e59                	or	a2,a2,a4
  1035d8:	10060063          	beqz	a2,1036d8 <__multf3+0x79c>
  1035dc:	cf35                	beqz	a4,103658 <__multf3+0x71c>
  1035de:	853a                	mv	a0,a4
  1035e0:	ffffd097          	auipc	ra,0xffffd
  1035e4:	af6080e7          	jalr	-1290(ra) # 1000d6 <__clzsi2>
  1035e8:	ff450713          	addi	a4,a0,-12
  1035ec:	40575593          	srai	a1,a4,0x5
  1035f0:	8b7d                	andi	a4,a4,31
  1035f2:	cf41                	beqz	a4,10368a <__multf3+0x74e>
  1035f4:	56f1                	li	a3,-4
  1035f6:	02d586b3          	mul	a3,a1,a3
  1035fa:	02000813          	li	a6,32
  1035fe:	02010313          	addi	t1,sp,32
  103602:	40e80833          	sub	a6,a6,a4
  103606:	00c68793          	addi	a5,a3,12 # 1000c <_stack_len+0xc>
  10360a:	979a                	add	a5,a5,t1
  10360c:	40d006b3          	neg	a3,a3
  103610:	08f31d63          	bne	t1,a5,1036aa <__multf3+0x76e>
  103614:	fff58793          	addi	a5,a1,-1
  103618:	058a                	slli	a1,a1,0x2
  10361a:	05058693          	addi	a3,a1,80
  10361e:	1010                	addi	a2,sp,32
  103620:	00c685b3          	add	a1,a3,a2
  103624:	5682                	lw	a3,32(sp)
  103626:	00e69733          	sll	a4,a3,a4
  10362a:	fae5a823          	sw	a4,-80(a1)
  10362e:	0785                	addi	a5,a5,1
  103630:	078a                	slli	a5,a5,0x2
  103632:	46a1                	li	a3,8
  103634:	1018                	addi	a4,sp,32
  103636:	00d7e863          	bltu	a5,a3,103646 <__multf3+0x70a>
  10363a:	00072023          	sw	zero,0(a4)
  10363e:	00072223          	sw	zero,4(a4)
  103642:	17e1                	addi	a5,a5,-8
  103644:	1038                	addi	a4,sp,40
  103646:	4691                	li	a3,4
  103648:	00d7e463          	bltu	a5,a3,103650 <__multf3+0x714>
  10364c:	00072023          	sw	zero,0(a4)
  103650:	74f1                	lui	s1,0xffffc
  103652:	04c5                	addi	s1,s1,17 # ffffc011 <fromhost+0xffe2c001>
  103654:	8c89                	sub	s1,s1,a0
  103656:	ba85                	j	102fc6 <__multf3+0x8a>
  103658:	ca89                	beqz	a3,10366a <__multf3+0x72e>
  10365a:	8536                	mv	a0,a3
  10365c:	ffffd097          	auipc	ra,0xffffd
  103660:	a7a080e7          	jalr	-1414(ra) # 1000d6 <__clzsi2>
  103664:	02050513          	addi	a0,a0,32
  103668:	b741                	j	1035e8 <__multf3+0x6ac>
  10366a:	c901                	beqz	a0,10367a <__multf3+0x73e>
  10366c:	ffffd097          	auipc	ra,0xffffd
  103670:	a6a080e7          	jalr	-1430(ra) # 1000d6 <__clzsi2>
  103674:	04050513          	addi	a0,a0,64
  103678:	bf85                	j	1035e8 <__multf3+0x6ac>
  10367a:	853e                	mv	a0,a5
  10367c:	ffffd097          	auipc	ra,0xffffd
  103680:	a5a080e7          	jalr	-1446(ra) # 1000d6 <__clzsi2>
  103684:	06050513          	addi	a0,a0,96
  103688:	b785                	j	1035e8 <__multf3+0x6ac>
  10368a:	56f1                	li	a3,-4
  10368c:	02d586b3          	mul	a3,a1,a3
  103690:	107c                	addi	a5,sp,44
  103692:	470d                	li	a4,3
  103694:	00d78633          	add	a2,a5,a3
  103698:	4210                	lw	a2,0(a2)
  10369a:	177d                	addi	a4,a4,-1
  10369c:	17f1                	addi	a5,a5,-4
  10369e:	c3d0                	sw	a2,4(a5)
  1036a0:	feb75ae3          	bge	a4,a1,103694 <__multf3+0x758>
  1036a4:	fff58793          	addi	a5,a1,-1
  1036a8:	b759                	j	10362e <__multf3+0x6f2>
  1036aa:	4390                	lw	a2,0(a5)
  1036ac:	ffc7a883          	lw	a7,-4(a5)
  1036b0:	00d78e33          	add	t3,a5,a3
  1036b4:	00e61633          	sll	a2,a2,a4
  1036b8:	0108d8b3          	srl	a7,a7,a6
  1036bc:	01166633          	or	a2,a2,a7
  1036c0:	00ce2023          	sw	a2,0(t3)
  1036c4:	17f1                	addi	a5,a5,-4
  1036c6:	b7a9                	j	103610 <__multf3+0x6d4>
  1036c8:	8fc9                	or	a5,a5,a0
  1036ca:	8fd5                	or	a5,a5,a3
  1036cc:	8fd9                	or	a5,a5,a4
  1036ce:	4b89                	li	s7,2
  1036d0:	8e078ce3          	beqz	a5,102fc8 <__multf3+0x8c>
  1036d4:	4b8d                	li	s7,3
  1036d6:	b8cd                	j	102fc8 <__multf3+0x8c>
  1036d8:	4481                	li	s1,0
  1036da:	4b85                	li	s7,1
  1036dc:	b0f5                	j	102fc8 <__multf3+0x8c>
  1036de:	016967b3          	or	a5,s2,s6
  1036e2:	0157e7b3          	or	a5,a5,s5
  1036e6:	8fc9                	or	a5,a5,a0
  1036e8:	10078563          	beqz	a5,1037f2 <__multf3+0x8b6>
  1036ec:	cd2d                	beqz	a0,103766 <__multf3+0x82a>
  1036ee:	ffffd097          	auipc	ra,0xffffd
  1036f2:	9e8080e7          	jalr	-1560(ra) # 1000d6 <__clzsi2>
  1036f6:	ff450693          	addi	a3,a0,-12
  1036fa:	4056d793          	srai	a5,a3,0x5
  1036fe:	8afd                	andi	a3,a3,31
  103700:	ced9                	beqz	a3,10379e <__multf3+0x862>
  103702:	5671                	li	a2,-4
  103704:	02c78633          	mul	a2,a5,a2
  103708:	02000813          	li	a6,32
  10370c:	03010313          	addi	t1,sp,48
  103710:	40d80833          	sub	a6,a6,a3
  103714:	00c60713          	addi	a4,a2,12
  103718:	971a                	add	a4,a4,t1
  10371a:	40c00633          	neg	a2,a2
  10371e:	0ae31063          	bne	t1,a4,1037be <__multf3+0x882>
  103722:	fff78713          	addi	a4,a5,-1
  103726:	078a                	slli	a5,a5,0x2
  103728:	1010                	addi	a2,sp,32
  10372a:	05078793          	addi	a5,a5,80
  10372e:	97b2                	add	a5,a5,a2
  103730:	5642                	lw	a2,48(sp)
  103732:	00d616b3          	sll	a3,a2,a3
  103736:	fcd7a023          	sw	a3,-64(a5)
  10373a:	00170793          	addi	a5,a4,1
  10373e:	078a                	slli	a5,a5,0x2
  103740:	46a1                	li	a3,8
  103742:	1818                	addi	a4,sp,48
  103744:	00d7e863          	bltu	a5,a3,103754 <__multf3+0x818>
  103748:	00072023          	sw	zero,0(a4)
  10374c:	00072223          	sw	zero,4(a4)
  103750:	17e1                	addi	a5,a5,-8
  103752:	1838                	addi	a4,sp,56
  103754:	4691                	li	a3,4
  103756:	00d7e463          	bltu	a5,a3,10375e <__multf3+0x822>
  10375a:	00072023          	sw	zero,0(a4)
  10375e:	77f1                	lui	a5,0xffffc
  103760:	07c5                	addi	a5,a5,17 # ffffc011 <fromhost+0xffe2c001>
  103762:	8f89                	sub	a5,a5,a0
  103764:	b85d                	j	10301a <__multf3+0xde>
  103766:	000a8a63          	beqz	s5,10377a <__multf3+0x83e>
  10376a:	8556                	mv	a0,s5
  10376c:	ffffd097          	auipc	ra,0xffffd
  103770:	96a080e7          	jalr	-1686(ra) # 1000d6 <__clzsi2>
  103774:	02050513          	addi	a0,a0,32
  103778:	bfbd                	j	1036f6 <__multf3+0x7ba>
  10377a:	000b0a63          	beqz	s6,10378e <__multf3+0x852>
  10377e:	855a                	mv	a0,s6
  103780:	ffffd097          	auipc	ra,0xffffd
  103784:	956080e7          	jalr	-1706(ra) # 1000d6 <__clzsi2>
  103788:	04050513          	addi	a0,a0,64
  10378c:	b7ad                	j	1036f6 <__multf3+0x7ba>
  10378e:	854a                	mv	a0,s2
  103790:	ffffd097          	auipc	ra,0xffffd
  103794:	946080e7          	jalr	-1722(ra) # 1000d6 <__clzsi2>
  103798:	06050513          	addi	a0,a0,96
  10379c:	bfa9                	j	1036f6 <__multf3+0x7ba>
  10379e:	5671                	li	a2,-4
  1037a0:	02c78633          	mul	a2,a5,a2
  1037a4:	1878                	addi	a4,sp,60
  1037a6:	468d                	li	a3,3
  1037a8:	00c705b3          	add	a1,a4,a2
  1037ac:	418c                	lw	a1,0(a1)
  1037ae:	16fd                	addi	a3,a3,-1
  1037b0:	1771                	addi	a4,a4,-4
  1037b2:	c34c                	sw	a1,4(a4)
  1037b4:	fef6dae3          	bge	a3,a5,1037a8 <__multf3+0x86c>
  1037b8:	fff78713          	addi	a4,a5,-1
  1037bc:	bfbd                	j	10373a <__multf3+0x7fe>
  1037be:	430c                	lw	a1,0(a4)
  1037c0:	ffc72883          	lw	a7,-4(a4)
  1037c4:	00c70e33          	add	t3,a4,a2
  1037c8:	00d595b3          	sll	a1,a1,a3
  1037cc:	0108d8b3          	srl	a7,a7,a6
  1037d0:	0115e5b3          	or	a1,a1,a7
  1037d4:	00be2023          	sw	a1,0(t3)
  1037d8:	1771                	addi	a4,a4,-4
  1037da:	b791                	j	10371e <__multf3+0x7e2>
  1037dc:	01696933          	or	s2,s2,s6
  1037e0:	01596933          	or	s2,s2,s5
  1037e4:	00a96933          	or	s2,s2,a0
  1037e8:	4689                	li	a3,2
  1037ea:	820909e3          	beqz	s2,10301c <__multf3+0xe0>
  1037ee:	468d                	li	a3,3
  1037f0:	b035                	j	10301c <__multf3+0xe0>
  1037f2:	4781                	li	a5,0
  1037f4:	4685                	li	a3,1
  1037f6:	b01d                	j	10301c <__multf3+0xe0>
  1037f8:	4705                	li	a4,1
  1037fa:	00f717b3          	sll	a5,a4,a5
  1037fe:	5307f713          	andi	a4,a5,1328
  103802:	e329                	bnez	a4,103844 <__multf3+0x908>
  103804:	0887f713          	andi	a4,a5,136
  103808:	e705                	bnez	a4,103830 <__multf3+0x8f4>
  10380a:	2407f793          	andi	a5,a5,576
  10380e:	82078be3          	beqz	a5,103044 <__multf3+0x108>
  103812:	67a1                	lui	a5,0x8
  103814:	c6be                	sw	a5,76(sp)
  103816:	c482                	sw	zero,72(sp)
  103818:	c282                	sw	zero,68(sp)
  10381a:	c082                	sw	zero,64(sp)
  10381c:	17fd                	addi	a5,a5,-1 # 7fff <_min_stack+0x5fff>
  10381e:	c202                	sw	zero,4(sp)
  103820:	a0d1                	j	1038e4 <__multf3+0x9a8>
  103822:	473d                	li	a4,15
  103824:	fee787e3          	beq	a5,a4,103812 <__multf3+0x8d6>
  103828:	472d                	li	a4,11
  10382a:	c252                	sw	s4,4(sp)
  10382c:	00e79c63          	bne	a5,a4,103844 <__multf3+0x908>
  103830:	c24e                	sw	s3,4(sp)
  103832:	57c2                	lw	a5,48(sp)
  103834:	8bb6                	mv	s7,a3
  103836:	c0be                	sw	a5,64(sp)
  103838:	57d2                	lw	a5,52(sp)
  10383a:	c2be                	sw	a5,68(sp)
  10383c:	57e2                	lw	a5,56(sp)
  10383e:	c4be                	sw	a5,72(sp)
  103840:	57f2                	lw	a5,60(sp)
  103842:	a801                	j	103852 <__multf3+0x916>
  103844:	5782                	lw	a5,32(sp)
  103846:	c0be                	sw	a5,64(sp)
  103848:	5792                	lw	a5,36(sp)
  10384a:	c2be                	sw	a5,68(sp)
  10384c:	57a2                	lw	a5,40(sp)
  10384e:	c4be                	sw	a5,72(sp)
  103850:	57b2                	lw	a5,44(sp)
  103852:	c6be                	sw	a5,76(sp)
  103854:	4789                	li	a5,2
  103856:	22fb8d63          	beq	s7,a5,103a90 <__multf3+0xb54>
  10385a:	478d                	li	a5,3
  10385c:	fafb8be3          	beq	s7,a5,103812 <__multf3+0x8d6>
  103860:	4785                	li	a5,1
  103862:	22fb8263          	beq	s7,a5,103a86 <__multf3+0xb4a>
  103866:	4722                	lw	a4,8(sp)
  103868:	6791                	lui	a5,0x4
  10386a:	17fd                	addi	a5,a5,-1 # 3fff <_min_stack+0x1fff>
  10386c:	97ba                	add	a5,a5,a4
  10386e:	0af05b63          	blez	a5,103924 <__multf3+0x9e8>
  103872:	4706                	lw	a4,64(sp)
  103874:	00777693          	andi	a3,a4,7
  103878:	c69d                	beqz	a3,1038a6 <__multf3+0x96a>
  10387a:	00f77693          	andi	a3,a4,15
  10387e:	4611                	li	a2,4
  103880:	02c68363          	beq	a3,a2,1038a6 <__multf3+0x96a>
  103884:	0711                	addi	a4,a4,4
  103886:	00473693          	sltiu	a3,a4,4
  10388a:	c0ba                	sw	a4,64(sp)
  10388c:	4716                	lw	a4,68(sp)
  10388e:	9736                	add	a4,a4,a3
  103890:	c2ba                	sw	a4,68(sp)
  103892:	00d73733          	sltu	a4,a4,a3
  103896:	46a6                	lw	a3,72(sp)
  103898:	9736                	add	a4,a4,a3
  10389a:	c4ba                	sw	a4,72(sp)
  10389c:	00d73733          	sltu	a4,a4,a3
  1038a0:	46b6                	lw	a3,76(sp)
  1038a2:	9736                	add	a4,a4,a3
  1038a4:	c6ba                	sw	a4,76(sp)
  1038a6:	4736                	lw	a4,76(sp)
  1038a8:	00b71693          	slli	a3,a4,0xb
  1038ac:	0006da63          	bgez	a3,1038c0 <__multf3+0x984>
  1038b0:	fff007b7          	lui	a5,0xfff00
  1038b4:	17fd                	addi	a5,a5,-1 # ffefffff <fromhost+0xffd2ffef>
  1038b6:	8f7d                	and	a4,a4,a5
  1038b8:	c6ba                	sw	a4,76(sp)
  1038ba:	4722                	lw	a4,8(sp)
  1038bc:	6791                	lui	a5,0x4
  1038be:	97ba                	add	a5,a5,a4
  1038c0:	0098                	addi	a4,sp,64
  1038c2:	00ec                	addi	a1,sp,76
  1038c4:	4314                	lw	a3,0(a4)
  1038c6:	4350                	lw	a2,4(a4)
  1038c8:	828d                	srli	a3,a3,0x3
  1038ca:	0676                	slli	a2,a2,0x1d
  1038cc:	8ed1                	or	a3,a3,a2
  1038ce:	c314                	sw	a3,0(a4)
  1038d0:	0711                	addi	a4,a4,4
  1038d2:	fee599e3          	bne	a1,a4,1038c4 <__multf3+0x988>
  1038d6:	66a1                	lui	a3,0x8
  1038d8:	16f9                	addi	a3,a3,-2 # 7ffe <_min_stack+0x5ffe>
  1038da:	4736                	lw	a4,76(sp)
  1038dc:	1af6ca63          	blt	a3,a5,103a90 <__multf3+0xb54>
  1038e0:	830d                	srli	a4,a4,0x3
  1038e2:	c6ba                	sw	a4,76(sp)
  1038e4:	4736                	lw	a4,76(sp)
  1038e6:	4586                	lw	a1,64(sp)
  1038e8:	4616                	lw	a2,68(sp)
  1038ea:	04e11e23          	sh	a4,92(sp)
  1038ee:	4712                	lw	a4,4(sp)
  1038f0:	46a6                	lw	a3,72(sp)
  1038f2:	50ba                	lw	ra,172(sp)
  1038f4:	073e                	slli	a4,a4,0xf
  1038f6:	8fd9                	or	a5,a5,a4
  1038f8:	04f11f23          	sh	a5,94(sp)
  1038fc:	47f6                	lw	a5,92(sp)
  1038fe:	c00c                	sw	a1,0(s0)
  103900:	c050                	sw	a2,4(s0)
  103902:	c414                	sw	a3,8(s0)
  103904:	c45c                	sw	a5,12(s0)
  103906:	8522                	mv	a0,s0
  103908:	542a                	lw	s0,168(sp)
  10390a:	549a                	lw	s1,164(sp)
  10390c:	590a                	lw	s2,160(sp)
  10390e:	49fa                	lw	s3,156(sp)
  103910:	4a6a                	lw	s4,152(sp)
  103912:	4ada                	lw	s5,148(sp)
  103914:	4b4a                	lw	s6,144(sp)
  103916:	4bba                	lw	s7,140(sp)
  103918:	4c2a                	lw	s8,136(sp)
  10391a:	4c9a                	lw	s9,132(sp)
  10391c:	4d0a                	lw	s10,128(sp)
  10391e:	5df6                	lw	s11,124(sp)
  103920:	614d                	addi	sp,sp,176
  103922:	8082                	ret
  103924:	4685                	li	a3,1
  103926:	8e9d                	sub	a3,a3,a5
  103928:	07400793          	li	a5,116
  10392c:	14d7c563          	blt	a5,a3,103a76 <__multf3+0xb3a>
  103930:	0090                	addi	a2,sp,64
  103932:	4056d713          	srai	a4,a3,0x5
  103936:	8532                	mv	a0,a2
  103938:	8afd                	andi	a3,a3,31
  10393a:	4781                	li	a5,0
  10393c:	4581                	li	a1,0
  10393e:	02e59663          	bne	a1,a4,10396a <__multf3+0xa2e>
  103942:	458d                	li	a1,3
  103944:	8d99                	sub	a1,a1,a4
  103946:	00271513          	slli	a0,a4,0x2
  10394a:	e69d                	bnez	a3,103978 <__multf3+0xa3c>
  10394c:	8832                	mv	a6,a2
  10394e:	00a808b3          	add	a7,a6,a0
  103952:	0008a883          	lw	a7,0(a7) # 10000 <_stack_len>
  103956:	0685                	addi	a3,a3,1
  103958:	0811                	addi	a6,a6,4
  10395a:	ff182e23          	sw	a7,-4(a6)
  10395e:	fed5d8e3          	bge	a1,a3,10394e <__multf3+0xa12>
  103962:	4691                	li	a3,4
  103964:	40e68733          	sub	a4,a3,a4
  103968:	a899                	j	1039be <__multf3+0xa82>
  10396a:	00052803          	lw	a6,0(a0)
  10396e:	0585                	addi	a1,a1,1
  103970:	0511                	addi	a0,a0,4
  103972:	0107e7b3          	or	a5,a5,a6
  103976:	b7e1                	j	10393e <__multf3+0xa02>
  103978:	05050493          	addi	s1,a0,80
  10397c:	02010813          	addi	a6,sp,32
  103980:	9826                	add	a6,a6,s1
  103982:	fd082803          	lw	a6,-48(a6)
  103986:	02000313          	li	t1,32
  10398a:	40d30333          	sub	t1,t1,a3
  10398e:	00681833          	sll	a6,a6,t1
  103992:	0107e7b3          	or	a5,a5,a6
  103996:	4e01                	li	t3,0
  103998:	00a60833          	add	a6,a2,a0
  10399c:	40a00533          	neg	a0,a0
  1039a0:	08be4b63          	blt	t3,a1,103a36 <__multf3+0xafa>
  1039a4:	4511                	li	a0,4
  1039a6:	058a                	slli	a1,a1,0x2
  1039a8:	40e50733          	sub	a4,a0,a4
  1039ac:	05058593          	addi	a1,a1,80
  1039b0:	1008                	addi	a0,sp,32
  1039b2:	95aa                	add	a1,a1,a0
  1039b4:	4536                	lw	a0,76(sp)
  1039b6:	00d556b3          	srl	a3,a0,a3
  1039ba:	fcd5a823          	sw	a3,-48(a1)
  1039be:	4691                	li	a3,4
  1039c0:	8e99                	sub	a3,a3,a4
  1039c2:	068a                	slli	a3,a3,0x2
  1039c4:	070a                	slli	a4,a4,0x2
  1039c6:	45a1                	li	a1,8
  1039c8:	9732                	add	a4,a4,a2
  1039ca:	00b6e863          	bltu	a3,a1,1039da <__multf3+0xa9e>
  1039ce:	00072023          	sw	zero,0(a4)
  1039d2:	00072223          	sw	zero,4(a4)
  1039d6:	16e1                	addi	a3,a3,-8
  1039d8:	0721                	addi	a4,a4,8
  1039da:	4591                	li	a1,4
  1039dc:	00b6e463          	bltu	a3,a1,1039e4 <__multf3+0xaa8>
  1039e0:	00072023          	sw	zero,0(a4)
  1039e4:	4706                	lw	a4,64(sp)
  1039e6:	00f037b3          	snez	a5,a5
  1039ea:	8fd9                	or	a5,a5,a4
  1039ec:	c0be                	sw	a5,64(sp)
  1039ee:	0077f713          	andi	a4,a5,7
  1039f2:	c71d                	beqz	a4,103a20 <__multf3+0xae4>
  1039f4:	00f7f713          	andi	a4,a5,15
  1039f8:	4691                	li	a3,4
  1039fa:	02d70363          	beq	a4,a3,103a20 <__multf3+0xae4>
  1039fe:	4716                	lw	a4,68(sp)
  103a00:	0791                	addi	a5,a5,4 # 4004 <_min_stack+0x2004>
  103a02:	c0be                	sw	a5,64(sp)
  103a04:	0047b793          	sltiu	a5,a5,4
  103a08:	97ba                	add	a5,a5,a4
  103a0a:	c2be                	sw	a5,68(sp)
  103a0c:	00e7b7b3          	sltu	a5,a5,a4
  103a10:	4726                	lw	a4,72(sp)
  103a12:	97ba                	add	a5,a5,a4
  103a14:	c4be                	sw	a5,72(sp)
  103a16:	00e7b7b3          	sltu	a5,a5,a4
  103a1a:	4736                	lw	a4,76(sp)
  103a1c:	97ba                	add	a5,a5,a4
  103a1e:	c6be                	sw	a5,76(sp)
  103a20:	4736                	lw	a4,76(sp)
  103a22:	00c71793          	slli	a5,a4,0xc
  103a26:	0207d963          	bgez	a5,103a58 <__multf3+0xb1c>
  103a2a:	c682                	sw	zero,76(sp)
  103a2c:	c482                	sw	zero,72(sp)
  103a2e:	c282                	sw	zero,68(sp)
  103a30:	c082                	sw	zero,64(sp)
  103a32:	4785                	li	a5,1
  103a34:	bd45                	j	1038e4 <__multf3+0x9a8>
  103a36:	00082883          	lw	a7,0(a6)
  103a3a:	00482e83          	lw	t4,4(a6)
  103a3e:	00a80f33          	add	t5,a6,a0
  103a42:	00d8d8b3          	srl	a7,a7,a3
  103a46:	006e9eb3          	sll	t4,t4,t1
  103a4a:	01d8e8b3          	or	a7,a7,t4
  103a4e:	011f2023          	sw	a7,0(t5)
  103a52:	0e05                	addi	t3,t3,1
  103a54:	0811                	addi	a6,a6,4
  103a56:	b7a9                	j	1039a0 <__multf3+0xa64>
  103a58:	00c60593          	addi	a1,a2,12
  103a5c:	421c                	lw	a5,0(a2)
  103a5e:	4254                	lw	a3,4(a2)
  103a60:	838d                	srli	a5,a5,0x3
  103a62:	06f6                	slli	a3,a3,0x1d
  103a64:	8fd5                	or	a5,a5,a3
  103a66:	c21c                	sw	a5,0(a2)
  103a68:	0611                	addi	a2,a2,4
  103a6a:	fec599e3          	bne	a1,a2,103a5c <__multf3+0xb20>
  103a6e:	830d                	srli	a4,a4,0x3
  103a70:	c6ba                	sw	a4,76(sp)
  103a72:	4781                	li	a5,0
  103a74:	bd85                	j	1038e4 <__multf3+0x9a8>
  103a76:	4716                	lw	a4,68(sp)
  103a78:	4786                	lw	a5,64(sp)
  103a7a:	8fd9                	or	a5,a5,a4
  103a7c:	4726                	lw	a4,72(sp)
  103a7e:	8fd9                	or	a5,a5,a4
  103a80:	4736                	lw	a4,76(sp)
  103a82:	8fd9                	or	a5,a5,a4
  103a84:	d7fd                	beqz	a5,103a72 <__multf3+0xb36>
  103a86:	c682                	sw	zero,76(sp)
  103a88:	c482                	sw	zero,72(sp)
  103a8a:	c282                	sw	zero,68(sp)
  103a8c:	c082                	sw	zero,64(sp)
  103a8e:	b7d5                	j	103a72 <__multf3+0xb36>
  103a90:	67a1                	lui	a5,0x8
  103a92:	c682                	sw	zero,76(sp)
  103a94:	c482                	sw	zero,72(sp)
  103a96:	c282                	sw	zero,68(sp)
  103a98:	c082                	sw	zero,64(sp)
  103a9a:	17fd                	addi	a5,a5,-1 # 7fff <_min_stack+0x5fff>
  103a9c:	b5a1                	j	1038e4 <__multf3+0x9a8>

00103a9e <__subtf3>:
  103a9e:	7159                	addi	sp,sp,-112
  103aa0:	4598                	lw	a4,8(a1)
  103aa2:	cad6                	sw	s5,84(sp)
  103aa4:	00c5aa83          	lw	s5,12(a1)
  103aa8:	419c                	lw	a5,0(a1)
  103aaa:	41d4                	lw	a3,4(a1)
  103aac:	dc3a                	sw	a4,56(sp)
  103aae:	cc3a                	sw	a4,24(sp)
  103ab0:	010a9713          	slli	a4,s5,0x10
  103ab4:	8341                	srli	a4,a4,0x10
  103ab6:	00462883          	lw	a7,4(a2)
  103aba:	00862803          	lw	a6,8(a2)
  103abe:	d4a2                	sw	s0,104(sp)
  103ac0:	d2a6                	sw	s1,100(sp)
  103ac2:	4200                	lw	s0,0(a2)
  103ac4:	001a9493          	slli	s1,s5,0x1
  103ac8:	d0ca                	sw	s2,96(sp)
  103aca:	00c62903          	lw	s2,12(a2)
  103ace:	0810                	addi	a2,sp,16
  103ad0:	ccd2                	sw	s4,88(sp)
  103ad2:	de56                	sw	s5,60(sp)
  103ad4:	8a2a                	mv	s4,a0
  103ad6:	ce3a                	sw	a4,28(sp)
  103ad8:	d686                	sw	ra,108(sp)
  103ada:	cece                	sw	s3,92(sp)
  103adc:	c8da                	sw	s6,80(sp)
  103ade:	c6de                	sw	s7,76(sp)
  103ae0:	c4e2                	sw	s8,72(sp)
  103ae2:	d83e                	sw	a5,48(sp)
  103ae4:	da36                	sw	a3,52(sp)
  103ae6:	c83e                	sw	a5,16(sp)
  103ae8:	ca36                	sw	a3,20(sp)
  103aea:	80c5                	srli	s1,s1,0x11
  103aec:	01fada93          	srli	s5,s5,0x1f
  103af0:	00410313          	addi	t1,sp,4
  103af4:	8732                	mv	a4,a2
  103af6:	8532                	mv	a0,a2
  103af8:	4754                	lw	a3,12(a4)
  103afa:	470c                	lw	a1,8(a4)
  103afc:	1771                	addi	a4,a4,-4
  103afe:	068e                	slli	a3,a3,0x3
  103b00:	81f5                	srli	a1,a1,0x1d
  103b02:	8ecd                	or	a3,a3,a1
  103b04:	cb14                	sw	a3,16(a4)
  103b06:	fee319e3          	bne	t1,a4,103af8 <__subtf3+0x5a>
  103b0a:	01091713          	slli	a4,s2,0x10
  103b0e:	8341                	srli	a4,a4,0x10
  103b10:	00191b93          	slli	s7,s2,0x1
  103b14:	02010313          	addi	t1,sp,32
  103b18:	078e                	slli	a5,a5,0x3
  103b1a:	da46                	sw	a7,52(sp)
  103b1c:	dc42                	sw	a6,56(sp)
  103b1e:	de4a                	sw	s2,60(sp)
  103b20:	d246                	sw	a7,36(sp)
  103b22:	d442                	sw	a6,40(sp)
  103b24:	d63a                	sw	a4,44(sp)
  103b26:	c83e                	sw	a5,16(sp)
  103b28:	d822                	sw	s0,48(sp)
  103b2a:	d022                	sw	s0,32(sp)
  103b2c:	011bdb93          	srli	s7,s7,0x11
  103b30:	01f95913          	srli	s2,s2,0x1f
  103b34:	01410893          	addi	a7,sp,20
  103b38:	871a                	mv	a4,t1
  103b3a:	881a                	mv	a6,t1
  103b3c:	4754                	lw	a3,12(a4)
  103b3e:	470c                	lw	a1,8(a4)
  103b40:	1771                	addi	a4,a4,-4
  103b42:	068e                	slli	a3,a3,0x3
  103b44:	81f5                	srli	a1,a1,0x1d
  103b46:	8ecd                	or	a3,a3,a1
  103b48:	cb14                	sw	a3,16(a4)
  103b4a:	fee899e3          	bne	a7,a4,103b3c <__subtf3+0x9e>
  103b4e:	040e                	slli	s0,s0,0x3
  103b50:	6721                	lui	a4,0x8
  103b52:	d022                	sw	s0,32(sp)
  103b54:	177d                	addi	a4,a4,-1 # 7fff <_min_stack+0x5fff>
  103b56:	00eb9963          	bne	s7,a4,103b68 <__subtf3+0xca>
  103b5a:	56a2                	lw	a3,40(sp)
  103b5c:	5712                	lw	a4,36(sp)
  103b5e:	8f55                	or	a4,a4,a3
  103b60:	56b2                	lw	a3,44(sp)
  103b62:	8f55                	or	a4,a4,a3
  103b64:	8f41                	or	a4,a4,s0
  103b66:	e319                	bnez	a4,103b6c <__subtf3+0xce>
  103b68:	00194913          	xori	s2,s2,1
  103b6c:	417488b3          	sub	a7,s1,s7
  103b70:	59591563          	bne	s2,s5,1040fa <__subtf3+0x65c>
  103b74:	2b105f63          	blez	a7,103e32 <__subtf3+0x394>
  103b78:	4952                	lw	s2,20(sp)
  103b7a:	49e2                	lw	s3,24(sp)
  103b7c:	4b72                	lw	s6,28(sp)
  103b7e:	060b9163          	bnez	s7,103be0 <__subtf3+0x142>
  103b82:	5692                	lw	a3,36(sp)
  103b84:	5722                	lw	a4,40(sp)
  103b86:	55b2                	lw	a1,44(sp)
  103b88:	00e6e633          	or	a2,a3,a4
  103b8c:	8e4d                	or	a2,a2,a1
  103b8e:	8e41                	or	a2,a2,s0
  103b90:	e619                	bnez	a2,103b9e <__subtf3+0x100>
  103b92:	d83e                	sw	a5,48(sp)
  103b94:	da4a                	sw	s2,52(sp)
  103b96:	dc4e                	sw	s3,56(sp)
  103b98:	de5a                	sw	s6,60(sp)
  103b9a:	84c6                	mv	s1,a7
  103b9c:	a891                	j	103bf0 <__subtf3+0x152>
  103b9e:	fff88613          	addi	a2,a7,-1
  103ba2:	ea0d                	bnez	a2,103bd4 <__subtf3+0x136>
  103ba4:	943e                	add	s0,s0,a5
  103ba6:	9936                	add	s2,s2,a3
  103ba8:	d822                	sw	s0,48(sp)
  103baa:	00f43433          	sltu	s0,s0,a5
  103bae:	944a                	add	s0,s0,s2
  103bb0:	da22                	sw	s0,52(sp)
  103bb2:	00d936b3          	sltu	a3,s2,a3
  103bb6:	01243433          	sltu	s0,s0,s2
  103bba:	99ba                	add	s3,s3,a4
  103bbc:	8ec1                	or	a3,a3,s0
  103bbe:	96ce                	add	a3,a3,s3
  103bc0:	dc36                	sw	a3,56(sp)
  103bc2:	00e9b7b3          	sltu	a5,s3,a4
  103bc6:	0136b6b3          	sltu	a3,a3,s3
  103bca:	8fd5                	or	a5,a5,a3
  103bcc:	95da                	add	a1,a1,s6
  103bce:	97ae                	add	a5,a5,a1
  103bd0:	4485                	li	s1,1
  103bd2:	a2fd                	j	103dc0 <__subtf3+0x322>
  103bd4:	6721                	lui	a4,0x8
  103bd6:	177d                	addi	a4,a4,-1 # 7fff <_min_stack+0x5fff>
  103bd8:	4ce895e3          	bne	a7,a4,1048a2 <__subtf3+0xe04>
  103bdc:	d83e                	sw	a5,48(sp)
  103bde:	a4c1                	j	103e9e <__subtf3+0x400>
  103be0:	6721                	lui	a4,0x8
  103be2:	177d                	addi	a4,a4,-1 # 7fff <_min_stack+0x5fff>
  103be4:	0ee49163          	bne	s1,a4,103cc6 <__subtf3+0x228>
  103be8:	d83e                	sw	a5,48(sp)
  103bea:	da4a                	sw	s2,52(sp)
  103bec:	dc4e                	sw	s3,56(sp)
  103bee:	de5a                	sw	s6,60(sp)
  103bf0:	57c2                	lw	a5,48(sp)
  103bf2:	0077f713          	andi	a4,a5,7
  103bf6:	c71d                	beqz	a4,103c24 <__subtf3+0x186>
  103bf8:	00f7f713          	andi	a4,a5,15
  103bfc:	4691                	li	a3,4
  103bfe:	02d70363          	beq	a4,a3,103c24 <__subtf3+0x186>
  103c02:	5752                	lw	a4,52(sp)
  103c04:	0791                	addi	a5,a5,4
  103c06:	d83e                	sw	a5,48(sp)
  103c08:	0047b793          	sltiu	a5,a5,4
  103c0c:	97ba                	add	a5,a5,a4
  103c0e:	da3e                	sw	a5,52(sp)
  103c10:	00e7b7b3          	sltu	a5,a5,a4
  103c14:	5762                	lw	a4,56(sp)
  103c16:	97ba                	add	a5,a5,a4
  103c18:	dc3e                	sw	a5,56(sp)
  103c1a:	00e7b7b3          	sltu	a5,a5,a4
  103c1e:	5772                	lw	a4,60(sp)
  103c20:	97ba                	add	a5,a5,a4
  103c22:	de3e                	sw	a5,60(sp)
  103c24:	57f2                	lw	a5,60(sp)
  103c26:	00c79713          	slli	a4,a5,0xc
  103c2a:	00075c63          	bgez	a4,103c42 <__subtf3+0x1a4>
  103c2e:	6721                	lui	a4,0x8
  103c30:	0485                	addi	s1,s1,1
  103c32:	177d                	addi	a4,a4,-1 # 7fff <_min_stack+0x5fff>
  103c34:	46e481e3          	beq	s1,a4,104896 <__subtf3+0xdf8>
  103c38:	fff80737          	lui	a4,0xfff80
  103c3c:	177d                	addi	a4,a4,-1 # fff7ffff <fromhost+0xffdaffef>
  103c3e:	8ff9                	and	a5,a5,a4
  103c40:	de3e                	sw	a5,60(sp)
  103c42:	181c                	addi	a5,sp,48
  103c44:	1870                	addi	a2,sp,60
  103c46:	4398                	lw	a4,0(a5)
  103c48:	43d4                	lw	a3,4(a5)
  103c4a:	830d                	srli	a4,a4,0x3
  103c4c:	06f6                	slli	a3,a3,0x1d
  103c4e:	8f55                	or	a4,a4,a3
  103c50:	c398                	sw	a4,0(a5)
  103c52:	0791                	addi	a5,a5,4
  103c54:	fec799e3          	bne	a5,a2,103c46 <__subtf3+0x1a8>
  103c58:	5772                	lw	a4,60(sp)
  103c5a:	66a1                	lui	a3,0x8
  103c5c:	fff68793          	addi	a5,a3,-1 # 7fff <_min_stack+0x5fff>
  103c60:	830d                	srli	a4,a4,0x3
  103c62:	de3a                	sw	a4,60(sp)
  103c64:	00f49e63          	bne	s1,a5,103c80 <__subtf3+0x1e2>
  103c68:	5652                	lw	a2,52(sp)
  103c6a:	57c2                	lw	a5,48(sp)
  103c6c:	8fd1                	or	a5,a5,a2
  103c6e:	5662                	lw	a2,56(sp)
  103c70:	8fd1                	or	a5,a5,a2
  103c72:	8fd9                	or	a5,a5,a4
  103c74:	c791                	beqz	a5,103c80 <__subtf3+0x1e2>
  103c76:	de36                	sw	a3,60(sp)
  103c78:	dc02                	sw	zero,56(sp)
  103c7a:	da02                	sw	zero,52(sp)
  103c7c:	d802                	sw	zero,48(sp)
  103c7e:	4a81                	li	s5,0
  103c80:	57f2                	lw	a5,60(sp)
  103c82:	04c6                	slli	s1,s1,0x11
  103c84:	80c5                	srli	s1,s1,0x11
  103c86:	0abe                	slli	s5,s5,0xf
  103c88:	009aeab3          	or	s5,s5,s1
  103c8c:	01511723          	sh	s5,14(sp)
  103c90:	00f11623          	sh	a5,12(sp)
  103c94:	5642                	lw	a2,48(sp)
  103c96:	56d2                	lw	a3,52(sp)
  103c98:	5762                	lw	a4,56(sp)
  103c9a:	47b2                	lw	a5,12(sp)
  103c9c:	50b6                	lw	ra,108(sp)
  103c9e:	5426                	lw	s0,104(sp)
  103ca0:	00ca2023          	sw	a2,0(s4)
  103ca4:	00da2223          	sw	a3,4(s4)
  103ca8:	00ea2423          	sw	a4,8(s4)
  103cac:	00fa2623          	sw	a5,12(s4)
  103cb0:	5496                	lw	s1,100(sp)
  103cb2:	5906                	lw	s2,96(sp)
  103cb4:	49f6                	lw	s3,92(sp)
  103cb6:	4ad6                	lw	s5,84(sp)
  103cb8:	4b46                	lw	s6,80(sp)
  103cba:	4bb6                	lw	s7,76(sp)
  103cbc:	4c26                	lw	s8,72(sp)
  103cbe:	8552                	mv	a0,s4
  103cc0:	4a66                	lw	s4,88(sp)
  103cc2:	6165                	addi	sp,sp,112
  103cc4:	8082                	ret
  103cc6:	5732                	lw	a4,44(sp)
  103cc8:	000806b7          	lui	a3,0x80
  103ccc:	8f55                	or	a4,a4,a3
  103cce:	d63a                	sw	a4,44(sp)
  103cd0:	07400713          	li	a4,116
  103cd4:	3d174be3          	blt	a4,a7,1048aa <__subtf3+0xe0c>
  103cd8:	8646                	mv	a2,a7
  103cda:	40565693          	srai	a3,a2,0x5
  103cde:	851a                	mv	a0,t1
  103ce0:	8a7d                	andi	a2,a2,31
  103ce2:	4701                	li	a4,0
  103ce4:	4581                	li	a1,0
  103ce6:	02d59563          	bne	a1,a3,103d10 <__subtf3+0x272>
  103cea:	458d                	li	a1,3
  103cec:	8d95                	sub	a1,a1,a3
  103cee:	00269513          	slli	a0,a3,0x2
  103cf2:	e615                	bnez	a2,103d1e <__subtf3+0x280>
  103cf4:	00a308b3          	add	a7,t1,a0
  103cf8:	0008a883          	lw	a7,0(a7)
  103cfc:	0605                	addi	a2,a2,1
  103cfe:	0311                	addi	t1,t1,4
  103d00:	ff132e23          	sw	a7,-4(t1)
  103d04:	fec5d8e3          	bge	a1,a2,103cf4 <__subtf3+0x256>
  103d08:	4611                	li	a2,4
  103d0a:	40d606b3          	sub	a3,a2,a3
  103d0e:	a881                	j	103d5e <__subtf3+0x2c0>
  103d10:	00052883          	lw	a7,0(a0)
  103d14:	0585                	addi	a1,a1,1
  103d16:	0511                	addi	a0,a0,4
  103d18:	01176733          	or	a4,a4,a7
  103d1c:	b7e9                	j	103ce6 <__subtf3+0x248>
  103d1e:	04050413          	addi	s0,a0,64
  103d22:	002408b3          	add	a7,s0,sp
  103d26:	fe08a883          	lw	a7,-32(a7)
  103d2a:	02000e13          	li	t3,32
  103d2e:	40ce0e33          	sub	t3,t3,a2
  103d32:	01c898b3          	sll	a7,a7,t3
  103d36:	932a                	add	t1,t1,a0
  103d38:	01176733          	or	a4,a4,a7
  103d3c:	40a00533          	neg	a0,a0
  103d40:	4e81                	li	t4,0
  103d42:	0cbec763          	blt	t4,a1,103e10 <__subtf3+0x372>
  103d46:	4511                	li	a0,4
  103d48:	40d506b3          	sub	a3,a0,a3
  103d4c:	5532                	lw	a0,44(sp)
  103d4e:	058a                	slli	a1,a1,0x2
  103d50:	04058593          	addi	a1,a1,64
  103d54:	958a                	add	a1,a1,sp
  103d56:	00c55633          	srl	a2,a0,a2
  103d5a:	fec5a023          	sw	a2,-32(a1)
  103d5e:	4611                	li	a2,4
  103d60:	8e15                	sub	a2,a2,a3
  103d62:	060a                	slli	a2,a2,0x2
  103d64:	068a                	slli	a3,a3,0x2
  103d66:	45a1                	li	a1,8
  103d68:	96c2                	add	a3,a3,a6
  103d6a:	00b66863          	bltu	a2,a1,103d7a <__subtf3+0x2dc>
  103d6e:	0006a023          	sw	zero,0(a3) # 80000 <tohost+0x5fff8>
  103d72:	0006a223          	sw	zero,4(a3)
  103d76:	1661                	addi	a2,a2,-8
  103d78:	06a1                	addi	a3,a3,8
  103d7a:	4591                	li	a1,4
  103d7c:	00b66463          	bltu	a2,a1,103d84 <__subtf3+0x2e6>
  103d80:	0006a023          	sw	zero,0(a3)
  103d84:	5682                	lw	a3,32(sp)
  103d86:	00e03733          	snez	a4,a4
  103d8a:	8f55                	or	a4,a4,a3
  103d8c:	5692                	lw	a3,36(sp)
  103d8e:	d03a                	sw	a4,32(sp)
  103d90:	973e                	add	a4,a4,a5
  103d92:	9936                	add	s2,s2,a3
  103d94:	d83a                	sw	a4,48(sp)
  103d96:	00f73733          	sltu	a4,a4,a5
  103d9a:	57a2                	lw	a5,40(sp)
  103d9c:	974a                	add	a4,a4,s2
  103d9e:	da3a                	sw	a4,52(sp)
  103da0:	00d936b3          	sltu	a3,s2,a3
  103da4:	01273733          	sltu	a4,a4,s2
  103da8:	99be                	add	s3,s3,a5
  103daa:	8f55                	or	a4,a4,a3
  103dac:	974e                	add	a4,a4,s3
  103dae:	dc3a                	sw	a4,56(sp)
  103db0:	00f9b7b3          	sltu	a5,s3,a5
  103db4:	01373733          	sltu	a4,a4,s3
  103db8:	8fd9                	or	a5,a5,a4
  103dba:	5732                	lw	a4,44(sp)
  103dbc:	975a                	add	a4,a4,s6
  103dbe:	97ba                	add	a5,a5,a4
  103dc0:	de3e                	sw	a5,60(sp)
