
tflite-micro/gen/riscv32_generic_riscv32-unknown-elf_default_gcc/bin/person_detection:     file format elf32-littleriscv


Disassembly of section .text:

00010094 <exit>:
   10094:	1141                	addi	sp,sp,-16
   10096:	4581                	li	a1,0
   10098:	c422                	sw	s0,8(sp)
   1009a:	c606                	sw	ra,12(sp)
   1009c:	842a                	mv	s0,a0
   1009e:	00013097          	auipc	ra,0x13
   100a2:	910080e7          	jalr	-1776(ra) # 229ae <__call_exitprocs>
   100a6:	000767b7          	lui	a5,0x76
   100aa:	8a47a783          	lw	a5,-1884(a5) # 758a4 <__stdio_exit_handler>
   100ae:	c391                	beqz	a5,100b2 <exit+0x1e>
   100b0:	9782                	jalr	a5
   100b2:	8522                	mv	a0,s0
   100b4:	00016097          	auipc	ra,0x16
   100b8:	f7a080e7          	jalr	-134(ra) # 2602e <_exit>

000100bc <main>:
   100bc:	1141                	addi	sp,sp,-16
   100be:	c606                	sw	ra,12(sp)
   100c0:	00000097          	auipc	ra,0x0
   100c4:	318080e7          	jalr	792(ra) # 103d8 <setup>
   100c8:	00000097          	auipc	ra,0x0
   100cc:	538080e7          	jalr	1336(ra) # 10600 <loop>
   100d0:	40b2                	lw	ra,12(sp)
   100d2:	4501                	li	a0,0
   100d4:	0141                	addi	sp,sp,16
   100d6:	8082                	ret

000100d8 <register_fini>:
   100d8:	000007b7          	lui	a5,0x0
   100dc:	00078793          	mv	a5,a5
   100e0:	cb89                	beqz	a5,100f2 <register_fini+0x1a>
   100e2:	00026537          	lui	a0,0x26
   100e6:	eb250513          	addi	a0,a0,-334 # 25eb2 <__libc_fini_array>
   100ea:	0000f317          	auipc	t1,0xf
   100ee:	ab830067          	jr	-1352(t1) # 1eba2 <atexit>
   100f2:	8082                	ret

000100f4 <_start>:
   100f4:	00066197          	auipc	gp,0x66
   100f8:	dec18193          	addi	gp,gp,-532 # 75ee0 <__global_pointer$>
   100fc:	00065517          	auipc	a0,0x65
   10100:	78450513          	addi	a0,a0,1924 # 75880 <_ZGVZ5setupE18static_interpreter>
   10104:	00088617          	auipc	a2,0x88
   10108:	c4c60613          	addi	a2,a2,-948 # 97d50 <__BSS_END__>
   1010c:	8e09                	sub	a2,a2,a0
   1010e:	4581                	li	a1,0
   10110:	00012097          	auipc	ra,0x12
   10114:	3c2080e7          	jalr	962(ra) # 224d2 <memset>
   10118:	0000f517          	auipc	a0,0xf
   1011c:	a8a50513          	addi	a0,a0,-1398 # 1eba2 <atexit>
   10120:	c909                	beqz	a0,10132 <_start+0x3e>
   10122:	00016517          	auipc	a0,0x16
   10126:	d9050513          	addi	a0,a0,-624 # 25eb2 <__libc_fini_array>
   1012a:	0000f097          	auipc	ra,0xf
   1012e:	a78080e7          	jalr	-1416(ra) # 1eba2 <atexit>
   10132:	00012097          	auipc	ra,0x12
   10136:	262080e7          	jalr	610(ra) # 22394 <__libc_init_array>
   1013a:	4502                	lw	a0,0(sp)
   1013c:	004c                	addi	a1,sp,4
   1013e:	4601                	li	a2,0
   10140:	00000097          	auipc	ra,0x0
   10144:	f7c080e7          	jalr	-132(ra) # 100bc <main>
   10148:	00000317          	auipc	t1,0x0
   1014c:	f4c30067          	jr	-180(t1) # 10094 <exit>

00010150 <__do_global_dtors_aux>:
   10150:	1141                	addi	sp,sp,-16
   10152:	c422                	sw	s0,8(sp)
   10154:	00076437          	lui	s0,0x76
   10158:	8c044783          	lbu	a5,-1856(s0) # 758c0 <completed.1>
   1015c:	c606                	sw	ra,12(sp)
   1015e:	e38d                	bnez	a5,10180 <__do_global_dtors_aux+0x30>
   10160:	000007b7          	lui	a5,0x0
   10164:	00078793          	mv	a5,a5
   10168:	cb89                	beqz	a5,1017a <__do_global_dtors_aux+0x2a>
   1016a:	00075537          	lui	a0,0x75
   1016e:	00050513          	mv	a0,a0
   10172:	00000097          	auipc	ra,0x0
   10176:	000000e7          	jalr	zero # 0 <exit-0x10094>
   1017a:	4785                	li	a5,1
   1017c:	8cf40023          	sb	a5,-1856(s0)
   10180:	40b2                	lw	ra,12(sp)
   10182:	4422                	lw	s0,8(sp)
   10184:	0141                	addi	sp,sp,16
   10186:	8082                	ret

00010188 <frame_dummy>:
   10188:	000007b7          	lui	a5,0x0
   1018c:	00078793          	mv	a5,a5
   10190:	cf89                	beqz	a5,101aa <frame_dummy+0x22>
   10192:	000765b7          	lui	a1,0x76
   10196:	00075537          	lui	a0,0x75
   1019a:	8c458593          	addi	a1,a1,-1852 # 758c4 <object.0>
   1019e:	00050513          	mv	a0,a0
   101a2:	00000317          	auipc	t1,0x0
   101a6:	00000067          	jr	zero # 0 <exit-0x10094>
   101aa:	8082                	ret

000101ac <_Z18RespondToDetectionaa>:
   101ac:	862e                	mv	a2,a1
   101ae:	85aa                	mv	a1,a0
   101b0:	00018517          	auipc	a0,0x18
   101b4:	00050513          	mv	a0,a0
   101b8:	00001317          	auipc	t1,0x1
   101bc:	5b630067          	jr	1462(t1) # 1176e <_Z11MicroPrintfPKcz>

000101c0 <_Z8GetImageiiiPa>:
   101c0:	87aa                	mv	a5,a0
   101c2:	02b787b3          	mul	a5,a5,a1
   101c6:	1141                	addi	sp,sp,-16
   101c8:	c606                	sw	ra,12(sp)
   101ca:	8536                	mv	a0,a3
   101cc:	02c78633          	mul	a2,a5,a2
   101d0:	00065363          	bgez	a2,101d6 <_Z8GetImageiiiPa+0x16>
   101d4:	4601                	li	a2,0
   101d6:	4581                	li	a1,0
   101d8:	00012097          	auipc	ra,0x12
   101dc:	2fa080e7          	jalr	762(ra) # 224d2 <memset>
   101e0:	40b2                	lw	ra,12(sp)
   101e2:	4501                	li	a0,0
   101e4:	0141                	addi	sp,sp,16
   101e6:	8082                	ret

000101e8 <_ZN6tflite22MicroMutableOpResolverILj5EED0Ev>:
   101e8:	8082                	ret

000101ea <__tcf_0>:
   101ea:	8082                	ret

000101ec <_ZNK6tflite22MicroMutableOpResolverILj5EE15GetOpDataParserENS_15BuiltinOperatorE>:
   101ec:	0bc52683          	lw	a3,188(a0) # 2826c <__extenddftf2+0x23e>
   101f0:	4795                	li	a5,5
   101f2:	00d7e963          	bltu	a5,a3,10204 <_ZNK6tflite22MicroMutableOpResolverILj5EE15GetOpDataParserENS_15BuiltinOperatorE+0x18>
   101f6:	09450713          	addi	a4,a0,148
   101fa:	4781                	li	a5,0
   101fc:	00f69f63          	bne	a3,a5,1021a <_ZNK6tflite22MicroMutableOpResolverILj5EE15GetOpDataParserENS_15BuiltinOperatorE+0x2e>
   10200:	4501                	li	a0,0
   10202:	8082                	ret
   10204:	00018517          	auipc	a0,0x18
   10208:	1141                	addi	sp,sp,-16
   1020a:	fd050513          	addi	a0,a0,-48 # 281d4 <__extenddftf2+0x1a6>
   1020e:	c606                	sw	ra,12(sp)
   10210:	00001097          	auipc	ra,0x1
   10214:	55e080e7          	jalr	1374(ra) # 1176e <_Z11MicroPrintfPKcz>
   10218:	a001                	j	10218 <_ZNK6tflite22MicroMutableOpResolverILj5EE15GetOpDataParserENS_15BuiltinOperatorE+0x2c>
   1021a:	4310                	lw	a2,0(a4)
   1021c:	0711                	addi	a4,a4,4
   1021e:	00b61863          	bne	a2,a1,1022e <_ZNK6tflite22MicroMutableOpResolverILj5EE15GetOpDataParserENS_15BuiltinOperatorE+0x42>
   10222:	02878793          	addi	a5,a5,40 # 28 <exit-0x1006c>
   10226:	078a                	slli	a5,a5,0x2
   10228:	953e                	add	a0,a0,a5
   1022a:	4508                	lw	a0,8(a0)
   1022c:	8082                	ret
   1022e:	0785                	addi	a5,a5,1
   10230:	b7f1                	j	101fc <_ZNK6tflite22MicroMutableOpResolverILj5EE15GetOpDataParserENS_15BuiltinOperatorE+0x10>

00010232 <__tcf_1>:
   10232:	00065517          	auipc	a0,0x65
   10236:	6aa50513          	addi	a0,a0,1706 # 758dc <_ZZ5setupE18static_interpreter>
   1023a:	00000317          	auipc	t1,0x0
   1023e:	75e30067          	jr	1886(t1) # 10998 <_ZN6tflite16MicroInterpreterD1Ev>

00010242 <_ZNK6tflite22MicroMutableOpResolverILj5EE6FindOpEPKc>:
   10242:	1101                	addi	sp,sp,-32
   10244:	c452                	sw	s4,8(sp)
   10246:	09052a03          	lw	s4,144(a0)
   1024a:	cc22                	sw	s0,24(sp)
   1024c:	ca26                	sw	s1,20(sp)
   1024e:	c84a                	sw	s2,16(sp)
   10250:	c64e                	sw	s3,12(sp)
   10252:	c256                	sw	s5,4(sp)
   10254:	ce06                	sw	ra,28(sp)
   10256:	842a                	mv	s0,a0
   10258:	89ae                	mv	s3,a1
   1025a:	01850913          	addi	s2,a0,24
   1025e:	4481                	li	s1,0
   10260:	02000a93          	li	s5,32
   10264:	009a1463          	bne	s4,s1,1026c <_ZNK6tflite22MicroMutableOpResolverILj5EE6FindOpEPKc+0x2a>
   10268:	4501                	li	a0,0
   1026a:	a01d                	j	10290 <_ZNK6tflite22MicroMutableOpResolverILj5EE6FindOpEPKc+0x4e>
   1026c:	00092783          	lw	a5,0(s2)
   10270:	03579963          	bne	a5,s5,102a2 <_ZNK6tflite22MicroMutableOpResolverILj5EE6FindOpEPKc+0x60>
   10274:	00492503          	lw	a0,4(s2)
   10278:	85ce                	mv	a1,s3
   1027a:	00012097          	auipc	ra,0x12
   1027e:	4aa080e7          	jalr	1194(ra) # 22724 <strcmp>
   10282:	e105                	bnez	a0,102a2 <_ZNK6tflite22MicroMutableOpResolverILj5EE6FindOpEPKc+0x60>
   10284:	47f1                	li	a5,28
   10286:	02f484b3          	mul	s1,s1,a5
   1028a:	0491                	addi	s1,s1,4
   1028c:	00940533          	add	a0,s0,s1
   10290:	40f2                	lw	ra,28(sp)
   10292:	4462                	lw	s0,24(sp)
   10294:	44d2                	lw	s1,20(sp)
   10296:	4942                	lw	s2,16(sp)
   10298:	49b2                	lw	s3,12(sp)
   1029a:	4a22                	lw	s4,8(sp)
   1029c:	4a92                	lw	s5,4(sp)
   1029e:	6105                	addi	sp,sp,32
   102a0:	8082                	ret
   102a2:	0485                	addi	s1,s1,1
   102a4:	0971                	addi	s2,s2,28
   102a6:	bf7d                	j	10264 <_ZNK6tflite22MicroMutableOpResolverILj5EE6FindOpEPKc+0x22>

000102a8 <_ZNK6tflite22MicroMutableOpResolverILj5EE6FindOpENS_15BuiltinOperatorE>:
   102a8:	02000793          	li	a5,32
   102ac:	00f58963          	beq	a1,a5,102be <_ZNK6tflite22MicroMutableOpResolverILj5EE6FindOpENS_15BuiltinOperatorE+0x16>
   102b0:	09052683          	lw	a3,144(a0)
   102b4:	01850713          	addi	a4,a0,24
   102b8:	4781                	li	a5,0
   102ba:	00d79463          	bne	a5,a3,102c2 <_ZNK6tflite22MicroMutableOpResolverILj5EE6FindOpENS_15BuiltinOperatorE+0x1a>
   102be:	4501                	li	a0,0
   102c0:	8082                	ret
   102c2:	4310                	lw	a2,0(a4)
   102c4:	0771                	addi	a4,a4,28
   102c6:	00c59863          	bne	a1,a2,102d6 <_ZNK6tflite22MicroMutableOpResolverILj5EE6FindOpENS_15BuiltinOperatorE+0x2e>
   102ca:	4771                	li	a4,28
   102cc:	02e787b3          	mul	a5,a5,a4
   102d0:	0791                	addi	a5,a5,4
   102d2:	953e                	add	a0,a0,a5
   102d4:	8082                	ret
   102d6:	0785                	addi	a5,a5,1
   102d8:	b7cd                	j	102ba <_ZNK6tflite22MicroMutableOpResolverILj5EE6FindOpENS_15BuiltinOperatorE+0x12>

000102da <_ZN6tflite22MicroMutableOpResolverILj5EE10AddBuiltinENS_15BuiltinOperatorERK16TFLMRegistrationPF12TfLiteStatusPKNS_8OperatorEPNS_13ErrorReporterEPNS_20BuiltinDataAllocatorEPPvE.isra.0>:
   102da:	1101                	addi	sp,sp,-32
   102dc:	ce06                	sw	ra,28(sp)
   102de:	cc22                	sw	s0,24(sp)
   102e0:	ca26                	sw	s1,20(sp)
   102e2:	c84a                	sw	s2,16(sp)
   102e4:	c64e                	sw	s3,12(sp)
   102e6:	c452                	sw	s4,8(sp)
   102e8:	c256                	sw	s5,4(sp)
   102ea:	02000793          	li	a5,32
   102ee:	02f59a63          	bne	a1,a5,10322 <_ZN6tflite22MicroMutableOpResolverILj5EE10AddBuiltinENS_15BuiltinOperatorERK16TFLMRegistrationPF12TfLiteStatusPKNS_8OperatorEPNS_13ErrorReporterEPNS_20BuiltinDataAllocatorEPPvE.isra.0+0x48>
   102f2:	00018517          	auipc	a0,0x18
   102f6:	eea50513          	addi	a0,a0,-278 # 281dc <__extenddftf2+0x1ae>
   102fa:	00001097          	auipc	ra,0x1
   102fe:	474080e7          	jalr	1140(ra) # 1176e <_Z11MicroPrintfPKcz>
   10302:	4462                	lw	s0,24(sp)
   10304:	40f2                	lw	ra,28(sp)
   10306:	44d2                	lw	s1,20(sp)
   10308:	4942                	lw	s2,16(sp)
   1030a:	49b2                	lw	s3,12(sp)
   1030c:	4a22                	lw	s4,8(sp)
   1030e:	4a92                	lw	s5,4(sp)
   10310:	00018517          	auipc	a0,0x18
   10314:	f0050513          	addi	a0,a0,-256 # 28210 <__extenddftf2+0x1e2>
   10318:	6105                	addi	sp,sp,32
   1031a:	00001317          	auipc	t1,0x1
   1031e:	45430067          	jr	1108(t1) # 1176e <_Z11MicroPrintfPKcz>
   10322:	411c                	lw	a5,0(a0)
   10324:	842a                	mv	s0,a0
   10326:	84ae                	mv	s1,a1
   10328:	439c                	lw	a5,0(a5)
   1032a:	8ab2                	mv	s5,a2
   1032c:	8a36                	mv	s4,a3
   1032e:	9782                	jalr	a5
   10330:	c915                	beqz	a0,10364 <_ZN6tflite22MicroMutableOpResolverILj5EE10AddBuiltinENS_15BuiltinOperatorERK16TFLMRegistrationPF12TfLiteStatusPKNS_8OperatorEPNS_13ErrorReporterEPNS_20BuiltinDataAllocatorEPPvE.isra.0+0x8a>
   10332:	00018517          	auipc	a0,0x18
   10336:	ef650513          	addi	a0,a0,-266 # 28228 <__extenddftf2+0x1fa>
   1033a:	00001097          	auipc	ra,0x1
   1033e:	434080e7          	jalr	1076(ra) # 1176e <_Z11MicroPrintfPKcz>
   10342:	00018517          	auipc	a0,0x18
   10346:	85a6                	mv	a1,s1
   10348:	f1650513          	addi	a0,a0,-234 # 28258 <__extenddftf2+0x22a>
   1034c:	4462                	lw	s0,24(sp)
   1034e:	40f2                	lw	ra,28(sp)
   10350:	44d2                	lw	s1,20(sp)
   10352:	4942                	lw	s2,16(sp)
   10354:	49b2                	lw	s3,12(sp)
   10356:	4a22                	lw	s4,8(sp)
   10358:	4a92                	lw	s5,4(sp)
   1035a:	6105                	addi	sp,sp,32
   1035c:	00001317          	auipc	t1,0x1
   10360:	41230067          	jr	1042(t1) # 1176e <_Z11MicroPrintfPKcz>
   10364:	09042983          	lw	s3,144(s0)
   10368:	4791                	li	a5,4
   1036a:	0337f163          	bgeu	a5,s3,1038c <_ZN6tflite22MicroMutableOpResolverILj5EE10AddBuiltinENS_15BuiltinOperatorERK16TFLMRegistrationPF12TfLiteStatusPKNS_8OperatorEPNS_13ErrorReporterEPNS_20BuiltinDataAllocatorEPPvE.isra.0+0xb2>
   1036e:	00018517          	auipc	a0,0x18
   10372:	85a6                	mv	a1,s1
   10374:	f0e50513          	addi	a0,a0,-242 # 2827c <__extenddftf2+0x24e>
   10378:	00001097          	auipc	ra,0x1
   1037c:	3f6080e7          	jalr	1014(ra) # 1176e <_Z11MicroPrintfPKcz>
   10380:	00018517          	auipc	a0,0x18
   10384:	4595                	li	a1,5
   10386:	f3050513          	addi	a0,a0,-208 # 282b0 <__extenddftf2+0x282>
   1038a:	b7c9                	j	1034c <_ZN6tflite22MicroMutableOpResolverILj5EE10AddBuiltinENS_15BuiltinOperatorERK16TFLMRegistrationPF12TfLiteStatusPKNS_8OperatorEPNS_13ErrorReporterEPNS_20BuiltinDataAllocatorEPPvE.isra.0+0x72>
   1038c:	4971                	li	s2,28
   1038e:	03298933          	mul	s2,s3,s2
   10392:	85d6                	mv	a1,s5
   10394:	4671                	li	a2,28
   10396:	0985                	addi	s3,s3,1
   10398:	9922                	add	s2,s2,s0
   1039a:	00490513          	addi	a0,s2,4
   1039e:	00012097          	auipc	ra,0x12
   103a2:	1dc080e7          	jalr	476(ra) # 2257a <memcpy>
   103a6:	0bc42783          	lw	a5,188(s0)
   103aa:	00992c23          	sw	s1,24(s2)
   103ae:	09342823          	sw	s3,144(s0)
   103b2:	00279713          	slli	a4,a5,0x2
   103b6:	9722                	add	a4,a4,s0
   103b8:	08972a23          	sw	s1,148(a4)
   103bc:	0b472423          	sw	s4,168(a4)
   103c0:	0785                	addi	a5,a5,1
   103c2:	40f2                	lw	ra,28(sp)
   103c4:	0af42e23          	sw	a5,188(s0)
   103c8:	4462                	lw	s0,24(sp)
   103ca:	44d2                	lw	s1,20(sp)
   103cc:	4942                	lw	s2,16(sp)
   103ce:	49b2                	lw	s3,12(sp)
   103d0:	4a22                	lw	s4,8(sp)
   103d2:	4a92                	lw	s5,4(sp)
   103d4:	6105                	addi	sp,sp,32
   103d6:	8082                	ret

000103d8 <setup>:
   103d8:	7179                	addi	sp,sp,-48
   103da:	d606                	sw	ra,44(sp)
   103dc:	00001097          	auipc	ra,0x1
   103e0:	4e6080e7          	jalr	1254(ra) # 118c2 <_ZN6tflite16InitializeTargetEv>
   103e4:	0001b697          	auipc	a3,0x1b
   103e8:	8ac68693          	addi	a3,a3,-1876 # 2ac90 <g_person_detect_model_data>
   103ec:	4781                	li	a5,0
   103ee:	c295                	beqz	a3,10412 <setup+0x3a>
   103f0:	0001b617          	auipc	a2,0x1b
   103f4:	8a164783          	lbu	a5,-1887(a2) # 2ac91 <g_person_detect_model_data+0x1>
   103f8:	8a064703          	lbu	a4,-1888(a2)
   103fc:	07a2                	slli	a5,a5,0x8
   103fe:	8fd9                	or	a5,a5,a4
   10400:	8a264703          	lbu	a4,-1886(a2)
   10404:	0742                	slli	a4,a4,0x10
   10406:	8f5d                	or	a4,a4,a5
   10408:	8a364783          	lbu	a5,-1885(a2)
   1040c:	07e2                	slli	a5,a5,0x18
   1040e:	8fd9                	or	a5,a5,a4
   10410:	97b6                	add	a5,a5,a3
   10412:	00065717          	auipc	a4,0x65
   10416:	48f72323          	sw	a5,1158(a4) # 75898 <_ZN12_GLOBAL__N_15modelE>
   1041a:	4398                	lw	a4,0(a5)
   1041c:	4691                	li	a3,4
   1041e:	40e78733          	sub	a4,a5,a4
   10422:	00075603          	lhu	a2,0(a4)
   10426:	02c6f563          	bgeu	a3,a2,10450 <setup+0x78>
   1042a:	00475703          	lhu	a4,4(a4)
   1042e:	c30d                	beqz	a4,10450 <setup+0x78>
   10430:	97ba                	add	a5,a5,a4
   10432:	438c                	lw	a1,0(a5)
   10434:	478d                	li	a5,3
   10436:	00f58f63          	beq	a1,a5,10454 <setup+0x7c>
   1043a:	50b2                	lw	ra,44(sp)
   1043c:	00018517          	auipc	a0,0x18
   10440:	460d                	li	a2,3
   10442:	e8850513          	addi	a0,a0,-376 # 282c4 <__extenddftf2+0x296>
   10446:	6145                	addi	sp,sp,48
   10448:	00001317          	auipc	t1,0x1
   1044c:	32630067          	jr	806(t1) # 1176e <_Z11MicroPrintfPKcz>
   10450:	4581                	li	a1,0
   10452:	b7e5                	j	1043a <setup+0x62>
   10454:	00065797          	auipc	a5,0x65
   10458:	4347c783          	lbu	a5,1076(a5) # 75888 <_ZGVZ5setupE17micro_op_resolver>
   1045c:	e3b1                	bnez	a5,104a0 <setup+0xc8>
   1045e:	0001b797          	auipc	a5,0x1b
   10462:	81278793          	addi	a5,a5,-2030 # 2ac70 <_ZTVN6tflite22MicroMutableOpResolverILj5EEE+0x8>
   10466:	00065717          	auipc	a4,0x65
   1046a:	52f72d23          	sw	a5,1338(a4) # 759a0 <_ZZ5setupE17micro_op_resolver>
   1046e:	00065797          	auipc	a5,0x65
   10472:	53278793          	addi	a5,a5,1330 # 759a0 <_ZZ5setupE17micro_op_resolver>
   10476:	0807a823          	sw	zero,144(a5)
   1047a:	00065797          	auipc	a5,0x65
   1047e:	52678793          	addi	a5,a5,1318 # 759a0 <_ZZ5setupE17micro_op_resolver>
   10482:	00000517          	auipc	a0,0x0
   10486:	0a07ae23          	sw	zero,188(a5)
   1048a:	4705                	li	a4,1
   1048c:	00065797          	auipc	a5,0x65
   10490:	d6850513          	addi	a0,a0,-664 # 101ea <__tcf_0>
   10494:	3ee78e23          	sb	a4,1020(a5) # 75888 <_ZGVZ5setupE17micro_op_resolver>
   10498:	0000e097          	auipc	ra,0xe
   1049c:	70a080e7          	jalr	1802(ra) # 1eba2 <atexit>
   104a0:	0048                	addi	a0,sp,4
   104a2:	00006097          	auipc	ra,0x6
   104a6:	988080e7          	jalr	-1656(ra) # 15e2a <_ZN6tflite24Register_AVERAGE_POOL_2DEv>
   104aa:	00002697          	auipc	a3,0x2
   104ae:	00065517          	auipc	a0,0x65
   104b2:	9e268693          	addi	a3,a3,-1566 # 11e8c <_ZN6tflite9ParsePoolEPKNS_8OperatorEPNS_13ErrorReporterEPNS_20BuiltinDataAllocatorEPPv>
   104b6:	0050                	addi	a2,sp,4
   104b8:	4585                	li	a1,1
   104ba:	4f250513          	addi	a0,a0,1266 # 759a0 <_ZZ5setupE17micro_op_resolver>
   104be:	00000097          	auipc	ra,0x0
   104c2:	e1c080e7          	jalr	-484(ra) # 102da <_ZN6tflite22MicroMutableOpResolverILj5EE10AddBuiltinENS_15BuiltinOperatorERK16TFLMRegistrationPF12TfLiteStatusPKNS_8OperatorEPNS_13ErrorReporterEPNS_20BuiltinDataAllocatorEPPvE.isra.0>
   104c6:	0048                	addi	a0,sp,4
   104c8:	00003097          	auipc	ra,0x3
   104cc:	35e080e7          	jalr	862(ra) # 13826 <_ZN6tflite16Register_CONV_2DEv>
   104d0:	00001697          	auipc	a3,0x1
   104d4:	00065517          	auipc	a0,0x65
   104d8:	75a68693          	addi	a3,a3,1882 # 11c2a <_ZN6tflite11ParseConv2DEPKNS_8OperatorEPNS_13ErrorReporterEPNS_20BuiltinDataAllocatorEPPv>
   104dc:	0050                	addi	a2,sp,4
   104de:	458d                	li	a1,3
   104e0:	4cc50513          	addi	a0,a0,1228 # 759a0 <_ZZ5setupE17micro_op_resolver>
   104e4:	00000097          	auipc	ra,0x0
   104e8:	df6080e7          	jalr	-522(ra) # 102da <_ZN6tflite22MicroMutableOpResolverILj5EE10AddBuiltinENS_15BuiltinOperatorERK16TFLMRegistrationPF12TfLiteStatusPKNS_8OperatorEPNS_13ErrorReporterEPNS_20BuiltinDataAllocatorEPPvE.isra.0>
   104ec:	0048                	addi	a0,sp,4
   104ee:	00005097          	auipc	ra,0x5
   104f2:	a56080e7          	jalr	-1450(ra) # 14f44 <_ZN6tflite26Register_DEPTHWISE_CONV_2DEv>
   104f6:	00002697          	auipc	a3,0x2
   104fa:	00065517          	auipc	a0,0x65
   104fe:	87868693          	addi	a3,a3,-1928 # 11d6e <_ZN6tflite20ParseDepthwiseConv2DEPKNS_8OperatorEPNS_13ErrorReporterEPNS_20BuiltinDataAllocatorEPPv>
   10502:	0050                	addi	a2,sp,4
   10504:	4591                	li	a1,4
   10506:	4a650513          	addi	a0,a0,1190 # 759a0 <_ZZ5setupE17micro_op_resolver>
   1050a:	00000097          	auipc	ra,0x0
   1050e:	dd0080e7          	jalr	-560(ra) # 102da <_ZN6tflite22MicroMutableOpResolverILj5EE10AddBuiltinENS_15BuiltinOperatorERK16TFLMRegistrationPF12TfLiteStatusPKNS_8OperatorEPNS_13ErrorReporterEPNS_20BuiltinDataAllocatorEPPvE.isra.0>
   10512:	0048                	addi	a0,sp,4
   10514:	00006097          	auipc	ra,0x6
   10518:	f2e080e7          	jalr	-210(ra) # 16442 <_ZN6tflite16Register_RESHAPEEv>
   1051c:	00001697          	auipc	a3,0x1
   10520:	00065517          	auipc	a0,0x65
   10524:	5de68693          	addi	a3,a3,1502 # 11afa <_ZN6tflite12ParseReshapeEPKNS_8OperatorEPNS_13ErrorReporterEPNS_20BuiltinDataAllocatorEPPv>
   10528:	0050                	addi	a2,sp,4
   1052a:	45d9                	li	a1,22
   1052c:	48050513          	addi	a0,a0,1152 # 759a0 <_ZZ5setupE17micro_op_resolver>
   10530:	00000097          	auipc	ra,0x0
   10534:	daa080e7          	jalr	-598(ra) # 102da <_ZN6tflite22MicroMutableOpResolverILj5EE10AddBuiltinENS_15BuiltinOperatorERK16TFLMRegistrationPF12TfLiteStatusPKNS_8OperatorEPNS_13ErrorReporterEPNS_20BuiltinDataAllocatorEPPvE.isra.0>
   10538:	0048                	addi	a0,sp,4
   1053a:	00006097          	auipc	ra,0x6
   1053e:	5b6080e7          	jalr	1462(ra) # 16af0 <_ZN6tflite16Register_SOFTMAXEv>
   10542:	00002697          	auipc	a3,0x2
   10546:	00065517          	auipc	a0,0x65
   1054a:	a8268693          	addi	a3,a3,-1406 # 11fc4 <_ZN6tflite12ParseSoftmaxEPKNS_8OperatorEPNS_13ErrorReporterEPNS_20BuiltinDataAllocatorEPPv>
   1054e:	0050                	addi	a2,sp,4
   10550:	45e5                	li	a1,25
   10552:	45a50513          	addi	a0,a0,1114 # 759a0 <_ZZ5setupE17micro_op_resolver>
   10556:	00000097          	auipc	ra,0x0
   1055a:	d84080e7          	jalr	-636(ra) # 102da <_ZN6tflite22MicroMutableOpResolverILj5EE10AddBuiltinENS_15BuiltinOperatorERK16TFLMRegistrationPF12TfLiteStatusPKNS_8OperatorEPNS_13ErrorReporterEPNS_20BuiltinDataAllocatorEPPvE.isra.0>
   1055e:	00065797          	auipc	a5,0x65
   10562:	3227c783          	lbu	a5,802(a5) # 75880 <_ZGVZ5setupE18static_interpreter>
   10566:	e7b1                	bnez	a5,105b2 <setup+0x1da>
   10568:	00065597          	auipc	a1,0x65
   1056c:	3305a583          	lw	a1,816(a1) # 75898 <_ZN12_GLOBAL__N_15modelE>
   10570:	00065697          	auipc	a3,0x65
   10574:	00065617          	auipc	a2,0x65
   10578:	00065517          	auipc	a0,0x65
   1057c:	00022737          	lui	a4,0x22
   10580:	36450513          	addi	a0,a0,868 # 758dc <_ZZ5setupE18static_interpreter>
   10584:	4881                	li	a7,0
   10586:	4801                	li	a6,0
   10588:	4f068693          	addi	a3,a3,1264 # 75a60 <_ZN12_GLOBAL__N_1L12tensor_arenaE>
   1058c:	42c60613          	addi	a2,a2,1068 # 759a0 <_ZZ5setupE17micro_op_resolver>
   10590:	00000097          	auipc	ra,0x0
   10594:	1f6080e7          	jalr	502(ra) # 10786 <_ZN6tflite16MicroInterpreterC1EPKNS_5ModelERKNS_15MicroOpResolverEPhjPNS_22MicroResourceVariablesEPNS_22MicroProfilerInterfaceEb>
   10598:	00000517          	auipc	a0,0x0
   1059c:	00065797          	auipc	a5,0x65
   105a0:	4705                	li	a4,1
   105a2:	c9a50513          	addi	a0,a0,-870 # 10232 <__tcf_1>
   105a6:	2ee78223          	sb	a4,740(a5) # 75880 <_ZGVZ5setupE18static_interpreter>
   105aa:	0000e097          	auipc	ra,0xe
   105ae:	5f8080e7          	jalr	1528(ra) # 1eba2 <atexit>
   105b2:	00065517          	auipc	a0,0x65
   105b6:	32a50513          	addi	a0,a0,810 # 758dc <_ZZ5setupE18static_interpreter>
   105ba:	00065797          	auipc	a5,0x65
   105be:	2ca7ad23          	sw	a0,730(a5) # 75894 <_ZN12_GLOBAL__N_111interpreterE>
   105c2:	00000097          	auipc	ra,0x0
   105c6:	706080e7          	jalr	1798(ra) # 10cc8 <_ZN6tflite16MicroInterpreter15AllocateTensorsEv>
   105ca:	c919                	beqz	a0,105e0 <setup+0x208>
   105cc:	50b2                	lw	ra,44(sp)
   105ce:	00018517          	auipc	a0,0x18
   105d2:	d3e50513          	addi	a0,a0,-706 # 2830c <__extenddftf2+0x2de>
   105d6:	6145                	addi	sp,sp,48
   105d8:	00001317          	auipc	t1,0x1
   105dc:	19630067          	jr	406(t1) # 1176e <_Z11MicroPrintfPKcz>
   105e0:	00065797          	auipc	a5,0x65
   105e4:	2b47a503          	lw	a0,692(a5) # 75894 <_ZN12_GLOBAL__N_111interpreterE>
   105e8:	4581                	li	a1,0
   105ea:	00000097          	auipc	ra,0x0
   105ee:	302080e7          	jalr	770(ra) # 108ec <_ZN6tflite16MicroInterpreter5inputEj>
   105f2:	50b2                	lw	ra,44(sp)
   105f4:	00065797          	auipc	a5,0x65
   105f8:	28a7ae23          	sw	a0,668(a5) # 75890 <_ZN12_GLOBAL__N_15inputE>
   105fc:	6145                	addi	sp,sp,48
   105fe:	8082                	ret

00010600 <loop>:
   10600:	00065797          	auipc	a5,0x65
   10604:	2907a783          	lw	a5,656(a5) # 75890 <_ZN12_GLOBAL__N_15inputE>
   10608:	1141                	addi	sp,sp,-16
   1060a:	4605                	li	a2,1
   1060c:	4b94                	lw	a3,16(a5)
   1060e:	06000593          	li	a1,96
   10612:	06000513          	li	a0,96
   10616:	c606                	sw	ra,12(sp)
   10618:	00000097          	auipc	ra,0x0
   1061c:	ba8080e7          	jalr	-1112(ra) # 101c0 <_Z8GetImageiiiPa>
   10620:	c909                	beqz	a0,10632 <loop+0x32>
   10622:	00018517          	auipc	a0,0x18
   10626:	d0650513          	addi	a0,a0,-762 # 28328 <__extenddftf2+0x2fa>
   1062a:	00001097          	auipc	ra,0x1
   1062e:	144080e7          	jalr	324(ra) # 1176e <_Z11MicroPrintfPKcz>
   10632:	00065797          	auipc	a5,0x65
   10636:	2627a503          	lw	a0,610(a5) # 75894 <_ZN12_GLOBAL__N_111interpreterE>
   1063a:	00001097          	auipc	ra,0x1
   1063e:	908080e7          	jalr	-1784(ra) # 10f42 <_ZN6tflite16MicroInterpreter6InvokeEv>
   10642:	c909                	beqz	a0,10654 <loop+0x54>
   10644:	00018517          	auipc	a0,0x18
   10648:	cfc50513          	addi	a0,a0,-772 # 28340 <__extenddftf2+0x312>
   1064c:	00001097          	auipc	ra,0x1
   10650:	122080e7          	jalr	290(ra) # 1176e <_Z11MicroPrintfPKcz>
   10654:	00065797          	auipc	a5,0x65
   10658:	2407a503          	lw	a0,576(a5) # 75894 <_ZN12_GLOBAL__N_111interpreterE>
   1065c:	4581                	li	a1,0
   1065e:	00000097          	auipc	ra,0x0
   10662:	2f8080e7          	jalr	760(ra) # 10956 <_ZN6tflite16MicroInterpreter6outputEj>
   10666:	491c                	lw	a5,16(a0)
   10668:	40b2                	lw	ra,12(sp)
   1066a:	00078583          	lb	a1,0(a5)
   1066e:	00178503          	lb	a0,1(a5)
   10672:	0141                	addi	sp,sp,16
   10674:	00000317          	auipc	t1,0x0
   10678:	b3830067          	jr	-1224(t1) # 101ac <_Z18RespondToDetectionaa>

0001067c <_ZN6tflite36MicroContextAllocatePersistentBufferEP13TfLiteContextj>:
   1067c:	4548                	lw	a0,12(a0)
   1067e:	411c                	lw	a5,0(a0)
   10680:	479c                	lw	a5,8(a5)
   10682:	8782                	jr	a5

00010684 <_ZN6tflite39MicroContextRequestScratchBufferInArenaEP13TfLiteContextjPi>:
   10684:	4548                	lw	a0,12(a0)
   10686:	411c                	lw	a5,0(a0)
   10688:	47dc                	lw	a5,12(a5)
   1068a:	8782                	jr	a5

0001068c <_ZN6tflite28MicroContextGetScratchBufferEP13TfLiteContexti>:
   1068c:	4548                	lw	a0,12(a0)
   1068e:	411c                	lw	a5,0(a0)
   10690:	4b9c                	lw	a5,16(a5)
   10692:	8782                	jr	a5

00010694 <_ZN6tflite21MicroContextGetTensorEPK13TfLiteContexti>:
   10694:	4548                	lw	a0,12(a0)
   10696:	411c                	lw	a5,0(a0)
   10698:	4bdc                	lw	a5,20(a5)
   1069a:	8782                	jr	a5

0001069c <_ZN6tflite25MicroContextGetEvalTensorEPK13TfLiteContexti>:
   1069c:	4548                	lw	a0,12(a0)
   1069e:	411c                	lw	a5,0(a0)
   106a0:	53dc                	lw	a5,36(a5)
   106a2:	8782                	jr	a5

000106a4 <_ZN6tflite30MicroContextGetExternalContextEP13TfLiteContext25TfLiteExternalContextType>:
   106a4:	4548                	lw	a0,12(a0)
   106a6:	411c                	lw	a5,0(a0)
   106a8:	57dc                	lw	a5,44(a5)
   106aa:	8782                	jr	a5

000106ac <_ZNK11flatbuffers5Table22GetOptionalFieldOffsetEt>:
   106ac:	411c                	lw	a5,0(a0)
   106ae:	8d1d                	sub	a0,a0,a5
   106b0:	00055783          	lhu	a5,0(a0)
   106b4:	00f5f663          	bgeu	a1,a5,106c0 <_ZNK11flatbuffers5Table22GetOptionalFieldOffsetEt+0x14>
   106b8:	952e                	add	a0,a0,a1
   106ba:	00055503          	lhu	a0,0(a0)
   106be:	8082                	ret
   106c0:	4501                	li	a0,0
   106c2:	8082                	ret

000106c4 <_ZN6tflite23EnumNameBuiltinOperatorENS_15BuiltinOperatorE>:
   106c4:	0ce00793          	li	a5,206
   106c8:	00a7ea63          	bltu	a5,a0,106dc <_ZN6tflite23EnumNameBuiltinOperatorENS_15BuiltinOperatorE+0x18>
   106cc:	00064797          	auipc	a5,0x64
   106d0:	bdc78793          	addi	a5,a5,-1060 # 742a8 <_ZZN6tflite24EnumNamesBuiltinOperatorEvE5names>
   106d4:	050a                	slli	a0,a0,0x2
   106d6:	953e                	add	a0,a0,a5
   106d8:	4108                	lw	a0,0(a0)
   106da:	8082                	ret
   106dc:	00019517          	auipc	a0,0x19
   106e0:	f1450513          	addi	a0,a0,-236 # 295f0 <__extenddftf2+0x15c2>
   106e4:	8082                	ret

000106e6 <_ZNK6tflite5Model9subgraphsEv>:
   106e6:	1141                	addi	sp,sp,-16
   106e8:	45a1                	li	a1,8
   106ea:	c422                	sw	s0,8(sp)
   106ec:	c606                	sw	ra,12(sp)
   106ee:	842a                	mv	s0,a0
   106f0:	00000097          	auipc	ra,0x0
   106f4:	fbc080e7          	jalr	-68(ra) # 106ac <_ZNK11flatbuffers5Table22GetOptionalFieldOffsetEt>
   106f8:	c901                	beqz	a0,10708 <_ZNK6tflite5Model9subgraphsEv+0x22>
   106fa:	9522                	add	a0,a0,s0
   106fc:	411c                	lw	a5,0(a0)
   106fe:	953e                	add	a0,a0,a5
   10700:	40b2                	lw	ra,12(sp)
   10702:	4422                	lw	s0,8(sp)
   10704:	0141                	addi	sp,sp,16
   10706:	8082                	ret
   10708:	4501                	li	a0,0
   1070a:	bfdd                	j	10700 <_ZNK6tflite5Model9subgraphsEv+0x1a>

0001070c <_ZN6tflite16MicroInterpreter4InitEPNS_22MicroProfilerInterfaceE>:
   1070c:	1141                	addi	sp,sp,-16
   1070e:	c04a                	sw	s2,0(sp)
   10710:	0a850913          	addi	s2,a0,168
   10714:	c422                	sw	s0,8(sp)
   10716:	c226                	sw	s1,4(sp)
   10718:	842a                	mv	s0,a0
   1071a:	84ae                	mv	s1,a1
   1071c:	854a                	mv	a0,s2
   1071e:	4581                	li	a1,0
   10720:	c606                	sw	ra,12(sp)
   10722:	00001097          	auipc	ra,0x1
   10726:	9b4080e7          	jalr	-1612(ra) # 110d6 <_ZN6tflite23MicroInterpreterContext19SetInterpreterStateENS0_16InterpreterStateE>
   1072a:	00009797          	auipc	a5,0x9
   1072e:	17478793          	addi	a5,a5,372 # 1989e <_ZN6tflite25MicroContextReportOpErrorEP13TfLiteContextPKcz>
   10732:	cc5c                	sw	a5,28(s0)
   10734:	00000797          	auipc	a5,0x0
   10738:	f6078793          	addi	a5,a5,-160 # 10694 <_ZN6tflite21MicroContextGetTensorEPK13TfLiteContexti>
   1073c:	cc3c                	sw	a5,88(s0)
   1073e:	00000797          	auipc	a5,0x0
   10742:	f5e78793          	addi	a5,a5,-162 # 1069c <_ZN6tflite25MicroContextGetEvalTensorEPK13TfLiteContexti>
   10746:	cc7c                	sw	a5,92(s0)
   10748:	00000797          	auipc	a5,0x0
   1074c:	f3c78793          	addi	a5,a5,-196 # 10684 <_ZN6tflite39MicroContextRequestScratchBufferInArenaEP13TfLiteContextjPi>
   10750:	c43c                	sw	a5,72(s0)
   10752:	00000797          	auipc	a5,0x0
   10756:	f5278793          	addi	a5,a5,-174 # 106a4 <_ZN6tflite30MicroContextGetExternalContextEP13TfLiteContext25TfLiteExternalContextType>
   1075a:	d81c                	sw	a5,48(s0)
   1075c:	00000797          	auipc	a5,0x0
   10760:	f2078793          	addi	a5,a5,-224 # 1067c <_ZN6tflite36MicroContextAllocatePersistentBufferEP13TfLiteContextj>
   10764:	c03c                	sw	a5,64(s0)
   10766:	00000797          	auipc	a5,0x0
   1076a:	f2678793          	addi	a5,a5,-218 # 1068c <_ZN6tflite28MicroContextGetScratchBufferEP13TfLiteContexti>
   1076e:	01242a23          	sw	s2,20(s0)
   10772:	dc44                	sw	s1,60(s0)
   10774:	40b2                	lw	ra,12(sp)
   10776:	c47c                	sw	a5,76(s0)
   10778:	08042c23          	sw	zero,152(s0)
   1077c:	4422                	lw	s0,8(sp)
   1077e:	4492                	lw	s1,4(sp)
   10780:	4902                	lw	s2,0(sp)
   10782:	0141                	addi	sp,sp,16
   10784:	8082                	ret

00010786 <_ZN6tflite16MicroInterpreterC1EPKNS_5ModelERKNS_15MicroOpResolverEPhjPNS_22MicroResourceVariablesEPNS_22MicroProfilerInterfaceEb>:
   10786:	7179                	addi	sp,sp,-48
   10788:	d606                	sw	ra,44(sp)
   1078a:	d422                	sw	s0,40(sp)
   1078c:	d226                	sw	s1,36(sp)
   1078e:	d04a                	sw	s2,32(sp)
   10790:	ce4e                	sw	s3,28(sp)
   10792:	cc52                	sw	s4,24(sp)
   10794:	ca56                	sw	s5,20(sp)
   10796:	c85a                	sw	s6,16(sp)
   10798:	c65e                	sw	s7,12(sp)
   1079a:	00850b93          	addi	s7,a0,8
   1079e:	842a                	mv	s0,a0
   107a0:	84ae                	mv	s1,a1
   107a2:	c10c                	sw	a1,0(a0)
   107a4:	c150                	sw	a2,4(a0)
   107a6:	4581                	li	a1,0
   107a8:	06400613          	li	a2,100
   107ac:	855e                	mv	a0,s7
   107ae:	89be                	mv	s3,a5
   107b0:	8942                	mv	s2,a6
   107b2:	8b46                	mv	s6,a7
   107b4:	8a36                	mv	s4,a3
   107b6:	8aba                	mv	s5,a4
   107b8:	00012097          	auipc	ra,0x12
   107bc:	d1a080e7          	jalr	-742(ra) # 224d2 <memset>
   107c0:	865a                	mv	a2,s6
   107c2:	85d6                	mv	a1,s5
   107c4:	8552                	mv	a0,s4
   107c6:	00008097          	auipc	ra,0x8
   107ca:	560080e7          	jalr	1376(ra) # 18d26 <_ZN6tflite14MicroAllocator6CreateEPhjNS_17MemoryPlannerTypeE>
   107ce:	07040a13          	addi	s4,s0,112
   107d2:	86aa                	mv	a3,a0
   107d4:	d468                	sw	a0,108(s0)
   107d6:	874e                	mv	a4,s3
   107d8:	8626                	mv	a2,s1
   107da:	85de                	mv	a1,s7
   107dc:	8552                	mv	a0,s4
   107de:	00001097          	auipc	ra,0x1
   107e2:	cb0080e7          	jalr	-848(ra) # 1148e <_ZN6tflite21MicroInterpreterGraphC1EP13TfLiteContextPKNS_5ModelEPNS_14MicroAllocatorEPNS_22MicroResourceVariablesE>
   107e6:	546c                	lw	a1,108(s0)
   107e8:	4010                	lw	a2,0(s0)
   107ea:	4785                	li	a5,1
   107ec:	0a840513          	addi	a0,s0,168
   107f0:	08040a23          	sb	zero,148(s0)
   107f4:	08f42c23          	sw	a5,152(s0)
   107f8:	08042e23          	sw	zero,156(s0)
   107fc:	0a042023          	sw	zero,160(s0)
   10800:	0a042223          	sw	zero,164(s0)
   10804:	86d2                	mv	a3,s4
   10806:	00001097          	auipc	ra,0x1
   1080a:	8ae080e7          	jalr	-1874(ra) # 110b4 <_ZN6tflite23MicroInterpreterContextC1EPNS_14MicroAllocatorEPKNS_5ModelEPNS_21MicroInterpreterGraphE>
   1080e:	8522                	mv	a0,s0
   10810:	5422                	lw	s0,40(sp)
   10812:	50b2                	lw	ra,44(sp)
   10814:	5492                	lw	s1,36(sp)
   10816:	49f2                	lw	s3,28(sp)
   10818:	4a62                	lw	s4,24(sp)
   1081a:	4ad2                	lw	s5,20(sp)
   1081c:	4b42                	lw	s6,16(sp)
   1081e:	4bb2                	lw	s7,12(sp)
   10820:	85ca                	mv	a1,s2
   10822:	5902                	lw	s2,32(sp)
   10824:	6145                	addi	sp,sp,48
   10826:	00000317          	auipc	t1,0x0
   1082a:	ee630067          	jr	-282(t1) # 1070c <_ZN6tflite16MicroInterpreter4InitEPNS_22MicroProfilerInterfaceE>

0001082e <_ZNK11flatbuffers6VectorIlmE3GetEm>:
   1082e:	411c                	lw	a5,0(a0)
   10830:	02f5e663          	bltu	a1,a5,1085c <_ZNK11flatbuffers6VectorIlmE3GetEm+0x2e>
   10834:	00018697          	auipc	a3,0x18
   10838:	00018617          	auipc	a2,0x18
   1083c:	00018517          	auipc	a0,0x18
   10840:	1141                	addi	sp,sp,-16
   10842:	b1c68693          	addi	a3,a3,-1252 # 28350 <__extenddftf2+0x322>
   10846:	b2460613          	addi	a2,a2,-1244 # 2835c <__extenddftf2+0x32e>
   1084a:	0b000593          	li	a1,176
   1084e:	bc450513          	addi	a0,a0,-1084 # 28400 <__extenddftf2+0x3d2>
   10852:	c606                	sw	ra,12(sp)
   10854:	0000e097          	auipc	ra,0xe
   10858:	300080e7          	jalr	768(ra) # 1eb54 <__assert_func>
   1085c:	0585                	addi	a1,a1,1
   1085e:	058a                	slli	a1,a1,0x2
   10860:	952e                	add	a0,a0,a1
   10862:	4108                	lw	a0,0(a0)
   10864:	8082                	ret

00010866 <_ZNK11flatbuffers6VectorINS_6OffsetIN6tflite8SubGraphEEEmE3GetEm>:
   10866:	411c                	lw	a5,0(a0)
   10868:	02f5e663          	bltu	a1,a5,10894 <_ZNK11flatbuffers6VectorINS_6OffsetIN6tflite8SubGraphEEEmE3GetEm+0x2e>
   1086c:	00018697          	auipc	a3,0x18
   10870:	00018617          	auipc	a2,0x18
   10874:	00018517          	auipc	a0,0x18
   10878:	1141                	addi	sp,sp,-16
   1087a:	ae468693          	addi	a3,a3,-1308 # 28350 <__extenddftf2+0x322>
   1087e:	be460613          	addi	a2,a2,-1052 # 28454 <__extenddftf2+0x426>
   10882:	0b000593          	li	a1,176
   10886:	b8c50513          	addi	a0,a0,-1140 # 28400 <__extenddftf2+0x3d2>
   1088a:	c606                	sw	ra,12(sp)
   1088c:	0000e097          	auipc	ra,0xe
   10890:	2c8080e7          	jalr	712(ra) # 1eb54 <__assert_func>
   10894:	0585                	addi	a1,a1,1
   10896:	058a                	slli	a1,a1,0x2
   10898:	952e                	add	a0,a0,a1
   1089a:	411c                	lw	a5,0(a0)
   1089c:	953e                	add	a0,a0,a5
   1089e:	8082                	ret

000108a0 <_ZN11flatbuffers5Table10GetPointerIPKNS_6VectorIlmEEmEET_t>:
   108a0:	1141                	addi	sp,sp,-16
   108a2:	c422                	sw	s0,8(sp)
   108a4:	c606                	sw	ra,12(sp)
   108a6:	842a                	mv	s0,a0
   108a8:	00000097          	auipc	ra,0x0
   108ac:	e04080e7          	jalr	-508(ra) # 106ac <_ZNK11flatbuffers5Table22GetOptionalFieldOffsetEt>
   108b0:	c901                	beqz	a0,108c0 <_ZN11flatbuffers5Table10GetPointerIPKNS_6VectorIlmEEmEET_t+0x20>
   108b2:	9522                	add	a0,a0,s0
   108b4:	411c                	lw	a5,0(a0)
   108b6:	953e                	add	a0,a0,a5
   108b8:	40b2                	lw	ra,12(sp)
   108ba:	4422                	lw	s0,8(sp)
   108bc:	0141                	addi	sp,sp,16
   108be:	8082                	ret
   108c0:	4501                	li	a0,0
   108c2:	bfdd                	j	108b8 <_ZN11flatbuffers5Table10GetPointerIPKNS_6VectorIlmEEmEET_t+0x18>

000108c4 <_ZNK6tflite16MicroInterpreter11inputs_sizeEv.isra.0>:
   108c4:	1141                	addi	sp,sp,-16
   108c6:	c606                	sw	ra,12(sp)
   108c8:	00000097          	auipc	ra,0x0
   108cc:	e1e080e7          	jalr	-482(ra) # 106e6 <_ZNK6tflite5Model9subgraphsEv>
   108d0:	4581                	li	a1,0
   108d2:	00000097          	auipc	ra,0x0
   108d6:	f94080e7          	jalr	-108(ra) # 10866 <_ZNK11flatbuffers6VectorINS_6OffsetIN6tflite8SubGraphEEEmE3GetEm>
   108da:	4599                	li	a1,6
   108dc:	00000097          	auipc	ra,0x0
   108e0:	fc4080e7          	jalr	-60(ra) # 108a0 <_ZN11flatbuffers5Table10GetPointerIPKNS_6VectorIlmEEmEET_t>
   108e4:	40b2                	lw	ra,12(sp)
   108e6:	4108                	lw	a0,0(a0)
   108e8:	0141                	addi	sp,sp,16
   108ea:	8082                	ret

000108ec <_ZN6tflite16MicroInterpreter5inputEj>:
   108ec:	1101                	addi	sp,sp,-32
   108ee:	cc22                	sw	s0,24(sp)
   108f0:	842a                	mv	s0,a0
   108f2:	4108                	lw	a0,0(a0)
   108f4:	c62e                	sw	a1,12(sp)
   108f6:	ce06                	sw	ra,28(sp)
   108f8:	00000097          	auipc	ra,0x0
   108fc:	fcc080e7          	jalr	-52(ra) # 108c4 <_ZNK6tflite16MicroInterpreter11inputs_sizeEv.isra.0>
   10900:	45b2                	lw	a1,12(sp)
   10902:	02a5e063          	bltu	a1,a0,10922 <_ZN6tflite16MicroInterpreter5inputEj+0x36>
   10906:	862a                	mv	a2,a0
   10908:	00018517          	auipc	a0,0x18
   1090c:	c1c50513          	addi	a0,a0,-996 # 28524 <__extenddftf2+0x4f6>
   10910:	00001097          	auipc	ra,0x1
   10914:	e5e080e7          	jalr	-418(ra) # 1176e <_Z11MicroPrintfPKcz>
   10918:	4501                	li	a0,0
   1091a:	40f2                	lw	ra,28(sp)
   1091c:	4462                	lw	s0,24(sp)
   1091e:	6105                	addi	sp,sp,32
   10920:	8082                	ret
   10922:	0a042783          	lw	a5,160(s0)
   10926:	058a                	slli	a1,a1,0x2
   10928:	97ae                	add	a5,a5,a1
   1092a:	4388                	lw	a0,0(a5)
   1092c:	b7fd                	j	1091a <_ZN6tflite16MicroInterpreter5inputEj+0x2e>

0001092e <_ZNK6tflite16MicroInterpreter12outputs_sizeEv.isra.0>:
   1092e:	1141                	addi	sp,sp,-16
   10930:	c606                	sw	ra,12(sp)
   10932:	00000097          	auipc	ra,0x0
   10936:	db4080e7          	jalr	-588(ra) # 106e6 <_ZNK6tflite5Model9subgraphsEv>
   1093a:	4581                	li	a1,0
   1093c:	00000097          	auipc	ra,0x0
   10940:	f2a080e7          	jalr	-214(ra) # 10866 <_ZNK11flatbuffers6VectorINS_6OffsetIN6tflite8SubGraphEEEmE3GetEm>
   10944:	45a1                	li	a1,8
   10946:	00000097          	auipc	ra,0x0
   1094a:	f5a080e7          	jalr	-166(ra) # 108a0 <_ZN11flatbuffers5Table10GetPointerIPKNS_6VectorIlmEEmEET_t>
   1094e:	40b2                	lw	ra,12(sp)
   10950:	4108                	lw	a0,0(a0)
   10952:	0141                	addi	sp,sp,16
   10954:	8082                	ret

00010956 <_ZN6tflite16MicroInterpreter6outputEj>:
   10956:	1101                	addi	sp,sp,-32
   10958:	cc22                	sw	s0,24(sp)
   1095a:	842a                	mv	s0,a0
   1095c:	4108                	lw	a0,0(a0)
   1095e:	c62e                	sw	a1,12(sp)
   10960:	ce06                	sw	ra,28(sp)
   10962:	00000097          	auipc	ra,0x0
   10966:	fcc080e7          	jalr	-52(ra) # 1092e <_ZNK6tflite16MicroInterpreter12outputs_sizeEv.isra.0>
   1096a:	45b2                	lw	a1,12(sp)
   1096c:	02a5e063          	bltu	a1,a0,1098c <_ZN6tflite16MicroInterpreter6outputEj+0x36>
   10970:	862a                	mv	a2,a0
   10972:	00018517          	auipc	a0,0x18
   10976:	bde50513          	addi	a0,a0,-1058 # 28550 <__extenddftf2+0x522>
   1097a:	00001097          	auipc	ra,0x1
   1097e:	df4080e7          	jalr	-524(ra) # 1176e <_Z11MicroPrintfPKcz>
   10982:	4501                	li	a0,0
   10984:	40f2                	lw	ra,28(sp)
   10986:	4462                	lw	s0,24(sp)
   10988:	6105                	addi	sp,sp,32
   1098a:	8082                	ret
   1098c:	0a442783          	lw	a5,164(s0)
   10990:	058a                	slli	a1,a1,0x2
   10992:	97ae                	add	a5,a5,a1
   10994:	4388                	lw	a0,0(a5)
   10996:	b7fd                	j	10984 <_ZN6tflite16MicroInterpreter6outputEj+0x2e>

00010998 <_ZN6tflite16MicroInterpreterD1Ev>:
   10998:	08052783          	lw	a5,128(a0)
   1099c:	1141                	addi	sp,sp,-16
   1099e:	c422                	sw	s0,8(sp)
   109a0:	c226                	sw	s1,4(sp)
   109a2:	c606                	sw	ra,12(sp)
   109a4:	842a                	mv	s0,a0
   109a6:	07050493          	addi	s1,a0,112
   109aa:	c791                	beqz	a5,109b6 <_ZN6tflite16MicroInterpreterD1Ev+0x1e>
   109ac:	8526                	mv	a0,s1
   109ae:	00001097          	auipc	ra,0x1
   109b2:	84a080e7          	jalr	-1974(ra) # 111f8 <_ZN6tflite21MicroInterpreterGraph13FreeSubgraphsEv>
   109b6:	0a840513          	addi	a0,s0,168
   109ba:	00000097          	auipc	ra,0x0
   109be:	5de080e7          	jalr	1502(ra) # 10f98 <_ZN6tflite23MicroInterpreterContextD0Ev>
   109c2:	4422                	lw	s0,8(sp)
   109c4:	40b2                	lw	ra,12(sp)
   109c6:	8526                	mv	a0,s1
   109c8:	4492                	lw	s1,4(sp)
   109ca:	0141                	addi	sp,sp,16
   109cc:	00000317          	auipc	t1,0x0
   109d0:	71230067          	jr	1810(t1) # 110de <_ZN6tflite21MicroInterpreterGraphD0Ev>

000109d4 <_ZN6tflite16MicroInterpreter44PrepareNodeAndRegistrationDataFromFlatbufferEv>:
   109d4:	7159                	addi	sp,sp,-112
   109d6:	07050793          	addi	a5,a0,112
   109da:	d2a6                	sw	s1,100(sp)
   109dc:	c8da                	sw	s6,80(sp)
   109de:	de6e                	sw	s11,60(sp)
   109e0:	d686                	sw	ra,108(sp)
   109e2:	d4a2                	sw	s0,104(sp)
   109e4:	d0ca                	sw	s2,96(sp)
   109e6:	cece                	sw	s3,92(sp)
   109e8:	ccd2                	sw	s4,88(sp)
   109ea:	cad6                	sw	s5,84(sp)
   109ec:	c6de                	sw	s7,76(sp)
   109ee:	c4e2                	sw	s8,72(sp)
   109f0:	c2e6                	sw	s9,68(sp)
   109f2:	c0ea                	sw	s10,64(sp)
   109f4:	84aa                	mv	s1,a0
   109f6:	4b01                	li	s6,0
   109f8:	c83e                	sw	a5,16(sp)
   109fa:	02000d93          	li	s11,32
   109fe:	4542                	lw	a0,16(sp)
   10a00:	00001097          	auipc	ra,0x1
   10a04:	95a080e7          	jalr	-1702(ra) # 1135a <_ZN6tflite21MicroInterpreterGraph12NumSubgraphsEv>
   10a08:	00ab4463          	blt	s6,a0,10a10 <_ZN6tflite16MicroInterpreter44PrepareNodeAndRegistrationDataFromFlatbufferEv+0x3c>
   10a0c:	4501                	li	a0,0
   10a0e:	a291                	j	10b52 <_ZN6tflite16MicroInterpreter44PrepareNodeAndRegistrationDataFromFlatbufferEv+0x17e>
   10a10:	4080                	lw	s0,0(s1)
   10a12:	8522                	mv	a0,s0
   10a14:	00000097          	auipc	ra,0x0
   10a18:	cd2080e7          	jalr	-814(ra) # 106e6 <_ZNK6tflite5Model9subgraphsEv>
   10a1c:	85da                	mv	a1,s6
   10a1e:	00000097          	auipc	ra,0x0
   10a22:	e48080e7          	jalr	-440(ra) # 10866 <_ZNK11flatbuffers6VectorINS_6OffsetIN6tflite8SubGraphEEEmE3GetEm>
   10a26:	8a2a                	mv	s4,a0
   10a28:	e911                	bnez	a0,10a3c <_ZN6tflite16MicroInterpreter44PrepareNodeAndRegistrationDataFromFlatbufferEv+0x68>
   10a2a:	00017517          	auipc	a0,0x17
   10a2e:	7aa50513          	addi	a0,a0,1962 # 281d4 <__extenddftf2+0x1a6>
   10a32:	00001097          	auipc	ra,0x1
   10a36:	d3c080e7          	jalr	-708(ra) # 1176e <_Z11MicroPrintfPKcz>
   10a3a:	a001                	j	10a3a <_ZN6tflite16MicroInterpreter44PrepareNodeAndRegistrationDataFromFlatbufferEv+0x66>
   10a3c:	4599                	li	a1,6
   10a3e:	8522                	mv	a0,s0
   10a40:	00000097          	auipc	ra,0x0
   10a44:	c6c080e7          	jalr	-916(ra) # 106ac <_ZNK11flatbuffers5Table22GetOptionalFieldOffsetEt>
   10a48:	4b81                	li	s7,0
   10a4a:	c509                	beqz	a0,10a54 <_ZN6tflite16MicroInterpreter44PrepareNodeAndRegistrationDataFromFlatbufferEv+0x80>
   10a4c:	942a                	add	s0,s0,a0
   10a4e:	00042b83          	lw	s7,0(s0)
   10a52:	9ba2                	add	s7,s7,s0
   10a54:	54e8                	lw	a0,108(s1)
   10a56:	003b1d13          	slli	s10,s6,0x3
   10a5a:	4981                	li	s3,0
   10a5c:	00008097          	auipc	ra,0x8
   10a60:	568080e7          	jalr	1384(ra) # 18fc4 <_ZN6tflite14MicroAllocator23GetBuiltinDataAllocatorEv>
   10a64:	c62a                	sw	a0,12(sp)
   10a66:	8552                	mv	a0,s4
   10a68:	00008097          	auipc	ra,0x8
   10a6c:	dd0080e7          	jalr	-560(ra) # 18838 <_ZN6tflite20NumSubgraphOperatorsEPKNS_8SubGraphE>
   10a70:	8caa                	mv	s9,a0
   10a72:	01999463          	bne	s3,s9,10a7a <_ZN6tflite16MicroInterpreter44PrepareNodeAndRegistrationDataFromFlatbufferEv+0xa6>
   10a76:	0b05                	addi	s6,s6,1
   10a78:	b759                	j	109fe <_ZN6tflite16MicroInterpreter44PrepareNodeAndRegistrationDataFromFlatbufferEv+0x2a>
   10a7a:	45a9                	li	a1,10
   10a7c:	8552                	mv	a0,s4
   10a7e:	00000097          	auipc	ra,0x0
   10a82:	c2e080e7          	jalr	-978(ra) # 106ac <_ZNK11flatbuffers5Table22GetOptionalFieldOffsetEt>
   10a86:	4401                	li	s0,0
   10a88:	c501                	beqz	a0,10a90 <_ZN6tflite16MicroInterpreter44PrepareNodeAndRegistrationDataFromFlatbufferEv+0xbc>
   10a8a:	9552                	add	a0,a0,s4
   10a8c:	4100                	lw	s0,0(a0)
   10a8e:	942a                	add	s0,s0,a0
   10a90:	401c                	lw	a5,0(s0)
   10a92:	02f9e463          	bltu	s3,a5,10aba <_ZN6tflite16MicroInterpreter44PrepareNodeAndRegistrationDataFromFlatbufferEv+0xe6>
   10a96:	00018697          	auipc	a3,0x18
   10a9a:	00018617          	auipc	a2,0x18
   10a9e:	00018517          	auipc	a0,0x18
   10aa2:	8ba68693          	addi	a3,a3,-1862 # 28350 <__extenddftf2+0x322>
   10aa6:	ae260613          	addi	a2,a2,-1310 # 2857c <__extenddftf2+0x54e>
   10aaa:	0b000593          	li	a1,176
   10aae:	96250513          	addi	a0,a0,-1694 # 28400 <__extenddftf2+0x3d2>
   10ab2:	0000e097          	auipc	ra,0xe
   10ab6:	0a2080e7          	jalr	162(ra) # 1eb54 <__assert_func>
   10aba:	0985                	addi	s3,s3,1
   10abc:	00299793          	slli	a5,s3,0x2
   10ac0:	943e                	add	s0,s0,a5
   10ac2:	401c                	lw	a5,0(s0)
   10ac4:	4591                	li	a1,4
   10ac6:	943e                	add	s0,s0,a5
   10ac8:	8522                	mv	a0,s0
   10aca:	00000097          	auipc	ra,0x0
   10ace:	be2080e7          	jalr	-1054(ra) # 106ac <_ZNK11flatbuffers5Table22GetOptionalFieldOffsetEt>
   10ad2:	4781                	li	a5,0
   10ad4:	c119                	beqz	a0,10ada <_ZN6tflite16MicroInterpreter44PrepareNodeAndRegistrationDataFromFlatbufferEv+0x106>
   10ad6:	9522                	add	a0,a0,s0
   10ad8:	411c                	lw	a5,0(a0)
   10ada:	000ba703          	lw	a4,0(s7)
   10ade:	00e7ed63          	bltu	a5,a4,10af8 <_ZN6tflite16MicroInterpreter44PrepareNodeAndRegistrationDataFromFlatbufferEv+0x124>
   10ae2:	00018517          	auipc	a0,0x18
   10ae6:	85be                	mv	a1,a5
   10ae8:	b6a50513          	addi	a0,a0,-1174 # 2864c <__extenddftf2+0x61e>
   10aec:	00001097          	auipc	ra,0x1
   10af0:	c82080e7          	jalr	-894(ra) # 1176e <_Z11MicroPrintfPKcz>
   10af4:	4505                	li	a0,1
   10af6:	a8b1                	j	10b52 <_ZN6tflite16MicroInterpreter44PrepareNodeAndRegistrationDataFromFlatbufferEv+0x17e>
   10af8:	00178913          	addi	s2,a5,1
   10afc:	090a                	slli	s2,s2,0x2
   10afe:	995e                	add	s2,s2,s7
   10b00:	00092703          	lw	a4,0(s2)
   10b04:	00599c13          	slli	s8,s3,0x5
   10b08:	40cc                	lw	a1,4(s1)
   10b0a:	993a                	add	s2,s2,a4
   10b0c:	0804a703          	lw	a4,128(s1)
   10b10:	1c01                	addi	s8,s8,-32
   10b12:	854a                	mv	a0,s2
   10b14:	976a                	add	a4,a4,s10
   10b16:	4310                	lw	a2,0(a4)
   10b18:	ca3e                	sw	a5,20(sp)
   10b1a:	9662                	add	a2,a2,s8
   10b1c:	0671                	addi	a2,a2,28
   10b1e:	00001097          	auipc	ra,0x1
   10b22:	c74080e7          	jalr	-908(ra) # 11792 <_ZN6tflite25GetRegistrationFromOpCodeEPKNS_12OperatorCodeERKNS_15MicroOpResolverEPPK16TFLMRegistration>
   10b26:	47d2                	lw	a5,20(sp)
   10b28:	8aaa                	mv	s5,a0
   10b2a:	c139                	beqz	a0,10b70 <_ZN6tflite16MicroInterpreter44PrepareNodeAndRegistrationDataFromFlatbufferEv+0x19c>
   10b2c:	854a                	mv	a0,s2
   10b2e:	00001097          	auipc	ra,0x1
   10b32:	536080e7          	jalr	1334(ra) # 12064 <_ZN6tflite14GetBuiltinCodeEPKNS_12OperatorCodeE>
   10b36:	00000097          	auipc	ra,0x0
   10b3a:	b8e080e7          	jalr	-1138(ra) # 106c4 <_ZN6tflite23EnumNameBuiltinOperatorENS_15BuiltinOperatorE>
   10b3e:	85aa                	mv	a1,a0
   10b40:	00018517          	auipc	a0,0x18
   10b44:	b3850513          	addi	a0,a0,-1224 # 28678 <__extenddftf2+0x64a>
   10b48:	00001097          	auipc	ra,0x1
   10b4c:	c26080e7          	jalr	-986(ra) # 1176e <_Z11MicroPrintfPKcz>
   10b50:	8556                	mv	a0,s5
   10b52:	50b6                	lw	ra,108(sp)
   10b54:	5426                	lw	s0,104(sp)
   10b56:	5496                	lw	s1,100(sp)
   10b58:	5906                	lw	s2,96(sp)
   10b5a:	49f6                	lw	s3,92(sp)
   10b5c:	4a66                	lw	s4,88(sp)
   10b5e:	4ad6                	lw	s5,84(sp)
   10b60:	4b46                	lw	s6,80(sp)
   10b62:	4bb6                	lw	s7,76(sp)
   10b64:	4c26                	lw	s8,72(sp)
   10b66:	4c96                	lw	s9,68(sp)
   10b68:	4d06                	lw	s10,64(sp)
   10b6a:	5df2                	lw	s11,60(sp)
   10b6c:	6165                	addi	sp,sp,112
   10b6e:	8082                	ret
   10b70:	0804a703          	lw	a4,128(s1)
   10b74:	976a                	add	a4,a4,s10
   10b76:	4318                	lw	a4,0(a4)
   10b78:	9762                	add	a4,a4,s8
   10b7a:	4f58                	lw	a4,28(a4)
   10b7c:	e719                	bnez	a4,10b8a <_ZN6tflite16MicroInterpreter44PrepareNodeAndRegistrationDataFromFlatbufferEv+0x1b6>
   10b7e:	00018517          	auipc	a0,0x18
   10b82:	85be                	mv	a1,a5
   10b84:	b2a50513          	addi	a0,a0,-1238 # 286a8 <__extenddftf2+0x67a>
   10b88:	b795                	j	10aec <_ZN6tflite16MicroInterpreter44PrepareNodeAndRegistrationDataFromFlatbufferEv+0x118>
   10b8a:	01472903          	lw	s2,20(a4) # 22014 <__swsetup_r+0x24>
   10b8e:	d602                	sw	zero,44(sp)
   10b90:	45b9                	li	a1,14
   10b92:	8522                	mv	a0,s0
   10b94:	0bb91563          	bne	s2,s11,10c3e <_ZN6tflite16MicroInterpreter44PrepareNodeAndRegistrationDataFromFlatbufferEv+0x26a>
   10b98:	00000097          	auipc	ra,0x0
   10b9c:	b14080e7          	jalr	-1260(ra) # 106ac <_ZNK11flatbuffers5Table22GetOptionalFieldOffsetEt>
   10ba0:	e551                	bnez	a0,10c2c <_ZN6tflite16MicroInterpreter44PrepareNodeAndRegistrationDataFromFlatbufferEv+0x258>
   10ba2:	4801                	li	a6,0
   10ba4:	4599                	li	a1,6
   10ba6:	8522                	mv	a0,s0
   10ba8:	ce42                	sw	a6,28(sp)
   10baa:	00000097          	auipc	ra,0x0
   10bae:	cf6080e7          	jalr	-778(ra) # 108a0 <_ZN11flatbuffers5Table10GetPointerIPKNS_6VectorIlmEEmEET_t>
   10bb2:	00008097          	auipc	ra,0x8
   10bb6:	d0e080e7          	jalr	-754(ra) # 188c0 <_ZN6tflite33FlatBufferVectorToTfLiteTypeArrayEPKN11flatbuffers6VectorIlmEE>
   10bba:	45a1                	li	a1,8
   10bbc:	cc2a                	sw	a0,24(sp)
   10bbe:	8522                	mv	a0,s0
   10bc0:	00000097          	auipc	ra,0x0
   10bc4:	ce0080e7          	jalr	-800(ra) # 108a0 <_ZN11flatbuffers5Table10GetPointerIPKNS_6VectorIlmEEmEET_t>
   10bc8:	00008097          	auipc	ra,0x8
   10bcc:	cf8080e7          	jalr	-776(ra) # 188c0 <_ZN6tflite33FlatBufferVectorToTfLiteTypeArrayEPKN11flatbuffers6VectorIlmEE>
   10bd0:	0804a683          	lw	a3,128(s1)
   10bd4:	ca2a                	sw	a0,20(sp)
   10bd6:	4581                	li	a1,0
   10bd8:	96ea                	add	a3,a3,s10
   10bda:	0006a903          	lw	s2,0(a3)
   10bde:	4671                	li	a2,28
   10be0:	9962                	add	s2,s2,s8
   10be2:	854a                	mv	a0,s2
   10be4:	00012097          	auipc	ra,0x12
   10be8:	8ee080e7          	jalr	-1810(ra) # 224d2 <memset>
   10bec:	47d2                	lw	a5,20(sp)
   10bee:	4762                	lw	a4,24(sp)
   10bf0:	4872                	lw	a6,28(sp)
   10bf2:	00f92223          	sw	a5,4(s2)
   10bf6:	57b2                	lw	a5,44(sp)
   10bf8:	00e92023          	sw	a4,0(s2)
   10bfc:	01092a23          	sw	a6,20(s2)
   10c00:	00f92823          	sw	a5,16(s2)
   10c04:	01592c23          	sw	s5,24(s2)
   10c08:	45d1                	li	a1,20
   10c0a:	8522                	mv	a0,s0
   10c0c:	00000097          	auipc	ra,0x0
   10c10:	c94080e7          	jalr	-876(ra) # 108a0 <_ZN11flatbuffers5Table10GetPointerIPKNS_6VectorIlmEEmEET_t>
   10c14:	e4050fe3          	beqz	a0,10a72 <_ZN6tflite16MicroInterpreter44PrepareNodeAndRegistrationDataFromFlatbufferEv+0x9e>
   10c18:	411c                	lw	a5,0(a0)
   10c1a:	e4078ce3          	beqz	a5,10a72 <_ZN6tflite16MicroInterpreter44PrepareNodeAndRegistrationDataFromFlatbufferEv+0x9e>
   10c1e:	00008097          	auipc	ra,0x8
   10c22:	ca2080e7          	jalr	-862(ra) # 188c0 <_ZN6tflite33FlatBufferVectorToTfLiteTypeArrayEPKN11flatbuffers6VectorIlmEE>
   10c26:	00a92423          	sw	a0,8(s2)
   10c2a:	b5a1                	j	10a72 <_ZN6tflite16MicroInterpreter44PrepareNodeAndRegistrationDataFromFlatbufferEv+0x9e>
   10c2c:	9522                	add	a0,a0,s0
   10c2e:	411c                	lw	a5,0(a0)
   10c30:	953e                	add	a0,a0,a5
   10c32:	d925                	beqz	a0,10ba2 <_ZN6tflite16MicroInterpreter44PrepareNodeAndRegistrationDataFromFlatbufferEv+0x1ce>
   10c34:	00052a83          	lw	s5,0(a0)
   10c38:	00450813          	addi	a6,a0,4
   10c3c:	b7a5                	j	10ba4 <_ZN6tflite16MicroInterpreter44PrepareNodeAndRegistrationDataFromFlatbufferEv+0x1d0>
   10c3e:	00000097          	auipc	ra,0x0
   10c42:	a6e080e7          	jalr	-1426(ra) # 106ac <_ZNK11flatbuffers5Table22GetOptionalFieldOffsetEt>
   10c46:	c105                	beqz	a0,10c66 <_ZN6tflite16MicroInterpreter44PrepareNodeAndRegistrationDataFromFlatbufferEv+0x292>
   10c48:	9522                	add	a0,a0,s0
   10c4a:	411c                	lw	a5,0(a0)
   10c4c:	953e                	add	a0,a0,a5
   10c4e:	cd01                	beqz	a0,10c66 <_ZN6tflite16MicroInterpreter44PrepareNodeAndRegistrationDataFromFlatbufferEv+0x292>
   10c50:	854a                	mv	a0,s2
   10c52:	00000097          	auipc	ra,0x0
   10c56:	a72080e7          	jalr	-1422(ra) # 106c4 <_ZN6tflite23EnumNameBuiltinOperatorENS_15BuiltinOperatorE>
   10c5a:	85aa                	mv	a1,a0
   10c5c:	00018517          	auipc	a0,0x18
   10c60:	a7050513          	addi	a0,a0,-1424 # 286cc <__extenddftf2+0x69e>
   10c64:	b561                	j	10aec <_ZN6tflite16MicroInterpreter44PrepareNodeAndRegistrationDataFromFlatbufferEv+0x118>
   10c66:	40c8                	lw	a0,4(s1)
   10c68:	85ca                	mv	a1,s2
   10c6a:	411c                	lw	a5,0(a0)
   10c6c:	479c                	lw	a5,8(a5)
   10c6e:	9782                	jalr	a5
   10c70:	ed01                	bnez	a0,10c88 <_ZN6tflite16MicroInterpreter44PrepareNodeAndRegistrationDataFromFlatbufferEv+0x2b4>
   10c72:	854a                	mv	a0,s2
   10c74:	00000097          	auipc	ra,0x0
   10c78:	a50080e7          	jalr	-1456(ra) # 106c4 <_ZN6tflite23EnumNameBuiltinOperatorENS_15BuiltinOperatorE>
   10c7c:	85aa                	mv	a1,a0
   10c7e:	00018517          	auipc	a0,0x18
   10c82:	a9650513          	addi	a0,a0,-1386 # 28714 <__extenddftf2+0x6e6>
   10c86:	b59d                	j	10aec <_ZN6tflite16MicroInterpreter44PrepareNodeAndRegistrationDataFromFlatbufferEv+0x118>
   10c88:	4632                	lw	a2,12(sp)
   10c8a:	1074                	addi	a3,sp,44
   10c8c:	85a2                	mv	a1,s0
   10c8e:	00001097          	auipc	ra,0x1
   10c92:	c5c080e7          	jalr	-932(ra) # 118ea <_ZN6tflite24CallBuiltinParseFunctionEPF12TfLiteStatusPKNS_8OperatorEPNS_13ErrorReporterEPNS_20BuiltinDataAllocatorEPPvES3_S7_S9_>
   10c96:	d511                	beqz	a0,10ba2 <_ZN6tflite16MicroInterpreter44PrepareNodeAndRegistrationDataFromFlatbufferEv+0x1ce>
   10c98:	bd6d                	j	10b52 <_ZN6tflite16MicroInterpreter44PrepareNodeAndRegistrationDataFromFlatbufferEv+0x17e>

00010c9a <_ZN6tflite16MicroInterpreter5ResetEv>:
   10c9a:	1141                	addi	sp,sp,-16
   10c9c:	c422                	sw	s0,8(sp)
   10c9e:	07050413          	addi	s0,a0,112
   10ca2:	8522                	mv	a0,s0
   10ca4:	c606                	sw	ra,12(sp)
   10ca6:	00000097          	auipc	ra,0x0
   10caa:	4d4080e7          	jalr	1236(ra) # 1117a <_ZN6tflite21MicroInterpreterGraph14ResetSubgraphsEv>
   10cae:	e909                	bnez	a0,10cc0 <_ZN6tflite16MicroInterpreter5ResetEv+0x26>
   10cb0:	8522                	mv	a0,s0
   10cb2:	4422                	lw	s0,8(sp)
   10cb4:	40b2                	lw	ra,12(sp)
   10cb6:	0141                	addi	sp,sp,16
   10cb8:	00001317          	auipc	t1,0x1
   10cbc:	81630067          	jr	-2026(t1) # 114ce <_ZN6tflite21MicroInterpreterGraph20ResetVariableTensorsEv>
   10cc0:	40b2                	lw	ra,12(sp)
   10cc2:	4422                	lw	s0,8(sp)
   10cc4:	0141                	addi	sp,sp,16
   10cc6:	8082                	ret

00010cc8 <_ZN6tflite16MicroInterpreter15AllocateTensorsEv>:
   10cc8:	7139                	addi	sp,sp,-64
   10cca:	dc22                	sw	s0,56(sp)
   10ccc:	410c                	lw	a1,0(a0)
   10cce:	842a                	mv	s0,a0
   10cd0:	5568                	lw	a0,108(a0)
   10cd2:	de06                	sw	ra,60(sp)
   10cd4:	da26                	sw	s1,52(sp)
   10cd6:	d84a                	sw	s2,48(sp)
   10cd8:	d64e                	sw	s3,44(sp)
   10cda:	d452                	sw	s4,40(sp)
   10cdc:	d256                	sw	s5,36(sp)
   10cde:	d05a                	sw	s6,32(sp)
   10ce0:	ce5e                	sw	s7,28(sp)
   10ce2:	cc62                	sw	s8,24(sp)
   10ce4:	00008097          	auipc	ra,0x8
   10ce8:	146080e7          	jalr	326(ra) # 18e2a <_ZN6tflite14MicroAllocator20StartModelAllocationEPKNS_5ModelE>
   10cec:	e915                	bnez	a0,10d20 <_ZN6tflite16MicroInterpreter15AllocateTensorsEv+0x58>
   10cee:	00018517          	auipc	a0,0x18
   10cf2:	a4650513          	addi	a0,a0,-1466 # 28734 <__extenddftf2+0x706>
   10cf6:	00001097          	auipc	ra,0x1
   10cfa:	a78080e7          	jalr	-1416(ra) # 1176e <_Z11MicroPrintfPKcz>
   10cfe:	4785                	li	a5,1
   10d00:	08f42c23          	sw	a5,152(s0)
   10d04:	4485                	li	s1,1
   10d06:	50f2                	lw	ra,60(sp)
   10d08:	5462                	lw	s0,56(sp)
   10d0a:	5942                	lw	s2,48(sp)
   10d0c:	59b2                	lw	s3,44(sp)
   10d0e:	5a22                	lw	s4,40(sp)
   10d10:	5a92                	lw	s5,36(sp)
   10d12:	5b02                	lw	s6,32(sp)
   10d14:	4bf2                	lw	s7,28(sp)
   10d16:	4c62                	lw	s8,24(sp)
   10d18:	8526                	mv	a0,s1
   10d1a:	54d2                	lw	s1,52(sp)
   10d1c:	6121                	addi	sp,sp,64
   10d1e:	8082                	ret
   10d20:	07040913          	addi	s2,s0,112
   10d24:	85aa                	mv	a1,a0
   10d26:	854a                	mv	a0,s2
   10d28:	00000097          	auipc	ra,0x0
   10d2c:	7a2080e7          	jalr	1954(ra) # 114ca <_ZN6tflite21MicroInterpreterGraph22SetSubgraphAllocationsEPNS_19SubgraphAllocationsE>
   10d30:	8522                	mv	a0,s0
   10d32:	00000097          	auipc	ra,0x0
   10d36:	ca2080e7          	jalr	-862(ra) # 109d4 <_ZN6tflite16MicroInterpreter44PrepareNodeAndRegistrationDataFromFlatbufferEv>
   10d3a:	84aa                	mv	s1,a0
   10d3c:	f569                	bnez	a0,10d06 <_ZN6tflite16MicroInterpreter15AllocateTensorsEv+0x3e>
   10d3e:	0a840993          	addi	s3,s0,168
   10d42:	4581                	li	a1,0
   10d44:	854e                	mv	a0,s3
   10d46:	00000097          	auipc	ra,0x0
   10d4a:	390080e7          	jalr	912(ra) # 110d6 <_ZN6tflite23MicroInterpreterContext19SetInterpreterStateENS0_16InterpreterStateE>
   10d4e:	854a                	mv	a0,s2
   10d50:	00000097          	auipc	ra,0x0
   10d54:	390080e7          	jalr	912(ra) # 110e0 <_ZN6tflite21MicroInterpreterGraph13InitSubgraphsEv>
   10d58:	84aa                	mv	s1,a0
   10d5a:	f555                	bnez	a0,10d06 <_ZN6tflite16MicroInterpreter15AllocateTensorsEv+0x3e>
   10d5c:	4585                	li	a1,1
   10d5e:	854e                	mv	a0,s3
   10d60:	00000097          	auipc	ra,0x0
   10d64:	376080e7          	jalr	886(ra) # 110d6 <_ZN6tflite23MicroInterpreterContext19SetInterpreterStateENS0_16InterpreterStateE>
   10d68:	854a                	mv	a0,s2
   10d6a:	00000097          	auipc	ra,0x0
   10d6e:	53a080e7          	jalr	1338(ra) # 112a4 <_ZN6tflite21MicroInterpreterGraph16PrepareSubgraphsEv>
   10d72:	84aa                	mv	s1,a0
   10d74:	f949                	bnez	a0,10d06 <_ZN6tflite16MicroInterpreter15AllocateTensorsEv+0x3e>
   10d76:	4589                	li	a1,2
   10d78:	854e                	mv	a0,s3
   10d7a:	00000097          	auipc	ra,0x0
   10d7e:	35c080e7          	jalr	860(ra) # 110d6 <_ZN6tflite23MicroInterpreterContext19SetInterpreterStateENS0_16InterpreterStateE>
   10d82:	08042603          	lw	a2,128(s0)
   10d86:	400c                	lw	a1,0(s0)
   10d88:	5468                	lw	a0,108(s0)
   10d8a:	09c40693          	addi	a3,s0,156
   10d8e:	00008097          	auipc	ra,0x8
   10d92:	018080e7          	jalr	24(ra) # 18da6 <_ZN6tflite14MicroAllocator21FinishModelAllocationEPKNS_5ModelEPNS_19SubgraphAllocationsEPPNS_19ScratchBufferHandleE>
   10d96:	84aa                	mv	s1,a0
   10d98:	f53d                	bnez	a0,10d06 <_ZN6tflite16MicroInterpreter15AllocateTensorsEv+0x3e>
   10d9a:	09c42583          	lw	a1,156(s0)
   10d9e:	854e                	mv	a0,s3
   10da0:	00000097          	auipc	ra,0x0
   10da4:	332080e7          	jalr	818(ra) # 110d2 <_ZN6tflite23MicroInterpreterContext23SetScratchBufferHandlesEPNS_19ScratchBufferHandleE>
   10da8:	06c42903          	lw	s2,108(s0)
   10dac:	4008                	lw	a0,0(s0)
   10dae:	00092783          	lw	a5,0(s2)
   10db2:	01c7aa03          	lw	s4,28(a5)
   10db6:	00000097          	auipc	ra,0x0
   10dba:	b0e080e7          	jalr	-1266(ra) # 108c4 <_ZNK6tflite16MicroInterpreter11inputs_sizeEv.isra.0>
   10dbe:	00251593          	slli	a1,a0,0x2
   10dc2:	854a                	mv	a0,s2
   10dc4:	9a02                	jalr	s4
   10dc6:	0aa42023          	sw	a0,160(s0)
   10dca:	4901                	li	s2,0
   10dcc:	e159                	bnez	a0,10e52 <_ZN6tflite16MicroInterpreter15AllocateTensorsEv+0x18a>
   10dce:	4008                	lw	a0,0(s0)
   10dd0:	00000097          	auipc	ra,0x0
   10dd4:	af4080e7          	jalr	-1292(ra) # 108c4 <_ZNK6tflite16MicroInterpreter11inputs_sizeEv.isra.0>
   10dd8:	00251593          	slli	a1,a0,0x2
   10ddc:	00018517          	auipc	a0,0x18
   10de0:	97c50513          	addi	a0,a0,-1668 # 28758 <__extenddftf2+0x72a>
   10de4:	00001097          	auipc	ra,0x1
   10de8:	98a080e7          	jalr	-1654(ra) # 1176e <_Z11MicroPrintfPKcz>
   10dec:	bf21                	j	10d04 <_ZN6tflite16MicroInterpreter15AllocateTensorsEv+0x3c>
   10dee:	08042603          	lw	a2,128(s0)
   10df2:	8556                	mv	a0,s5
   10df4:	0007ac03          	lw	s8,0(a5)
   10df8:	c632                	sw	a2,12(sp)
   10dfa:	00000097          	auipc	ra,0x0
   10dfe:	8ec080e7          	jalr	-1812(ra) # 106e6 <_ZNK6tflite5Model9subgraphsEv>
   10e02:	4581                	li	a1,0
   10e04:	00000097          	auipc	ra,0x0
   10e08:	a62080e7          	jalr	-1438(ra) # 10866 <_ZNK11flatbuffers6VectorINS_6OffsetIN6tflite8SubGraphEEEmE3GetEm>
   10e0c:	4599                	li	a1,6
   10e0e:	00000097          	auipc	ra,0x0
   10e12:	a92080e7          	jalr	-1390(ra) # 108a0 <_ZN11flatbuffers5Table10GetPointerIPKNS_6VectorIlmEEmEET_t>
   10e16:	85ca                	mv	a1,s2
   10e18:	00000097          	auipc	ra,0x0
   10e1c:	a16080e7          	jalr	-1514(ra) # 1082e <_ZNK11flatbuffers6VectorIlmE3GetEm>
   10e20:	4632                	lw	a2,12(sp)
   10e22:	86aa                	mv	a3,a0
   10e24:	4701                	li	a4,0
   10e26:	85d6                	mv	a1,s5
   10e28:	8552                	mv	a0,s4
   10e2a:	0a042b83          	lw	s7,160(s0)
   10e2e:	9c02                	jalr	s8
   10e30:	0a042783          	lw	a5,160(s0)
   10e34:	00291b13          	slli	s6,s2,0x2
   10e38:	9bda                	add	s7,s7,s6
   10e3a:	00aba023          	sw	a0,0(s7)
   10e3e:	97da                	add	a5,a5,s6
   10e40:	439c                	lw	a5,0(a5)
   10e42:	e799                	bnez	a5,10e50 <_ZN6tflite16MicroInterpreter15AllocateTensorsEv+0x188>
   10e44:	00018517          	auipc	a0,0x18
   10e48:	85ca                	mv	a1,s2
   10e4a:	96050513          	addi	a0,a0,-1696 # 287a4 <__extenddftf2+0x776>
   10e4e:	bf59                	j	10de4 <_ZN6tflite16MicroInterpreter15AllocateTensorsEv+0x11c>
   10e50:	0905                	addi	s2,s2,1
   10e52:	00042a83          	lw	s5,0(s0)
   10e56:	8556                	mv	a0,s5
   10e58:	00000097          	auipc	ra,0x0
   10e5c:	a6c080e7          	jalr	-1428(ra) # 108c4 <_ZNK6tflite16MicroInterpreter11inputs_sizeEv.isra.0>
   10e60:	06c42a03          	lw	s4,108(s0)
   10e64:	000a2783          	lw	a5,0(s4)
   10e68:	f8a963e3          	bltu	s2,a0,10dee <_ZN6tflite16MicroInterpreter15AllocateTensorsEv+0x126>
   10e6c:	01c7a903          	lw	s2,28(a5)
   10e70:	8556                	mv	a0,s5
   10e72:	00000097          	auipc	ra,0x0
   10e76:	abc080e7          	jalr	-1348(ra) # 1092e <_ZNK6tflite16MicroInterpreter12outputs_sizeEv.isra.0>
   10e7a:	00251593          	slli	a1,a0,0x2
   10e7e:	8552                	mv	a0,s4
   10e80:	9902                	jalr	s2
   10e82:	0aa42223          	sw	a0,164(s0)
   10e86:	e159                	bnez	a0,10f0c <_ZN6tflite16MicroInterpreter15AllocateTensorsEv+0x244>
   10e88:	4008                	lw	a0,0(s0)
   10e8a:	00000097          	auipc	ra,0x0
   10e8e:	aa4080e7          	jalr	-1372(ra) # 1092e <_ZNK6tflite16MicroInterpreter12outputs_sizeEv.isra.0>
   10e92:	00251593          	slli	a1,a0,0x2
   10e96:	00018517          	auipc	a0,0x18
   10e9a:	93650513          	addi	a0,a0,-1738 # 287cc <__extenddftf2+0x79e>
   10e9e:	b799                	j	10de4 <_ZN6tflite16MicroInterpreter15AllocateTensorsEv+0x11c>
   10ea0:	06c42b83          	lw	s7,108(s0)
   10ea4:	08042603          	lw	a2,128(s0)
   10ea8:	8552                	mv	a0,s4
   10eaa:	000ba783          	lw	a5,0(s7)
   10eae:	c632                	sw	a2,12(sp)
   10eb0:	00249913          	slli	s2,s1,0x2
   10eb4:	0007ac03          	lw	s8,0(a5)
   10eb8:	00000097          	auipc	ra,0x0
   10ebc:	82e080e7          	jalr	-2002(ra) # 106e6 <_ZNK6tflite5Model9subgraphsEv>
   10ec0:	4581                	li	a1,0
   10ec2:	00000097          	auipc	ra,0x0
   10ec6:	9a4080e7          	jalr	-1628(ra) # 10866 <_ZNK11flatbuffers6VectorINS_6OffsetIN6tflite8SubGraphEEEmE3GetEm>
   10eca:	45a1                	li	a1,8
   10ecc:	00000097          	auipc	ra,0x0
   10ed0:	9d4080e7          	jalr	-1580(ra) # 108a0 <_ZN11flatbuffers5Table10GetPointerIPKNS_6VectorIlmEEmEET_t>
   10ed4:	85a6                	mv	a1,s1
   10ed6:	00000097          	auipc	ra,0x0
   10eda:	958080e7          	jalr	-1704(ra) # 1082e <_ZNK11flatbuffers6VectorIlmE3GetEm>
   10ede:	4632                	lw	a2,12(sp)
   10ee0:	86aa                	mv	a3,a0
   10ee2:	4701                	li	a4,0
   10ee4:	85d2                	mv	a1,s4
   10ee6:	855e                	mv	a0,s7
   10ee8:	0a442b03          	lw	s6,164(s0)
   10eec:	9c02                	jalr	s8
   10eee:	0a442783          	lw	a5,164(s0)
   10ef2:	9b4a                	add	s6,s6,s2
   10ef4:	00ab2023          	sw	a0,0(s6)
   10ef8:	97ca                	add	a5,a5,s2
   10efa:	439c                	lw	a5,0(a5)
   10efc:	e799                	bnez	a5,10f0a <_ZN6tflite16MicroInterpreter15AllocateTensorsEv+0x242>
   10efe:	00018517          	auipc	a0,0x18
   10f02:	85a6                	mv	a1,s1
   10f04:	91a50513          	addi	a0,a0,-1766 # 28818 <__extenddftf2+0x7ea>
   10f08:	bdf1                	j	10de4 <_ZN6tflite16MicroInterpreter15AllocateTensorsEv+0x11c>
   10f0a:	0485                	addi	s1,s1,1
   10f0c:	00042a03          	lw	s4,0(s0)
   10f10:	8552                	mv	a0,s4
   10f12:	00000097          	auipc	ra,0x0
   10f16:	a1c080e7          	jalr	-1508(ra) # 1092e <_ZNK6tflite16MicroInterpreter12outputs_sizeEv.isra.0>
   10f1a:	f8a4e3e3          	bltu	s1,a0,10ea0 <_ZN6tflite16MicroInterpreter15AllocateTensorsEv+0x1d8>
   10f1e:	8522                	mv	a0,s0
   10f20:	00000097          	auipc	ra,0x0
   10f24:	d7a080e7          	jalr	-646(ra) # 10c9a <_ZN6tflite16MicroInterpreter5ResetEv>
   10f28:	84aa                	mv	s1,a0
   10f2a:	dc051ee3          	bnez	a0,10d06 <_ZN6tflite16MicroInterpreter15AllocateTensorsEv+0x3e>
   10f2e:	4785                	li	a5,1
   10f30:	08f40a23          	sb	a5,148(s0)
   10f34:	458d                	li	a1,3
   10f36:	854e                	mv	a0,s3
   10f38:	00000097          	auipc	ra,0x0
   10f3c:	19e080e7          	jalr	414(ra) # 110d6 <_ZN6tflite23MicroInterpreterContext19SetInterpreterStateENS0_16InterpreterStateE>
   10f40:	b3d9                	j	10d06 <_ZN6tflite16MicroInterpreter15AllocateTensorsEv+0x3e>

00010f42 <_ZN6tflite16MicroInterpreter6InvokeEv>:
   10f42:	09852783          	lw	a5,152(a0)
   10f46:	1141                	addi	sp,sp,-16
   10f48:	c606                	sw	ra,12(sp)
   10f4a:	c422                	sw	s0,8(sp)
   10f4c:	cf91                	beqz	a5,10f68 <_ZN6tflite16MicroInterpreter6InvokeEv+0x26>
   10f4e:	00018517          	auipc	a0,0x18
   10f52:	8f250513          	addi	a0,a0,-1806 # 28840 <__extenddftf2+0x812>
   10f56:	00001097          	auipc	ra,0x1
   10f5a:	818080e7          	jalr	-2024(ra) # 1176e <_Z11MicroPrintfPKcz>
   10f5e:	4505                	li	a0,1
   10f60:	40b2                	lw	ra,12(sp)
   10f62:	4422                	lw	s0,8(sp)
   10f64:	0141                	addi	sp,sp,16
   10f66:	8082                	ret
   10f68:	09454783          	lbu	a5,148(a0)
   10f6c:	842a                	mv	s0,a0
   10f6e:	cb99                	beqz	a5,10f84 <_ZN6tflite16MicroInterpreter6InvokeEv+0x42>
   10f70:	07040513          	addi	a0,s0,112
   10f74:	4422                	lw	s0,8(sp)
   10f76:	40b2                	lw	ra,12(sp)
   10f78:	4581                	li	a1,0
   10f7a:	0141                	addi	sp,sp,16
   10f7c:	00000317          	auipc	t1,0x0
   10f80:	40430067          	jr	1028(t1) # 11380 <_ZN6tflite21MicroInterpreterGraph14InvokeSubgraphEi>
   10f84:	00000097          	auipc	ra,0x0
   10f88:	d44080e7          	jalr	-700(ra) # 10cc8 <_ZN6tflite16MicroInterpreter15AllocateTensorsEv>
   10f8c:	d175                	beqz	a0,10f70 <_ZN6tflite16MicroInterpreter6InvokeEv+0x2e>
   10f8e:	bfc9                	j	10f60 <_ZN6tflite16MicroInterpreter6InvokeEv+0x1e>

00010f90 <_ZN6tflite23MicroInterpreterContext16external_contextEv>:
   10f90:	4d08                	lw	a0,24(a0)
   10f92:	8082                	ret

00010f94 <_ZN6tflite23MicroInterpreterContext5graphEv>:
   10f94:	4508                	lw	a0,8(a0)
   10f96:	8082                	ret

00010f98 <_ZN6tflite23MicroInterpreterContextD0Ev>:
   10f98:	8082                	ret

00010f9a <_ZN6tflite23MicroInterpreterContext24AllocateTempTfLiteTensorEi>:
   10f9a:	87aa                	mv	a5,a0
   10f9c:	4148                	lw	a0,4(a0)
   10f9e:	4790                	lw	a2,8(a5)
   10fa0:	86ae                	mv	a3,a1
   10fa2:	4118                	lw	a4,0(a0)
   10fa4:	47cc                	lw	a1,12(a5)
   10fa6:	00472803          	lw	a6,4(a4)
   10faa:	4a58                	lw	a4,20(a2)
   10fac:	4a10                	lw	a2,16(a2)
   10fae:	8802                	jr	a6

00010fb0 <_ZN6tflite23MicroInterpreterContext26DeallocateTempTfLiteTensorEP12TfLiteTensor>:
   10fb0:	4148                	lw	a0,4(a0)
   10fb2:	411c                	lw	a5,0(a0)
   10fb4:	479c                	lw	a5,8(a5)
   10fb6:	8782                	jr	a5

00010fb8 <_ZN6tflite23MicroInterpreterContext13GetEvalTensorEi>:
   10fb8:	451c                	lw	a5,8(a0)
   10fba:	4bd8                	lw	a4,20(a5)
   10fbc:	4b9c                	lw	a5,16(a5)
   10fbe:	070e                	slli	a4,a4,0x3
   10fc0:	97ba                	add	a5,a5,a4
   10fc2:	4731                	li	a4,12
   10fc4:	02e585b3          	mul	a1,a1,a4
   10fc8:	43c8                	lw	a0,4(a5)
   10fca:	952e                	add	a0,a0,a1
   10fcc:	8082                	ret

00010fce <_Z9AbortImplv>:
   10fce:	00017517          	auipc	a0,0x17
   10fd2:	1141                	addi	sp,sp,-16
   10fd4:	20650513          	addi	a0,a0,518 # 281d4 <__extenddftf2+0x1a6>
   10fd8:	c606                	sw	ra,12(sp)
   10fda:	00000097          	auipc	ra,0x0
   10fde:	794080e7          	jalr	1940(ra) # 1176e <_Z11MicroPrintfPKcz>
   10fe2:	a001                	j	10fe2 <_Z9AbortImplv+0x14>

00010fe4 <_ZN6tflite23MicroInterpreterContext24AllocatePersistentBufferEj>:
   10fe4:	4918                	lw	a4,16(a0)
   10fe6:	4785                	li	a5,1
   10fe8:	00e7f863          	bgeu	a5,a4,10ff8 <_ZN6tflite23MicroInterpreterContext24AllocatePersistentBufferEj+0x14>
   10fec:	1141                	addi	sp,sp,-16
   10fee:	c606                	sw	ra,12(sp)
   10ff0:	00000097          	auipc	ra,0x0
   10ff4:	fde080e7          	jalr	-34(ra) # 10fce <_Z9AbortImplv>
   10ff8:	4148                	lw	a0,4(a0)
   10ffa:	411c                	lw	a5,0(a0)
   10ffc:	4fdc                	lw	a5,28(a5)
   10ffe:	8782                	jr	a5

00011000 <_ZN6tflite23MicroInterpreterContext27RequestScratchBufferInArenaEjPi>:
   11000:	4918                	lw	a4,16(a0)
   11002:	4785                	li	a5,1
   11004:	00f70863          	beq	a4,a5,11014 <_ZN6tflite23MicroInterpreterContext27RequestScratchBufferInArenaEjPi+0x14>
   11008:	1141                	addi	sp,sp,-16
   1100a:	c606                	sw	ra,12(sp)
   1100c:	00000097          	auipc	ra,0x0
   11010:	fc2080e7          	jalr	-62(ra) # 10fce <_Z9AbortImplv>
   11014:	451c                	lw	a5,8(a0)
   11016:	86b2                	mv	a3,a2
   11018:	4148                	lw	a0,4(a0)
   1101a:	4bd0                	lw	a2,20(a5)
   1101c:	00008317          	auipc	t1,0x8
   11020:	ed030067          	jr	-304(t1) # 18eec <_ZN6tflite14MicroAllocator27RequestScratchBufferInArenaEjiPi>

00011024 <_ZN6tflite23MicroInterpreterContext16GetScratchBufferEi>:
   11024:	4918                	lw	a4,16(a0)
   11026:	478d                	li	a5,3
   11028:	00f70863          	beq	a4,a5,11038 <_ZN6tflite23MicroInterpreterContext16GetScratchBufferEi+0x14>
   1102c:	1141                	addi	sp,sp,-16
   1102e:	c606                	sw	ra,12(sp)
   11030:	00000097          	auipc	ra,0x0
   11034:	f9e080e7          	jalr	-98(ra) # 10fce <_Z9AbortImplv>
   11038:	495c                	lw	a5,20(a0)
   1103a:	058a                	slli	a1,a1,0x2
   1103c:	97ae                	add	a5,a5,a1
   1103e:	4388                	lw	a0,0(a5)
   11040:	8082                	ret

00011042 <_ZN6tflite23MicroInterpreterContext18AllocateTempBufferEjj>:
   11042:	4918                	lw	a4,16(a0)
   11044:	4785                	li	a5,1
   11046:	00f70863          	beq	a4,a5,11056 <_ZN6tflite23MicroInterpreterContext18AllocateTempBufferEjj+0x14>
   1104a:	1141                	addi	sp,sp,-16
   1104c:	c606                	sw	ra,12(sp)
   1104e:	00000097          	auipc	ra,0x0
   11052:	f80080e7          	jalr	-128(ra) # 10fce <_Z9AbortImplv>
   11056:	4148                	lw	a0,4(a0)
   11058:	411c                	lw	a5,0(a0)
   1105a:	47dc                	lw	a5,12(a5)
   1105c:	8782                	jr	a5

0001105e <_ZN6tflite23MicroInterpreterContext20DeallocateTempBufferEPh>:
   1105e:	4918                	lw	a4,16(a0)
   11060:	4785                	li	a5,1
   11062:	00f70863          	beq	a4,a5,11072 <_ZN6tflite23MicroInterpreterContext20DeallocateTempBufferEPh+0x14>
   11066:	1141                	addi	sp,sp,-16
   11068:	c606                	sw	ra,12(sp)
   1106a:	00000097          	auipc	ra,0x0
   1106e:	f64080e7          	jalr	-156(ra) # 10fce <_Z9AbortImplv>
   11072:	4148                	lw	a0,4(a0)
   11074:	411c                	lw	a5,0(a0)
   11076:	4b9c                	lw	a5,16(a5)
   11078:	8782                	jr	a5

0001107a <_ZN6tflite23MicroInterpreterContext20set_external_contextEPv>:
   1107a:	491c                	lw	a5,16(a0)
   1107c:	1141                	addi	sp,sp,-16
   1107e:	c606                	sw	ra,12(sp)
   11080:	9bf5                	andi	a5,a5,-3
   11082:	4705                	li	a4,1
   11084:	00e78663          	beq	a5,a4,11090 <_ZN6tflite23MicroInterpreterContext20set_external_contextEPv+0x16>
   11088:	00000097          	auipc	ra,0x0
   1108c:	f46080e7          	jalr	-186(ra) # 10fce <_Z9AbortImplv>
   11090:	4d10                	lw	a2,24(a0)
   11092:	c191                	beqz	a1,11096 <_ZN6tflite23MicroInterpreterContext20set_external_contextEPv+0x1c>
   11094:	ce09                	beqz	a2,110ae <_ZN6tflite23MicroInterpreterContext20set_external_contextEPv+0x34>
   11096:	00018517          	auipc	a0,0x18
   1109a:	2d650513          	addi	a0,a0,726 # 2936c <__extenddftf2+0x133e>
   1109e:	00000097          	auipc	ra,0x0
   110a2:	6d0080e7          	jalr	1744(ra) # 1176e <_Z11MicroPrintfPKcz>
   110a6:	4505                	li	a0,1
   110a8:	40b2                	lw	ra,12(sp)
   110aa:	0141                	addi	sp,sp,16
   110ac:	8082                	ret
   110ae:	cd0c                	sw	a1,24(a0)
   110b0:	4501                	li	a0,0
   110b2:	bfdd                	j	110a8 <_ZN6tflite23MicroInterpreterContext20set_external_contextEPv+0x2e>

000110b4 <_ZN6tflite23MicroInterpreterContextC1EPNS_14MicroAllocatorEPKNS_5ModelEPNS_21MicroInterpreterGraphE>:
   110b4:	00063797          	auipc	a5,0x63
   110b8:	53c78793          	addi	a5,a5,1340 # 745f0 <_ZTVN6tflite23MicroInterpreterContextE+0x8>
   110bc:	c11c                	sw	a5,0(a0)
   110be:	c14c                	sw	a1,4(a0)
   110c0:	c514                	sw	a3,8(a0)
   110c2:	c550                	sw	a2,12(a0)
   110c4:	00052823          	sw	zero,16(a0)
   110c8:	00052a23          	sw	zero,20(a0)
   110cc:	00052c23          	sw	zero,24(a0)
   110d0:	8082                	ret

000110d2 <_ZN6tflite23MicroInterpreterContext23SetScratchBufferHandlesEPNS_19ScratchBufferHandleE>:
   110d2:	c94c                	sw	a1,20(a0)
   110d4:	8082                	ret

000110d6 <_ZN6tflite23MicroInterpreterContext19SetInterpreterStateENS0_16InterpreterStateE>:
   110d6:	c90c                	sw	a1,16(a0)
   110d8:	8082                	ret

000110da <_ZN6tflite21MicroInterpreterGraph20GetResourceVariablesEv>:
   110da:	4d48                	lw	a0,28(a0)
   110dc:	8082                	ret

000110de <_ZN6tflite21MicroInterpreterGraphD0Ev>:
   110de:	8082                	ret

000110e0 <_ZN6tflite21MicroInterpreterGraph13InitSubgraphsEv>:
   110e0:	7179                	addi	sp,sp,-48
   110e2:	cc52                	sw	s4,24(sp)
   110e4:	ca56                	sw	s5,20(sp)
   110e6:	01852a03          	lw	s4,24(a0)
   110ea:	01452a83          	lw	s5,20(a0)
   110ee:	d422                	sw	s0,40(sp)
   110f0:	d04a                	sw	s2,32(sp)
   110f2:	c85a                	sw	s6,16(sp)
   110f4:	d606                	sw	ra,44(sp)
   110f6:	d226                	sw	s1,36(sp)
   110f8:	ce4e                	sw	s3,28(sp)
   110fa:	c65e                	sw	s7,12(sp)
   110fc:	842a                	mv	s0,a0
   110fe:	4901                	li	s2,0
   11100:	02000b13          	li	s6,32
   11104:	501c                	lw	a5,32(s0)
   11106:	439c                	lw	a5,0(a5)
   11108:	02f96263          	bltu	s2,a5,1112c <_ZN6tflite21MicroInterpreterGraph13InitSubgraphsEv+0x4c>
   1110c:	01542a23          	sw	s5,20(s0)
   11110:	01442c23          	sw	s4,24(s0)
   11114:	50b2                	lw	ra,44(sp)
   11116:	5422                	lw	s0,40(sp)
   11118:	5492                	lw	s1,36(sp)
   1111a:	5902                	lw	s2,32(sp)
   1111c:	49f2                	lw	s3,28(sp)
   1111e:	4a62                	lw	s4,24(sp)
   11120:	4ad2                	lw	s5,20(sp)
   11122:	4b42                	lw	s6,16(sp)
   11124:	4bb2                	lw	s7,12(sp)
   11126:	4501                	li	a0,0
   11128:	6145                	addi	sp,sp,48
   1112a:	8082                	ret
   1112c:	4408                	lw	a0,8(s0)
   1112e:	01242a23          	sw	s2,20(s0)
   11132:	85ca                	mv	a1,s2
   11134:	00007097          	auipc	ra,0x7
   11138:	72e080e7          	jalr	1838(ra) # 18862 <_ZN6tflite20NumSubgraphOperatorsEPKNS_5ModelEi>
   1113c:	89aa                	mv	s3,a0
   1113e:	00391b93          	slli	s7,s2,0x3
   11142:	4781                	li	a5,0
   11144:	cc1c                	sw	a5,24(s0)
   11146:	0137e463          	bltu	a5,s3,1114e <_ZN6tflite21MicroInterpreterGraph13InitSubgraphsEv+0x6e>
   1114a:	0905                	addi	s2,s2,1
   1114c:	bf65                	j	11104 <_ZN6tflite21MicroInterpreterGraph13InitSubgraphsEv+0x24>
   1114e:	4818                	lw	a4,16(s0)
   11150:	0796                	slli	a5,a5,0x5
   11152:	975e                	add	a4,a4,s7
   11154:	4304                	lw	s1,0(a4)
   11156:	94be                	add	s1,s1,a5
   11158:	4cdc                	lw	a5,28(s1)
   1115a:	4bd8                	lw	a4,20(a5)
   1115c:	01671c63          	bne	a4,s6,11174 <_ZN6tflite21MicroInterpreterGraph13InitSubgraphsEv+0x94>
   11160:	48cc                	lw	a1,20(s1)
   11162:	4c90                	lw	a2,24(s1)
   11164:	439c                	lw	a5,0(a5)
   11166:	c781                	beqz	a5,1116e <_ZN6tflite21MicroInterpreterGraph13InitSubgraphsEv+0x8e>
   11168:	4048                	lw	a0,4(s0)
   1116a:	9782                	jalr	a5
   1116c:	c4c8                	sw	a0,12(s1)
   1116e:	4c1c                	lw	a5,24(s0)
   11170:	0785                	addi	a5,a5,1
   11172:	bfc9                	j	11144 <_ZN6tflite21MicroInterpreterGraph13InitSubgraphsEv+0x64>
   11174:	488c                	lw	a1,16(s1)
   11176:	4601                	li	a2,0
   11178:	b7f5                	j	11164 <_ZN6tflite21MicroInterpreterGraph13InitSubgraphsEv+0x84>

0001117a <_ZN6tflite21MicroInterpreterGraph14ResetSubgraphsEv>:
   1117a:	1101                	addi	sp,sp,-32
   1117c:	c64e                	sw	s3,12(sp)
   1117e:	c452                	sw	s4,8(sp)
   11180:	01852983          	lw	s3,24(a0)
   11184:	01452a03          	lw	s4,20(a0)
   11188:	cc22                	sw	s0,24(sp)
   1118a:	ca26                	sw	s1,20(sp)
   1118c:	ce06                	sw	ra,28(sp)
   1118e:	c84a                	sw	s2,16(sp)
   11190:	c256                	sw	s5,4(sp)
   11192:	842a                	mv	s0,a0
   11194:	4481                	li	s1,0
   11196:	501c                	lw	a5,32(s0)
   11198:	439c                	lw	a5,0(a5)
   1119a:	02f4e063          	bltu	s1,a5,111ba <_ZN6tflite21MicroInterpreterGraph14ResetSubgraphsEv+0x40>
   1119e:	01442a23          	sw	s4,20(s0)
   111a2:	01342c23          	sw	s3,24(s0)
   111a6:	40f2                	lw	ra,28(sp)
   111a8:	4462                	lw	s0,24(sp)
   111aa:	44d2                	lw	s1,20(sp)
   111ac:	4942                	lw	s2,16(sp)
   111ae:	49b2                	lw	s3,12(sp)
   111b0:	4a22                	lw	s4,8(sp)
   111b2:	4a92                	lw	s5,4(sp)
   111b4:	4501                	li	a0,0
   111b6:	6105                	addi	sp,sp,32
   111b8:	8082                	ret
   111ba:	4408                	lw	a0,8(s0)
   111bc:	c844                	sw	s1,20(s0)
   111be:	85a6                	mv	a1,s1
   111c0:	00007097          	auipc	ra,0x7
   111c4:	6a2080e7          	jalr	1698(ra) # 18862 <_ZN6tflite20NumSubgraphOperatorsEPKNS_5ModelEi>
   111c8:	892a                	mv	s2,a0
   111ca:	00349a93          	slli	s5,s1,0x3
   111ce:	4781                	li	a5,0
   111d0:	cc1c                	sw	a5,24(s0)
   111d2:	0127e463          	bltu	a5,s2,111da <_ZN6tflite21MicroInterpreterGraph14ResetSubgraphsEv+0x60>
   111d6:	0485                	addi	s1,s1,1
   111d8:	bf7d                	j	11196 <_ZN6tflite21MicroInterpreterGraph14ResetSubgraphsEv+0x1c>
   111da:	4818                	lw	a4,16(s0)
   111dc:	0796                	slli	a5,a5,0x5
   111de:	9756                	add	a4,a4,s5
   111e0:	4318                	lw	a4,0(a4)
   111e2:	97ba                	add	a5,a5,a4
   111e4:	4fd8                	lw	a4,28(a5)
   111e6:	c711                	beqz	a4,111f2 <_ZN6tflite21MicroInterpreterGraph14ResetSubgraphsEv+0x78>
   111e8:	4b18                	lw	a4,16(a4)
   111ea:	c701                	beqz	a4,111f2 <_ZN6tflite21MicroInterpreterGraph14ResetSubgraphsEv+0x78>
   111ec:	47cc                	lw	a1,12(a5)
   111ee:	4048                	lw	a0,4(s0)
   111f0:	9702                	jalr	a4
   111f2:	4c1c                	lw	a5,24(s0)
   111f4:	0785                	addi	a5,a5,1
   111f6:	bfe9                	j	111d0 <_ZN6tflite21MicroInterpreterGraph14ResetSubgraphsEv+0x56>

000111f8 <_ZN6tflite21MicroInterpreterGraph13FreeSubgraphsEv>:
   111f8:	1101                	addi	sp,sp,-32
   111fa:	c64e                	sw	s3,12(sp)
   111fc:	c452                	sw	s4,8(sp)
   111fe:	01852983          	lw	s3,24(a0)
   11202:	01452a03          	lw	s4,20(a0)
   11206:	cc22                	sw	s0,24(sp)
   11208:	ca26                	sw	s1,20(sp)
   1120a:	ce06                	sw	ra,28(sp)
   1120c:	c84a                	sw	s2,16(sp)
   1120e:	c256                	sw	s5,4(sp)
   11210:	842a                	mv	s0,a0
   11212:	4481                	li	s1,0
   11214:	501c                	lw	a5,32(s0)
   11216:	439c                	lw	a5,0(a5)
   11218:	02f4e063          	bltu	s1,a5,11238 <_ZN6tflite21MicroInterpreterGraph13FreeSubgraphsEv+0x40>
   1121c:	01442a23          	sw	s4,20(s0)
   11220:	01342c23          	sw	s3,24(s0)
   11224:	40f2                	lw	ra,28(sp)
   11226:	4462                	lw	s0,24(sp)
   11228:	44d2                	lw	s1,20(sp)
   1122a:	4942                	lw	s2,16(sp)
   1122c:	49b2                	lw	s3,12(sp)
   1122e:	4a22                	lw	s4,8(sp)
   11230:	4a92                	lw	s5,4(sp)
   11232:	4501                	li	a0,0
   11234:	6105                	addi	sp,sp,32
   11236:	8082                	ret
   11238:	4408                	lw	a0,8(s0)
   1123a:	c844                	sw	s1,20(s0)
   1123c:	85a6                	mv	a1,s1
   1123e:	00007097          	auipc	ra,0x7
   11242:	624080e7          	jalr	1572(ra) # 18862 <_ZN6tflite20NumSubgraphOperatorsEPKNS_5ModelEi>
   11246:	892a                	mv	s2,a0
   11248:	00349a93          	slli	s5,s1,0x3
   1124c:	4781                	li	a5,0
   1124e:	cc1c                	sw	a5,24(s0)
   11250:	0127e463          	bltu	a5,s2,11258 <_ZN6tflite21MicroInterpreterGraph13FreeSubgraphsEv+0x60>
   11254:	0485                	addi	s1,s1,1
   11256:	bf7d                	j	11214 <_ZN6tflite21MicroInterpreterGraph13FreeSubgraphsEv+0x1c>
   11258:	4818                	lw	a4,16(s0)
   1125a:	0796                	slli	a5,a5,0x5
   1125c:	9756                	add	a4,a4,s5
   1125e:	4318                	lw	a4,0(a4)
   11260:	97ba                	add	a5,a5,a4
   11262:	4fd8                	lw	a4,28(a5)
   11264:	c711                	beqz	a4,11270 <_ZN6tflite21MicroInterpreterGraph13FreeSubgraphsEv+0x78>
   11266:	4358                	lw	a4,4(a4)
   11268:	c701                	beqz	a4,11270 <_ZN6tflite21MicroInterpreterGraph13FreeSubgraphsEv+0x78>
   1126a:	47cc                	lw	a1,12(a5)
   1126c:	4048                	lw	a0,4(s0)
   1126e:	9702                	jalr	a4
   11270:	4c1c                	lw	a5,24(s0)
   11272:	0785                	addi	a5,a5,1
   11274:	bfe9                	j	1124e <_ZN6tflite21MicroInterpreterGraph13FreeSubgraphsEv+0x56>

00011276 <_ZN6tflite12_GLOBAL__N_122OpNameFromRegistrationEPK16TFLMRegistration>:
   11276:	495c                	lw	a5,20(a0)
   11278:	02000713          	li	a4,32
   1127c:	00e79463          	bne	a5,a4,11284 <_ZN6tflite12_GLOBAL__N_122OpNameFromRegistrationEPK16TFLMRegistration+0xe>
   11280:	4d08                	lw	a0,24(a0)
   11282:	8082                	ret
   11284:	00018517          	auipc	a0,0x18
   11288:	0ce00713          	li	a4,206
   1128c:	36c50513          	addi	a0,a0,876 # 295f0 <__extenddftf2+0x15c2>
   11290:	00f76963          	bltu	a4,a5,112a2 <_ZN6tflite12_GLOBAL__N_122OpNameFromRegistrationEPK16TFLMRegistration+0x2c>
   11294:	00063717          	auipc	a4,0x63
   11298:	078a                	slli	a5,a5,0x2
   1129a:	01470713          	addi	a4,a4,20 # 742a8 <_ZZN6tflite24EnumNamesBuiltinOperatorEvE5names>
   1129e:	97ba                	add	a5,a5,a4
   112a0:	4388                	lw	a0,0(a5)
   112a2:	8082                	ret

000112a4 <_ZN6tflite21MicroInterpreterGraph16PrepareSubgraphsEv>:
   112a4:	7179                	addi	sp,sp,-48
   112a6:	ce4e                	sw	s3,28(sp)
   112a8:	cc52                	sw	s4,24(sp)
   112aa:	01852983          	lw	s3,24(a0)
   112ae:	01452a03          	lw	s4,20(a0)
   112b2:	d422                	sw	s0,40(sp)
   112b4:	d226                	sw	s1,36(sp)
   112b6:	d606                	sw	ra,44(sp)
   112b8:	d04a                	sw	s2,32(sp)
   112ba:	ca56                	sw	s5,20(sp)
   112bc:	c85a                	sw	s6,16(sp)
   112be:	842a                	mv	s0,a0
   112c0:	4481                	li	s1,0
   112c2:	501c                	lw	a5,32(s0)
   112c4:	439c                	lw	a5,0(a5)
   112c6:	00f4e863          	bltu	s1,a5,112d6 <_ZN6tflite21MicroInterpreterGraph16PrepareSubgraphsEv+0x32>
   112ca:	01442a23          	sw	s4,20(s0)
   112ce:	01342c23          	sw	s3,24(s0)
   112d2:	4501                	li	a0,0
   112d4:	a085                	j	11334 <_ZN6tflite21MicroInterpreterGraph16PrepareSubgraphsEv+0x90>
   112d6:	4408                	lw	a0,8(s0)
   112d8:	85a6                	mv	a1,s1
   112da:	c844                	sw	s1,20(s0)
   112dc:	00007097          	auipc	ra,0x7
   112e0:	586080e7          	jalr	1414(ra) # 18862 <_ZN6tflite20NumSubgraphOperatorsEPKNS_5ModelEi>
   112e4:	892a                	mv	s2,a0
   112e6:	00349a93          	slli	s5,s1,0x3
   112ea:	4581                	li	a1,0
   112ec:	cc0c                	sw	a1,24(s0)
   112ee:	0125e463          	bltu	a1,s2,112f6 <_ZN6tflite21MicroInterpreterGraph16PrepareSubgraphsEv+0x52>
   112f2:	0485                	addi	s1,s1,1
   112f4:	b7f9                	j	112c2 <_ZN6tflite21MicroInterpreterGraph16PrepareSubgraphsEv+0x1e>
   112f6:	481c                	lw	a5,16(s0)
   112f8:	0596                	slli	a1,a1,0x5
   112fa:	97d6                	add	a5,a5,s5
   112fc:	439c                	lw	a5,0(a5)
   112fe:	95be                	add	a1,a1,a5
   11300:	01c5ab03          	lw	s6,28(a1)
   11304:	008b2783          	lw	a5,8(s6)
   11308:	c3a1                	beqz	a5,11348 <_ZN6tflite21MicroInterpreterGraph16PrepareSubgraphsEv+0xa4>
   1130a:	4048                	lw	a0,4(s0)
   1130c:	9782                	jalr	a5
   1130e:	cd0d                	beqz	a0,11348 <_ZN6tflite21MicroInterpreterGraph16PrepareSubgraphsEv+0xa4>
   11310:	c62a                	sw	a0,12(sp)
   11312:	855a                	mv	a0,s6
   11314:	00000097          	auipc	ra,0x0
   11318:	f62080e7          	jalr	-158(ra) # 11276 <_ZN6tflite12_GLOBAL__N_122OpNameFromRegistrationEPK16TFLMRegistration>
   1131c:	46b2                	lw	a3,12(sp)
   1131e:	4c10                	lw	a2,24(s0)
   11320:	85aa                	mv	a1,a0
   11322:	00018517          	auipc	a0,0x18
   11326:	08a50513          	addi	a0,a0,138 # 293ac <__extenddftf2+0x137e>
   1132a:	00000097          	auipc	ra,0x0
   1132e:	444080e7          	jalr	1092(ra) # 1176e <_Z11MicroPrintfPKcz>
   11332:	4505                	li	a0,1
   11334:	50b2                	lw	ra,44(sp)
   11336:	5422                	lw	s0,40(sp)
   11338:	5492                	lw	s1,36(sp)
   1133a:	5902                	lw	s2,32(sp)
   1133c:	49f2                	lw	s3,28(sp)
   1133e:	4a62                	lw	s4,24(sp)
   11340:	4ad2                	lw	s5,20(sp)
   11342:	4b42                	lw	s6,16(sp)
   11344:	6145                	addi	sp,sp,48
   11346:	8082                	ret
   11348:	4c0c                	lw	a1,24(s0)
   1134a:	4448                	lw	a0,12(s0)
   1134c:	00008097          	auipc	ra,0x8
   11350:	c1a080e7          	jalr	-998(ra) # 18f66 <_ZN6tflite14MicroAllocator28FinishPrepareNodeAllocationsEi>
   11354:	4c0c                	lw	a1,24(s0)
   11356:	0585                	addi	a1,a1,1
   11358:	bf51                	j	112ec <_ZN6tflite21MicroInterpreterGraph16PrepareSubgraphsEv+0x48>

0001135a <_ZN6tflite21MicroInterpreterGraph12NumSubgraphsEv>:
   1135a:	4508                	lw	a0,8(a0)
   1135c:	1141                	addi	sp,sp,-16
   1135e:	c606                	sw	ra,12(sp)
   11360:	fffff097          	auipc	ra,0xfffff
   11364:	386080e7          	jalr	902(ra) # 106e6 <_ZNK6tflite5Model9subgraphsEv>
   11368:	40b2                	lw	ra,12(sp)
   1136a:	4108                	lw	a0,0(a0)
   1136c:	0141                	addi	sp,sp,16
   1136e:	8082                	ret

00011370 <_ZN6tflite19ScopedMicroProfilerD1Ev>:
   11370:	87aa                	mv	a5,a0
   11372:	4148                	lw	a0,4(a0)
   11374:	c509                	beqz	a0,1137e <_ZN6tflite19ScopedMicroProfilerD1Ev+0xe>
   11376:	4118                	lw	a4,0(a0)
   11378:	438c                	lw	a1,0(a5)
   1137a:	4758                	lw	a4,12(a4)
   1137c:	8702                	jr	a4
   1137e:	8082                	ret

00011380 <_ZN6tflite21MicroInterpreterGraph14InvokeSubgraphEi>:
   11380:	511c                	lw	a5,32(a0)
   11382:	7139                	addi	sp,sp,-64
   11384:	dc22                	sw	s0,56(sp)
   11386:	4390                	lw	a2,0(a5)
   11388:	d452                	sw	s4,40(sp)
   1138a:	d256                	sw	s5,36(sp)
   1138c:	de06                	sw	ra,60(sp)
   1138e:	da26                	sw	s1,52(sp)
   11390:	d84a                	sw	s2,48(sp)
   11392:	d64e                	sw	s3,44(sp)
   11394:	d05a                	sw	s6,32(sp)
   11396:	ce5e                	sw	s7,28(sp)
   11398:	01452a83          	lw	s5,20(a0)
   1139c:	c94c                	sw	a1,20(a0)
   1139e:	01852a03          	lw	s4,24(a0)
   113a2:	842a                	mv	s0,a0
   113a4:	02c5e763          	bltu	a1,a2,113d2 <_ZN6tflite21MicroInterpreterGraph14InvokeSubgraphEi+0x52>
   113a8:	00018517          	auipc	a0,0x18
   113ac:	03c50513          	addi	a0,a0,60 # 293e4 <__extenddftf2+0x13b6>
   113b0:	00000097          	auipc	ra,0x0
   113b4:	3be080e7          	jalr	958(ra) # 1176e <_Z11MicroPrintfPKcz>
   113b8:	4485                	li	s1,1
   113ba:	50f2                	lw	ra,60(sp)
   113bc:	5462                	lw	s0,56(sp)
   113be:	5942                	lw	s2,48(sp)
   113c0:	59b2                	lw	s3,44(sp)
   113c2:	5a22                	lw	s4,40(sp)
   113c4:	5a92                	lw	s5,36(sp)
   113c6:	5b02                	lw	s6,32(sp)
   113c8:	4bf2                	lw	s7,28(sp)
   113ca:	8526                	mv	a0,s1
   113cc:	54d2                	lw	s1,52(sp)
   113ce:	6121                	addi	sp,sp,64
   113d0:	8082                	ret
   113d2:	4508                	lw	a0,8(a0)
   113d4:	892e                	mv	s2,a1
   113d6:	090e                	slli	s2,s2,0x3
   113d8:	00007097          	auipc	ra,0x7
   113dc:	48a080e7          	jalr	1162(ra) # 18862 <_ZN6tflite20NumSubgraphOperatorsEPKNS_5ModelEi>
   113e0:	89aa                	mv	s3,a0
   113e2:	4781                	li	a5,0
   113e4:	4b05                	li	s6,1
   113e6:	cc1c                	sw	a5,24(s0)
   113e8:	0137e863          	bltu	a5,s3,113f8 <_ZN6tflite21MicroInterpreterGraph14InvokeSubgraphEi+0x78>
   113ec:	01542a23          	sw	s5,20(s0)
   113f0:	01442c23          	sw	s4,24(s0)
   113f4:	4481                	li	s1,0
   113f6:	b7d1                	j	113ba <_ZN6tflite21MicroInterpreterGraph14InvokeSubgraphEi+0x3a>
   113f8:	4818                	lw	a4,16(s0)
   113fa:	0796                	slli	a5,a5,0x5
   113fc:	974a                	add	a4,a4,s2
   113fe:	4304                	lw	s1,0(a4)
   11400:	94be                	add	s1,s1,a5
   11402:	01c4ab83          	lw	s7,28(s1)
   11406:	855e                	mv	a0,s7
   11408:	00000097          	auipc	ra,0x0
   1140c:	e6e080e7          	jalr	-402(ra) # 11276 <_ZN6tflite12_GLOBAL__N_122OpNameFromRegistrationEPK16TFLMRegistration>
   11410:	405c                	lw	a5,4(s0)
   11412:	85aa                	mv	a1,a0
   11414:	c402                	sw	zero,8(sp)
   11416:	5bc8                	lw	a0,52(a5)
   11418:	c62a                	sw	a0,12(sp)
   1141a:	c509                	beqz	a0,11424 <_ZN6tflite21MicroInterpreterGraph14InvokeSubgraphEi+0xa4>
   1141c:	411c                	lw	a5,0(a0)
   1141e:	479c                	lw	a5,8(a5)
   11420:	9782                	jalr	a5
   11422:	c42a                	sw	a0,8(sp)
   11424:	00cba783          	lw	a5,12(s7)
   11428:	eb91                	bnez	a5,1143c <_ZN6tflite21MicroInterpreterGraph14InvokeSubgraphEi+0xbc>
   1142a:	00017517          	auipc	a0,0x17
   1142e:	daa50513          	addi	a0,a0,-598 # 281d4 <__extenddftf2+0x1a6>
   11432:	00000097          	auipc	ra,0x0
   11436:	33c080e7          	jalr	828(ra) # 1176e <_Z11MicroPrintfPKcz>
   1143a:	a001                	j	1143a <_ZN6tflite21MicroInterpreterGraph14InvokeSubgraphEi+0xba>
   1143c:	4048                	lw	a0,4(s0)
   1143e:	85a6                	mv	a1,s1
   11440:	9782                	jalr	a5
   11442:	84aa                	mv	s1,a0
   11444:	4448                	lw	a0,12(s0)
   11446:	411c                	lw	a5,0(a0)
   11448:	4bdc                	lw	a5,20(a5)
   1144a:	9782                	jalr	a5
   1144c:	03649863          	bne	s1,s6,1147c <_ZN6tflite21MicroInterpreterGraph14InvokeSubgraphEi+0xfc>
   11450:	855e                	mv	a0,s7
   11452:	00000097          	auipc	ra,0x0
   11456:	e24080e7          	jalr	-476(ra) # 11276 <_ZN6tflite12_GLOBAL__N_122OpNameFromRegistrationEPK16TFLMRegistration>
   1145a:	4c10                	lw	a2,24(s0)
   1145c:	85aa                	mv	a1,a0
   1145e:	00018517          	auipc	a0,0x18
   11462:	4685                	li	a3,1
   11464:	fba50513          	addi	a0,a0,-70 # 29418 <__extenddftf2+0x13ea>
   11468:	00000097          	auipc	ra,0x0
   1146c:	306080e7          	jalr	774(ra) # 1176e <_Z11MicroPrintfPKcz>
   11470:	0028                	addi	a0,sp,8
   11472:	00000097          	auipc	ra,0x0
   11476:	efe080e7          	jalr	-258(ra) # 11370 <_ZN6tflite19ScopedMicroProfilerD1Ev>
   1147a:	b781                	j	113ba <_ZN6tflite21MicroInterpreterGraph14InvokeSubgraphEi+0x3a>
   1147c:	f8f5                	bnez	s1,11470 <_ZN6tflite21MicroInterpreterGraph14InvokeSubgraphEi+0xf0>
   1147e:	0028                	addi	a0,sp,8
   11480:	00000097          	auipc	ra,0x0
   11484:	ef0080e7          	jalr	-272(ra) # 11370 <_ZN6tflite19ScopedMicroProfilerD1Ev>
   11488:	4c1c                	lw	a5,24(s0)
   1148a:	0785                	addi	a5,a5,1
   1148c:	bfa9                	j	113e6 <_ZN6tflite21MicroInterpreterGraph14InvokeSubgraphEi+0x66>

0001148e <_ZN6tflite21MicroInterpreterGraphC1EP13TfLiteContextPKNS_5ModelEPNS_14MicroAllocatorEPNS_22MicroResourceVariablesE>:
   1148e:	1141                	addi	sp,sp,-16
   11490:	00063797          	auipc	a5,0x63
   11494:	c422                	sw	s0,8(sp)
   11496:	c606                	sw	ra,12(sp)
   11498:	19c78793          	addi	a5,a5,412 # 7462c <_ZTVN6tflite21MicroInterpreterGraphE+0x8>
   1149c:	c11c                	sw	a5,0(a0)
   1149e:	c14c                	sw	a1,4(a0)
   114a0:	c510                	sw	a2,8(a0)
   114a2:	c554                	sw	a3,12(a0)
   114a4:	00052823          	sw	zero,16(a0)
   114a8:	00052a23          	sw	zero,20(a0)
   114ac:	00052c23          	sw	zero,24(a0)
   114b0:	cd58                	sw	a4,28(a0)
   114b2:	842a                	mv	s0,a0
   114b4:	c619                	beqz	a2,114c2 <_ZN6tflite21MicroInterpreterGraphC1EP13TfLiteContextPKNS_5ModelEPNS_14MicroAllocatorEPNS_22MicroResourceVariablesE+0x34>
   114b6:	8532                	mv	a0,a2
   114b8:	fffff097          	auipc	ra,0xfffff
   114bc:	22e080e7          	jalr	558(ra) # 106e6 <_ZNK6tflite5Model9subgraphsEv>
   114c0:	d008                	sw	a0,32(s0)
   114c2:	40b2                	lw	ra,12(sp)
   114c4:	4422                	lw	s0,8(sp)
   114c6:	0141                	addi	sp,sp,16
   114c8:	8082                	ret

000114ca <_ZN6tflite21MicroInterpreterGraph22SetSubgraphAllocationsEPNS_19SubgraphAllocationsE>:
   114ca:	c90c                	sw	a1,16(a0)
   114cc:	8082                	ret

000114ce <_ZN6tflite21MicroInterpreterGraph20ResetVariableTensorsEv>:
   114ce:	7139                	addi	sp,sp,-64
   114d0:	da26                	sw	s1,52(sp)
   114d2:	d84a                	sw	s2,48(sp)
   114d4:	d05a                	sw	s6,32(sp)
   114d6:	ce5e                	sw	s7,28(sp)
   114d8:	de06                	sw	ra,60(sp)
   114da:	dc22                	sw	s0,56(sp)
   114dc:	d64e                	sw	s3,44(sp)
   114de:	d452                	sw	s4,40(sp)
   114e0:	d256                	sw	s5,36(sp)
   114e2:	cc62                	sw	s8,24(sp)
   114e4:	ca66                	sw	s9,20(sp)
   114e6:	84aa                	mv	s1,a0
   114e8:	4901                	li	s2,0
   114ea:	4b31                	li	s6,12
   114ec:	4ba5                	li	s7,9
   114ee:	5088                	lw	a0,32(s1)
   114f0:	411c                	lw	a5,0(a0)
   114f2:	02f96363          	bltu	s2,a5,11518 <_ZN6tflite21MicroInterpreterGraph20ResetVariableTensorsEv+0x4a>
   114f6:	4cc8                	lw	a0,28(s1)
   114f8:	10051d63          	bnez	a0,11612 <_ZN6tflite21MicroInterpreterGraph20ResetVariableTensorsEv+0x144>
   114fc:	4501                	li	a0,0
   114fe:	50f2                	lw	ra,60(sp)
   11500:	5462                	lw	s0,56(sp)
   11502:	54d2                	lw	s1,52(sp)
   11504:	5942                	lw	s2,48(sp)
   11506:	59b2                	lw	s3,44(sp)
   11508:	5a22                	lw	s4,40(sp)
   1150a:	5a92                	lw	s5,36(sp)
   1150c:	5b02                	lw	s6,32(sp)
   1150e:	4bf2                	lw	s7,28(sp)
   11510:	4c62                	lw	s8,24(sp)
   11512:	4cd2                	lw	s9,20(sp)
   11514:	6121                	addi	sp,sp,64
   11516:	8082                	ret
   11518:	85ca                	mv	a1,s2
   1151a:	fffff097          	auipc	ra,0xfffff
   1151e:	34c080e7          	jalr	844(ra) # 10866 <_ZNK11flatbuffers6VectorINS_6OffsetIN6tflite8SubGraphEEEmE3GetEm>
   11522:	8a2a                	mv	s4,a0
   11524:	00391a93          	slli	s5,s2,0x3
   11528:	4981                	li	s3,0
   1152a:	4591                	li	a1,4
   1152c:	8552                	mv	a0,s4
   1152e:	fffff097          	auipc	ra,0xfffff
   11532:	17e080e7          	jalr	382(ra) # 106ac <_ZNK11flatbuffers5Table22GetOptionalFieldOffsetEt>
   11536:	4401                	li	s0,0
   11538:	c501                	beqz	a0,11540 <_ZN6tflite21MicroInterpreterGraph20ResetVariableTensorsEv+0x72>
   1153a:	9552                	add	a0,a0,s4
   1153c:	4100                	lw	s0,0(a0)
   1153e:	942a                	add	s0,s0,a0
   11540:	401c                	lw	a5,0(s0)
   11542:	00f9e463          	bltu	s3,a5,1154a <_ZN6tflite21MicroInterpreterGraph20ResetVariableTensorsEv+0x7c>
   11546:	0905                	addi	s2,s2,1
   11548:	b75d                	j	114ee <_ZN6tflite21MicroInterpreterGraph20ResetVariableTensorsEv+0x20>
   1154a:	0985                	addi	s3,s3,1
   1154c:	00299793          	slli	a5,s3,0x2
   11550:	943e                	add	s0,s0,a5
   11552:	401c                	lw	a5,0(s0)
   11554:	45b9                	li	a1,14
   11556:	943e                	add	s0,s0,a5
   11558:	8522                	mv	a0,s0
   1155a:	fffff097          	auipc	ra,0xfffff
   1155e:	152080e7          	jalr	338(ra) # 106ac <_ZNK11flatbuffers5Table22GetOptionalFieldOffsetEt>
   11562:	d561                	beqz	a0,1152a <_ZN6tflite21MicroInterpreterGraph20ResetVariableTensorsEv+0x5c>
   11564:	9522                	add	a0,a0,s0
   11566:	00054783          	lbu	a5,0(a0)
   1156a:	d3e1                	beqz	a5,1152a <_ZN6tflite21MicroInterpreterGraph20ResetVariableTensorsEv+0x5c>
   1156c:	03698cb3          	mul	s9,s3,s6
   11570:	489c                	lw	a5,16(s1)
   11572:	006c                	addi	a1,sp,12
   11574:	97d6                	add	a5,a5,s5
   11576:	43c8                	lw	a0,4(a5)
   11578:	1cd1                	addi	s9,s9,-12
   1157a:	9566                	add	a0,a0,s9
   1157c:	00007097          	auipc	ra,0x7
   11580:	466080e7          	jalr	1126(ra) # 189e2 <_ZN6tflite26TfLiteEvalTensorByteLengthEPK16TfLiteEvalTensorPj>
   11584:	fd2d                	bnez	a0,114fe <_ZN6tflite21MicroInterpreterGraph20ResetVariableTensorsEv+0x30>
   11586:	4599                	li	a1,6
   11588:	8522                	mv	a0,s0
   1158a:	fffff097          	auipc	ra,0xfffff
   1158e:	122080e7          	jalr	290(ra) # 106ac <_ZNK11flatbuffers5Table22GetOptionalFieldOffsetEt>
   11592:	cd35                	beqz	a0,1160e <_ZN6tflite21MicroInterpreterGraph20ResetVariableTensorsEv+0x140>
   11594:	9522                	add	a0,a0,s0
   11596:	00050783          	lb	a5,0(a0)
   1159a:	07779a63          	bne	a5,s7,1160e <_ZN6tflite21MicroInterpreterGraph20ResetVariableTensorsEv+0x140>
   1159e:	45b1                	li	a1,12
   115a0:	8522                	mv	a0,s0
   115a2:	fffff097          	auipc	ra,0xfffff
   115a6:	10a080e7          	jalr	266(ra) # 106ac <_ZNK11flatbuffers5Table22GetOptionalFieldOffsetEt>
   115aa:	4c01                	li	s8,0
   115ac:	c509                	beqz	a0,115b6 <_ZN6tflite21MicroInterpreterGraph20ResetVariableTensorsEv+0xe8>
   115ae:	942a                	add	s0,s0,a0
   115b0:	00042c03          	lw	s8,0(s0)
   115b4:	9c22                	add	s8,s8,s0
   115b6:	45a9                	li	a1,10
   115b8:	8562                	mv	a0,s8
   115ba:	fffff097          	auipc	ra,0xfffff
   115be:	0f2080e7          	jalr	242(ra) # 106ac <_ZNK11flatbuffers5Table22GetOptionalFieldOffsetEt>
   115c2:	4781                	li	a5,0
   115c4:	c509                	beqz	a0,115ce <_ZN6tflite21MicroInterpreterGraph20ResetVariableTensorsEv+0x100>
   115c6:	9c2a                	add	s8,s8,a0
   115c8:	000c2783          	lw	a5,0(s8)
   115cc:	97e2                	add	a5,a5,s8
   115ce:	4398                	lw	a4,0(a5)
   115d0:	e31d                	bnez	a4,115f6 <_ZN6tflite21MicroInterpreterGraph20ResetVariableTensorsEv+0x128>
   115d2:	00017697          	auipc	a3,0x17
   115d6:	00018617          	auipc	a2,0x18
   115da:	00017517          	auipc	a0,0x17
   115de:	d7e68693          	addi	a3,a3,-642 # 28350 <__extenddftf2+0x322>
   115e2:	e7660613          	addi	a2,a2,-394 # 2944c <__extenddftf2+0x141e>
   115e6:	0b000593          	li	a1,176
   115ea:	e2650513          	addi	a0,a0,-474 # 28400 <__extenddftf2+0x3d2>
   115ee:	0000d097          	auipc	ra,0xd
   115f2:	566080e7          	jalr	1382(ra) # 1eb54 <__assert_func>
   115f6:	43cc                	lw	a1,4(a5)
   115f8:	489c                	lw	a5,16(s1)
   115fa:	4632                	lw	a2,12(sp)
   115fc:	97d6                	add	a5,a5,s5
   115fe:	43dc                	lw	a5,4(a5)
   11600:	97e6                	add	a5,a5,s9
   11602:	4388                	lw	a0,0(a5)
   11604:	00011097          	auipc	ra,0x11
   11608:	ece080e7          	jalr	-306(ra) # 224d2 <memset>
   1160c:	bf39                	j	1152a <_ZN6tflite21MicroInterpreterGraph20ResetVariableTensorsEv+0x5c>
   1160e:	4581                	li	a1,0
   11610:	b7e5                	j	115f8 <_ZN6tflite21MicroInterpreterGraph20ResetVariableTensorsEv+0x12a>
   11612:	00000097          	auipc	ra,0x0
   11616:	254080e7          	jalr	596(ra) # 11866 <_ZN6tflite22MicroResourceVariables8ResetAllEv>
   1161a:	b5cd                	j	114fc <_ZN6tflite21MicroInterpreterGraph20ResetVariableTensorsEv+0x2e>

0001161c <_ZN6tflite21MicroInterpreterGraph16GetSubgraphInputEii>:
   1161c:	1141                	addi	sp,sp,-16
   1161e:	c226                	sw	s1,4(sp)
   11620:	84aa                	mv	s1,a0
   11622:	4508                	lw	a0,8(a0)
   11624:	c606                	sw	ra,12(sp)
   11626:	c422                	sw	s0,8(sp)
   11628:	c04a                	sw	s2,0(sp)
   1162a:	842e                	mv	s0,a1
   1162c:	8932                	mv	s2,a2
   1162e:	fffff097          	auipc	ra,0xfffff
   11632:	0b8080e7          	jalr	184(ra) # 106e6 <_ZNK6tflite5Model9subgraphsEv>
   11636:	85a2                	mv	a1,s0
   11638:	fffff097          	auipc	ra,0xfffff
   1163c:	22e080e7          	jalr	558(ra) # 10866 <_ZNK11flatbuffers6VectorINS_6OffsetIN6tflite8SubGraphEEEmE3GetEm>
   11640:	4599                	li	a1,6
   11642:	fffff097          	auipc	ra,0xfffff
   11646:	25e080e7          	jalr	606(ra) # 108a0 <_ZN11flatbuffers5Table10GetPointerIPKNS_6VectorIlmEEmEET_t>
   1164a:	85ca                	mv	a1,s2
   1164c:	fffff097          	auipc	ra,0xfffff
   11650:	1e2080e7          	jalr	482(ra) # 1082e <_ZNK11flatbuffers6VectorIlmE3GetEm>
   11654:	4731                	li	a4,12
   11656:	02e50533          	mul	a0,a0,a4
   1165a:	489c                	lw	a5,16(s1)
   1165c:	040e                	slli	s0,s0,0x3
   1165e:	40b2                	lw	ra,12(sp)
   11660:	97a2                	add	a5,a5,s0
   11662:	43dc                	lw	a5,4(a5)
   11664:	4422                	lw	s0,8(sp)
   11666:	4492                	lw	s1,4(sp)
   11668:	4902                	lw	s2,0(sp)
   1166a:	953e                	add	a0,a0,a5
   1166c:	0141                	addi	sp,sp,16
   1166e:	8082                	ret

00011670 <_ZN6tflite21MicroInterpreterGraph17GetSubgraphOutputEii>:
   11670:	1141                	addi	sp,sp,-16
   11672:	c226                	sw	s1,4(sp)
   11674:	84aa                	mv	s1,a0
   11676:	4508                	lw	a0,8(a0)
   11678:	c606                	sw	ra,12(sp)
   1167a:	c422                	sw	s0,8(sp)
   1167c:	c04a                	sw	s2,0(sp)
   1167e:	842e                	mv	s0,a1
   11680:	8932                	mv	s2,a2
   11682:	fffff097          	auipc	ra,0xfffff
   11686:	064080e7          	jalr	100(ra) # 106e6 <_ZNK6tflite5Model9subgraphsEv>
   1168a:	85a2                	mv	a1,s0
   1168c:	fffff097          	auipc	ra,0xfffff
   11690:	1da080e7          	jalr	474(ra) # 10866 <_ZNK11flatbuffers6VectorINS_6OffsetIN6tflite8SubGraphEEEmE3GetEm>
   11694:	45a1                	li	a1,8
   11696:	fffff097          	auipc	ra,0xfffff
   1169a:	20a080e7          	jalr	522(ra) # 108a0 <_ZN11flatbuffers5Table10GetPointerIPKNS_6VectorIlmEEmEET_t>
   1169e:	85ca                	mv	a1,s2
   116a0:	fffff097          	auipc	ra,0xfffff
   116a4:	18e080e7          	jalr	398(ra) # 1082e <_ZNK11flatbuffers6VectorIlmE3GetEm>
   116a8:	4731                	li	a4,12
   116aa:	02e50533          	mul	a0,a0,a4
   116ae:	489c                	lw	a5,16(s1)
   116b0:	040e                	slli	s0,s0,0x3
   116b2:	40b2                	lw	ra,12(sp)
   116b4:	97a2                	add	a5,a5,s0
   116b6:	43dc                	lw	a5,4(a5)
   116b8:	4422                	lw	s0,8(sp)
   116ba:	4492                	lw	s1,4(sp)
   116bc:	4902                	lw	s2,0(sp)
   116be:	953e                	add	a0,a0,a5
   116c0:	0141                	addi	sp,sp,16
   116c2:	8082                	ret

000116c4 <_ZN6tflite21MicroInterpreterGraph17NumSubgraphInputsEi>:
   116c4:	4508                	lw	a0,8(a0)
   116c6:	1101                	addi	sp,sp,-32
   116c8:	ce06                	sw	ra,28(sp)
   116ca:	c62e                	sw	a1,12(sp)
   116cc:	fffff097          	auipc	ra,0xfffff
   116d0:	01a080e7          	jalr	26(ra) # 106e6 <_ZNK6tflite5Model9subgraphsEv>
   116d4:	45b2                	lw	a1,12(sp)
   116d6:	fffff097          	auipc	ra,0xfffff
   116da:	190080e7          	jalr	400(ra) # 10866 <_ZNK11flatbuffers6VectorINS_6OffsetIN6tflite8SubGraphEEEmE3GetEm>
   116de:	4599                	li	a1,6
   116e0:	fffff097          	auipc	ra,0xfffff
   116e4:	1c0080e7          	jalr	448(ra) # 108a0 <_ZN11flatbuffers5Table10GetPointerIPKNS_6VectorIlmEEmEET_t>
   116e8:	40f2                	lw	ra,28(sp)
   116ea:	4108                	lw	a0,0(a0)
   116ec:	6105                	addi	sp,sp,32
   116ee:	8082                	ret

000116f0 <_ZN6tflite21MicroInterpreterGraph18NumSubgraphOutputsEi>:
   116f0:	4508                	lw	a0,8(a0)
   116f2:	1101                	addi	sp,sp,-32
   116f4:	ce06                	sw	ra,28(sp)
   116f6:	c62e                	sw	a1,12(sp)
   116f8:	fffff097          	auipc	ra,0xfffff
   116fc:	fee080e7          	jalr	-18(ra) # 106e6 <_ZNK6tflite5Model9subgraphsEv>
   11700:	45b2                	lw	a1,12(sp)
   11702:	fffff097          	auipc	ra,0xfffff
   11706:	164080e7          	jalr	356(ra) # 10866 <_ZNK11flatbuffers6VectorINS_6OffsetIN6tflite8SubGraphEEEmE3GetEm>
   1170a:	45a1                	li	a1,8
   1170c:	fffff097          	auipc	ra,0xfffff
   11710:	194080e7          	jalr	404(ra) # 108a0 <_ZN11flatbuffers5Table10GetPointerIPKNS_6VectorIlmEEmEET_t>
   11714:	c509                	beqz	a0,1171e <_ZN6tflite21MicroInterpreterGraph18NumSubgraphOutputsEi+0x2e>
   11716:	4108                	lw	a0,0(a0)
   11718:	40f2                	lw	ra,28(sp)
   1171a:	6105                	addi	sp,sp,32
   1171c:	8082                	ret
   1171e:	4501                	li	a0,0
   11720:	bfe5                	j	11718 <_ZN6tflite21MicroInterpreterGraph18NumSubgraphOutputsEi+0x28>

00011722 <_ZN12_GLOBAL__N_19VDebugLogEPKcz.constprop.0>:
   11722:	7139                	addi	sp,sp,-64
   11724:	00018517          	auipc	a0,0x18
   11728:	d22e                	sw	a1,36(sp)
   1172a:	dd450513          	addi	a0,a0,-556 # 294f8 <__extenddftf2+0x14ca>
   1172e:	104c                	addi	a1,sp,36
   11730:	ce06                	sw	ra,28(sp)
   11732:	d432                	sw	a2,40(sp)
   11734:	d636                	sw	a3,44(sp)
   11736:	d83a                	sw	a4,48(sp)
   11738:	da3e                	sw	a5,52(sp)
   1173a:	dc42                	sw	a6,56(sp)
   1173c:	de46                	sw	a7,60(sp)
   1173e:	c62e                	sw	a1,12(sp)
   11740:	00007097          	auipc	ra,0x7
   11744:	0e2080e7          	jalr	226(ra) # 18822 <DebugLog>
   11748:	40f2                	lw	ra,28(sp)
   1174a:	6121                	addi	sp,sp,64
   1174c:	8082                	ret

0001174e <_Z12VMicroPrintfPKcPv>:
   1174e:	1141                	addi	sp,sp,-16
   11750:	c606                	sw	ra,12(sp)
   11752:	00007097          	auipc	ra,0x7
   11756:	0d0080e7          	jalr	208(ra) # 18822 <DebugLog>
   1175a:	40b2                	lw	ra,12(sp)
   1175c:	00018517          	auipc	a0,0x18
   11760:	d9c50513          	addi	a0,a0,-612 # 294f8 <__extenddftf2+0x14ca>
   11764:	0141                	addi	sp,sp,16
   11766:	00000317          	auipc	t1,0x0
   1176a:	fbc30067          	jr	-68(t1) # 11722 <_ZN12_GLOBAL__N_19VDebugLogEPKcz.constprop.0>

0001176e <_Z11MicroPrintfPKcz>:
   1176e:	7139                	addi	sp,sp,-64
   11770:	d22e                	sw	a1,36(sp)
   11772:	104c                	addi	a1,sp,36
   11774:	ce06                	sw	ra,28(sp)
   11776:	d432                	sw	a2,40(sp)
   11778:	d636                	sw	a3,44(sp)
   1177a:	d83a                	sw	a4,48(sp)
   1177c:	da3e                	sw	a5,52(sp)
   1177e:	dc42                	sw	a6,56(sp)
   11780:	de46                	sw	a7,60(sp)
   11782:	c62e                	sw	a1,12(sp)
   11784:	00000097          	auipc	ra,0x0
   11788:	fca080e7          	jalr	-54(ra) # 1174e <_Z12VMicroPrintfPKcPv>
   1178c:	40f2                	lw	ra,28(sp)
   1178e:	6121                	addi	sp,sp,64
   11790:	8082                	ret

00011792 <_ZN6tflite25GetRegistrationFromOpCodeEPKNS_12OperatorCodeERKNS_15MicroOpResolverEPPK16TFLMRegistration>:
   11792:	1101                	addi	sp,sp,-32
   11794:	00062023          	sw	zero,0(a2)
   11798:	cc22                	sw	s0,24(sp)
   1179a:	ca26                	sw	s1,20(sp)
   1179c:	c84a                	sw	s2,16(sp)
   1179e:	c64e                	sw	s3,12(sp)
   117a0:	ce06                	sw	ra,28(sp)
   117a2:	84aa                	mv	s1,a0
   117a4:	892e                	mv	s2,a1
   117a6:	89b2                	mv	s3,a2
   117a8:	00001097          	auipc	ra,0x1
   117ac:	8bc080e7          	jalr	-1860(ra) # 12064 <_ZN6tflite14GetBuiltinCodeEPKNS_12OperatorCodeE>
   117b0:	0ce00793          	li	a5,206
   117b4:	842a                	mv	s0,a0
   117b6:	02a7d363          	bge	a5,a0,117dc <_ZN6tflite25GetRegistrationFromOpCodeEPKNS_12OperatorCodeERKNS_15MicroOpResolverEPPK16TFLMRegistration+0x4a>
   117ba:	85aa                	mv	a1,a0
   117bc:	00018517          	auipc	a0,0x18
   117c0:	d4050513          	addi	a0,a0,-704 # 294fc <__extenddftf2+0x14ce>
   117c4:	00000097          	auipc	ra,0x0
   117c8:	faa080e7          	jalr	-86(ra) # 1176e <_Z11MicroPrintfPKcz>
   117cc:	4505                	li	a0,1
   117ce:	40f2                	lw	ra,28(sp)
   117d0:	4462                	lw	s0,24(sp)
   117d2:	44d2                	lw	s1,20(sp)
   117d4:	4942                	lw	s2,16(sp)
   117d6:	49b2                	lw	s3,12(sp)
   117d8:	6105                	addi	sp,sp,32
   117da:	8082                	ret
   117dc:	02000793          	li	a5,32
   117e0:	02f50f63          	beq	a0,a5,1181e <_ZN6tflite25GetRegistrationFromOpCodeEPKNS_12OperatorCodeERKNS_15MicroOpResolverEPPK16TFLMRegistration+0x8c>
   117e4:	00092783          	lw	a5,0(s2)
   117e8:	85aa                	mv	a1,a0
   117ea:	854a                	mv	a0,s2
   117ec:	439c                	lw	a5,0(a5)
   117ee:	9782                	jalr	a5
   117f0:	87aa                	mv	a5,a0
   117f2:	00a9a023          	sw	a0,0(s3)
   117f6:	4501                	li	a0,0
   117f8:	fbf9                	bnez	a5,117ce <_ZN6tflite25GetRegistrationFromOpCodeEPKNS_12OperatorCodeERKNS_15MicroOpResolverEPPK16TFLMRegistration+0x3c>
   117fa:	00018597          	auipc	a1,0x18
   117fe:	df658593          	addi	a1,a1,-522 # 295f0 <__extenddftf2+0x15c2>
   11802:	00044963          	bltz	s0,11814 <_ZN6tflite25GetRegistrationFromOpCodeEPKNS_12OperatorCodeERKNS_15MicroOpResolverEPPK16TFLMRegistration+0x82>
   11806:	00063797          	auipc	a5,0x63
   1180a:	040a                	slli	s0,s0,0x2
   1180c:	aa278793          	addi	a5,a5,-1374 # 742a8 <_ZZN6tflite24EnumNamesBuiltinOperatorEvE5names>
   11810:	943e                	add	s0,s0,a5
   11812:	400c                	lw	a1,0(s0)
   11814:	00018517          	auipc	a0,0x18
   11818:	d0c50513          	addi	a0,a0,-756 # 29520 <__extenddftf2+0x14f2>
   1181c:	b765                	j	117c4 <_ZN6tflite25GetRegistrationFromOpCodeEPKNS_12OperatorCodeERKNS_15MicroOpResolverEPPK16TFLMRegistration+0x32>
   1181e:	409c                	lw	a5,0(s1)
   11820:	4719                	li	a4,6
   11822:	40f487b3          	sub	a5,s1,a5
   11826:	0007d683          	lhu	a3,0(a5)
   1182a:	00d77963          	bgeu	a4,a3,1183c <_ZN6tflite25GetRegistrationFromOpCodeEPKNS_12OperatorCodeERKNS_15MicroOpResolverEPPK16TFLMRegistration+0xaa>
   1182e:	0067d783          	lhu	a5,6(a5)
   11832:	94be                	add	s1,s1,a5
   11834:	c781                	beqz	a5,1183c <_ZN6tflite25GetRegistrationFromOpCodeEPKNS_12OperatorCodeERKNS_15MicroOpResolverEPPK16TFLMRegistration+0xaa>
   11836:	409c                	lw	a5,0(s1)
   11838:	94be                	add	s1,s1,a5
   1183a:	e891                	bnez	s1,1184e <_ZN6tflite25GetRegistrationFromOpCodeEPKNS_12OperatorCodeERKNS_15MicroOpResolverEPPK16TFLMRegistration+0xbc>
   1183c:	00018517          	auipc	a0,0x18
   11840:	d0c50513          	addi	a0,a0,-756 # 29548 <__extenddftf2+0x151a>
   11844:	00000097          	auipc	ra,0x0
   11848:	f2a080e7          	jalr	-214(ra) # 1176e <_Z11MicroPrintfPKcz>
   1184c:	b741                	j	117cc <_ZN6tflite25GetRegistrationFromOpCodeEPKNS_12OperatorCodeERKNS_15MicroOpResolverEPPK16TFLMRegistration+0x3a>
   1184e:	00092783          	lw	a5,0(s2)
   11852:	00448593          	addi	a1,s1,4
   11856:	854a                	mv	a0,s2
   11858:	43dc                	lw	a5,4(a5)
   1185a:	9782                	jalr	a5
   1185c:	00a9a023          	sw	a0,0(s3)
   11860:	00153513          	seqz	a0,a0
   11864:	b7ad                	j	117ce <_ZN6tflite25GetRegistrationFromOpCodeEPKNS_12OperatorCodeERKNS_15MicroOpResolverEPPK16TFLMRegistration+0x3c>

00011866 <_ZN6tflite22MicroResourceVariables8ResetAllEv>:
   11866:	1141                	addi	sp,sp,-16
   11868:	c422                	sw	s0,8(sp)
   1186a:	c226                	sw	s1,4(sp)
   1186c:	c04a                	sw	s2,0(sp)
   1186e:	c606                	sw	ra,12(sp)
   11870:	84aa                	mv	s1,a0
   11872:	4401                	li	s0,0
   11874:	4951                	li	s2,20
   11876:	449c                	lw	a5,8(s1)
   11878:	00f44963          	blt	s0,a5,1188a <_ZN6tflite22MicroResourceVariables8ResetAllEv+0x24>
   1187c:	40b2                	lw	ra,12(sp)
   1187e:	4422                	lw	s0,8(sp)
   11880:	4492                	lw	s1,4(sp)
   11882:	4902                	lw	s2,0(sp)
   11884:	4501                	li	a0,0
   11886:	0141                	addi	sp,sp,16
   11888:	8082                	ret
   1188a:	03240733          	mul	a4,s0,s2
   1188e:	409c                	lw	a5,0(s1)
   11890:	0405                	addi	s0,s0,1
   11892:	97ba                	add	a5,a5,a4
   11894:	47d0                	lw	a2,12(a5)
   11896:	01078583          	lb	a1,16(a5)
   1189a:	4788                	lw	a0,8(a5)
   1189c:	00011097          	auipc	ra,0x11
   118a0:	c36080e7          	jalr	-970(ra) # 224d2 <memset>
   118a4:	bfc9                	j	11876 <_ZN6tflite22MicroResourceVariables8ResetAllEv+0x10>

000118a6 <_ZN6tflite12ElementCountERK14TfLiteIntArray>:
   118a6:	4114                	lw	a3,0(a0)
   118a8:	00450793          	addi	a5,a0,4
   118ac:	4701                	li	a4,0
   118ae:	4505                	li	a0,1
   118b0:	00d74363          	blt	a4,a3,118b6 <_ZN6tflite12ElementCountERK14TfLiteIntArray+0x10>
   118b4:	8082                	ret
   118b6:	4390                	lw	a2,0(a5)
   118b8:	0705                	addi	a4,a4,1
   118ba:	0791                	addi	a5,a5,4
   118bc:	02c50533          	mul	a0,a0,a2
   118c0:	bfc5                	j	118b0 <_ZN6tflite12ElementCountERK14TfLiteIntArray+0xa>

000118c2 <_ZN6tflite16InitializeTargetEv>:
   118c2:	8082                	ret

000118c4 <_ZN6tflite17ConvertTensorTypeENS_10TensorTypeEP10TfLiteType>:
   118c4:	1101                	addi	sp,sp,-32
   118c6:	cc22                	sw	s0,24(sp)
   118c8:	ce06                	sw	ra,28(sp)
   118ca:	842a                	mv	s0,a0
   118cc:	c62e                	sw	a1,12(sp)
   118ce:	00000097          	auipc	ra,0x0
   118d2:	062080e7          	jalr	98(ra) # 11930 <_ZN6tflite21GetMicroErrorReporterEv>
   118d6:	862a                	mv	a2,a0
   118d8:	8522                	mv	a0,s0
   118da:	4462                	lw	s0,24(sp)
   118dc:	45b2                	lw	a1,12(sp)
   118de:	40f2                	lw	ra,28(sp)
   118e0:	6105                	addi	sp,sp,32
   118e2:	00000317          	auipc	t1,0x0
   118e6:	15030067          	jr	336(t1) # 11a32 <_ZN6tflite17ConvertTensorTypeENS_10TensorTypeEP10TfLiteTypePNS_13ErrorReporterE>

000118ea <_ZN6tflite24CallBuiltinParseFunctionEPF12TfLiteStatusPKNS_8OperatorEPNS_13ErrorReporterEPNS_20BuiltinDataAllocatorEPPvES3_S7_S9_>:
   118ea:	1101                	addi	sp,sp,-32
   118ec:	cc22                	sw	s0,24(sp)
   118ee:	ca26                	sw	s1,20(sp)
   118f0:	ce06                	sw	ra,28(sp)
   118f2:	84ae                	mv	s1,a1
   118f4:	842a                	mv	s0,a0
   118f6:	c632                	sw	a2,12(sp)
   118f8:	c436                	sw	a3,8(sp)
   118fa:	00000097          	auipc	ra,0x0
   118fe:	036080e7          	jalr	54(ra) # 11930 <_ZN6tflite21GetMicroErrorReporterEv>
   11902:	87a2                	mv	a5,s0
   11904:	4462                	lw	s0,24(sp)
   11906:	46a2                	lw	a3,8(sp)
   11908:	4632                	lw	a2,12(sp)
   1190a:	40f2                	lw	ra,28(sp)
   1190c:	85aa                	mv	a1,a0
   1190e:	8526                	mv	a0,s1
   11910:	44d2                	lw	s1,20(sp)
   11912:	6105                	addi	sp,sp,32
   11914:	8782                	jr	a5

00011916 <_ZN6tflite18MicroErrorReporterD0Ev>:
   11916:	8082                	ret

00011918 <_ZN6tflite18MicroErrorReporter6ReportEPKcPv>:
   11918:	1141                	addi	sp,sp,-16
   1191a:	852e                	mv	a0,a1
   1191c:	85b2                	mv	a1,a2
   1191e:	c606                	sw	ra,12(sp)
   11920:	00000097          	auipc	ra,0x0
   11924:	e2e080e7          	jalr	-466(ra) # 1174e <_Z12VMicroPrintfPKcPv>
   11928:	40b2                	lw	ra,12(sp)
   1192a:	4501                	li	a0,0
   1192c:	0141                	addi	sp,sp,16
   1192e:	8082                	ret

00011930 <_ZN6tflite21GetMicroErrorReporterEv>:
   11930:	00064797          	auipc	a5,0x64
   11934:	f6c7a783          	lw	a5,-148(a5) # 7589c <_ZN12_GLOBAL__N_115error_reporter_E>
   11938:	e38d                	bnez	a5,1195a <_ZN6tflite21GetMicroErrorReporterEv+0x2a>
   1193a:	00063797          	auipc	a5,0x63
   1193e:	d3278793          	addi	a5,a5,-718 # 7466c <_ZTVN6tflite18MicroErrorReporterE+0x8>
   11942:	00064717          	auipc	a4,0x64
   11946:	f4f72f23          	sw	a5,-162(a4) # 758a0 <_ZN12_GLOBAL__N_127micro_error_reporter_bufferE>
   1194a:	00064797          	auipc	a5,0x64
   1194e:	f5678793          	addi	a5,a5,-170 # 758a0 <_ZN12_GLOBAL__N_127micro_error_reporter_bufferE>
   11952:	00064717          	auipc	a4,0x64
   11956:	f4f72523          	sw	a5,-182(a4) # 7589c <_ZN12_GLOBAL__N_115error_reporter_E>
   1195a:	00064797          	auipc	a5,0x64
   1195e:	f427a503          	lw	a0,-190(a5) # 7589c <_ZN12_GLOBAL__N_115error_reporter_E>
   11962:	8082                	ret

00011964 <_ZN6tflite12_GLOBAL__N_114ConvertPaddingENS_7PaddingE>:
   11964:	c511                	beqz	a0,11970 <_ZN6tflite12_GLOBAL__N_114ConvertPaddingENS_7PaddingE+0xc>
   11966:	157d                	addi	a0,a0,-1
   11968:	00153513          	seqz	a0,a0
   1196c:	0506                	slli	a0,a0,0x1
   1196e:	8082                	ret
   11970:	4505                	li	a0,1
   11972:	8082                	ret

00011974 <_ZN6tflite12_GLOBAL__N_1L26FlatBufferIntVectorToArrayIlEE12TfLiteStatusiPKN11flatbuffers6VectorIT_mEEPS5_PNS_13ErrorReporterEPKc.constprop.0>:
   11974:	1141                	addi	sp,sp,-16
   11976:	87aa                	mv	a5,a0
   11978:	c606                	sw	ra,12(sp)
   1197a:	8532                	mv	a0,a2
   1197c:	8636                	mv	a2,a3
   1197e:	ef89                	bnez	a5,11998 <_ZN6tflite12_GLOBAL__N_1L26FlatBufferIntVectorToArrayIlEE12TfLiteStatusiPKN11flatbuffers6VectorIT_mEEPS5_PNS_13ErrorReporterEPKc.constprop.0+0x24>
   11980:	00018597          	auipc	a1,0x18
   11984:	c0058593          	addi	a1,a1,-1024 # 29580 <__extenddftf2+0x1552>
   11988:	00009097          	auipc	ra,0x9
   1198c:	35a080e7          	jalr	858(ra) # 1ace2 <_ZN6tflite13ErrorReporter6ReportEPKcz>
   11990:	4505                	li	a0,1
   11992:	40b2                	lw	ra,12(sp)
   11994:	0141                	addi	sp,sp,16
   11996:	8082                	ret
   11998:	0007a803          	lw	a6,0(a5)
   1199c:	4721                	li	a4,8
   1199e:	01076763          	bltu	a4,a6,119ac <_ZN6tflite12_GLOBAL__N_1L26FlatBufferIntVectorToArrayIlEE12TfLiteStatusiPKN11flatbuffers6VectorIT_mEEPS5_PNS_13ErrorReporterEPKc.constprop.0+0x38>
   119a2:	4701                	li	a4,0
   119a4:	00e81963          	bne	a6,a4,119b6 <_ZN6tflite12_GLOBAL__N_1L26FlatBufferIntVectorToArrayIlEE12TfLiteStatusiPKN11flatbuffers6VectorIT_mEEPS5_PNS_13ErrorReporterEPKc.constprop.0+0x42>
   119a8:	4501                	li	a0,0
   119aa:	b7e5                	j	11992 <_ZN6tflite12_GLOBAL__N_1L26FlatBufferIntVectorToArrayIlEE12TfLiteStatusiPKN11flatbuffers6VectorIT_mEEPS5_PNS_13ErrorReporterEPKc.constprop.0+0x1e>
   119ac:	00018597          	auipc	a1,0x18
   119b0:	c0458593          	addi	a1,a1,-1020 # 295b0 <__extenddftf2+0x1582>
   119b4:	bfd1                	j	11988 <_ZN6tflite12_GLOBAL__N_1L26FlatBufferIntVectorToArrayIlEE12TfLiteStatusiPKN11flatbuffers6VectorIT_mEEPS5_PNS_13ErrorReporterEPKc.constprop.0+0x14>
   119b6:	4394                	lw	a3,0(a5)
   119b8:	02d76463          	bltu	a4,a3,119e0 <_ZN6tflite12_GLOBAL__N_1L26FlatBufferIntVectorToArrayIlEE12TfLiteStatusiPKN11flatbuffers6VectorIT_mEEPS5_PNS_13ErrorReporterEPKc.constprop.0+0x6c>
   119bc:	00017697          	auipc	a3,0x17
   119c0:	00017617          	auipc	a2,0x17
   119c4:	00017517          	auipc	a0,0x17
   119c8:	99468693          	addi	a3,a3,-1644 # 28350 <__extenddftf2+0x322>
   119cc:	99c60613          	addi	a2,a2,-1636 # 2835c <__extenddftf2+0x32e>
   119d0:	0b000593          	li	a1,176
   119d4:	a3c50513          	addi	a0,a0,-1476 # 28400 <__extenddftf2+0x3d2>
   119d8:	0000d097          	auipc	ra,0xd
   119dc:	17c080e7          	jalr	380(ra) # 1eb54 <__assert_func>
   119e0:	0705                	addi	a4,a4,1
   119e2:	00271693          	slli	a3,a4,0x2
   119e6:	96be                	add	a3,a3,a5
   119e8:	4294                	lw	a3,0(a3)
   119ea:	c194                	sw	a3,0(a1)
   119ec:	0591                	addi	a1,a1,4
   119ee:	bf5d                	j	119a4 <_ZN6tflite12_GLOBAL__N_1L26FlatBufferIntVectorToArrayIlEE12TfLiteStatusiPKN11flatbuffers6VectorIT_mEEPS5_PNS_13ErrorReporterEPKc.constprop.0+0x30>

000119f0 <_ZN6tflite12_GLOBAL__N_124SafeBuiltinDataAllocator18BuiltinDataDeleterclEPv.isra.0>:
   119f0:	411c                	lw	a5,0(a0)
   119f2:	43dc                	lw	a5,4(a5)
   119f4:	8782                	jr	a5

000119f6 <_ZNK6tflite8Operator15builtin_optionsEv>:
   119f6:	1141                	addi	sp,sp,-16
   119f8:	45b1                	li	a1,12
   119fa:	c422                	sw	s0,8(sp)
   119fc:	c606                	sw	ra,12(sp)
   119fe:	842a                	mv	s0,a0
   11a00:	fffff097          	auipc	ra,0xfffff
   11a04:	cac080e7          	jalr	-852(ra) # 106ac <_ZNK11flatbuffers5Table22GetOptionalFieldOffsetEt>
   11a08:	c901                	beqz	a0,11a18 <_ZNK6tflite8Operator15builtin_optionsEv+0x22>
   11a0a:	9522                	add	a0,a0,s0
   11a0c:	411c                	lw	a5,0(a0)
   11a0e:	953e                	add	a0,a0,a5
   11a10:	40b2                	lw	ra,12(sp)
   11a12:	4422                	lw	s0,8(sp)
   11a14:	0141                	addi	sp,sp,16
   11a16:	8082                	ret
   11a18:	4501                	li	a0,0
   11a1a:	bfdd                	j	11a10 <_ZNK6tflite8Operator15builtin_optionsEv+0x1a>

00011a1c <_ZN6tflite12_GLOBAL__N_123CheckParsePointerParamsEPKNS_8OperatorEPNS_13ErrorReporterEPNS_20BuiltinDataAllocatorEPPv>:
   11a1c:	e519                	bnez	a0,11a2a <_ZN6tflite12_GLOBAL__N_123CheckParsePointerParamsEPKNS_8OperatorEPNS_13ErrorReporterEPNS_20BuiltinDataAllocatorEPPv+0xe>
   11a1e:	1141                	addi	sp,sp,-16
   11a20:	c606                	sw	ra,12(sp)
   11a22:	fffff097          	auipc	ra,0xfffff
   11a26:	5ac080e7          	jalr	1452(ra) # 10fce <_Z9AbortImplv>
   11a2a:	d9f5                	beqz	a1,11a1e <_ZN6tflite12_GLOBAL__N_123CheckParsePointerParamsEPKNS_8OperatorEPNS_13ErrorReporterEPNS_20BuiltinDataAllocatorEPPv+0x2>
   11a2c:	da6d                	beqz	a2,11a1e <_ZN6tflite12_GLOBAL__N_123CheckParsePointerParamsEPKNS_8OperatorEPNS_13ErrorReporterEPNS_20BuiltinDataAllocatorEPPv+0x2>
   11a2e:	dae5                	beqz	a3,11a1e <_ZN6tflite12_GLOBAL__N_123CheckParsePointerParamsEPKNS_8OperatorEPNS_13ErrorReporterEPNS_20BuiltinDataAllocatorEPPv+0x2>
   11a30:	8082                	ret

00011a32 <_ZN6tflite17ConvertTensorTypeENS_10TensorTypeEP10TfLiteTypePNS_13ErrorReporterE>:
   11a32:	0ff57693          	zext.b	a3,a0
   11a36:	4749                	li	a4,18
   11a38:	87aa                	mv	a5,a0
   11a3a:	06d76463          	bltu	a4,a3,11aa2 <_ZN6tflite17ConvertTensorTypeENS_10TensorTypeEP10TfLiteTypePNS_13ErrorReporterE+0x70>
   11a3e:	00063717          	auipc	a4,0x63
   11a42:	c3a70713          	addi	a4,a4,-966 # 74678 <_ZTVN6tflite18MicroErrorReporterE+0x14>
   11a46:	00251793          	slli	a5,a0,0x2
   11a4a:	97ba                	add	a5,a5,a4
   11a4c:	439c                	lw	a5,0(a5)
   11a4e:	97ba                	add	a5,a5,a4
   11a50:	8782                	jr	a5
   11a52:	47a9                	li	a5,10
   11a54:	c19c                	sw	a5,0(a1)
   11a56:	4501                	li	a0,0
   11a58:	8082                	ret
   11a5a:	47cd                	li	a5,19
   11a5c:	bfe5                	j	11a54 <_ZN6tflite17ConvertTensorTypeENS_10TensorTypeEP10TfLiteTypePNS_13ErrorReporterE+0x22>
   11a5e:	4785                	li	a5,1
   11a60:	bfd5                	j	11a54 <_ZN6tflite17ConvertTensorTypeENS_10TensorTypeEP10TfLiteTypePNS_13ErrorReporterE+0x22>
   11a62:	47ad                	li	a5,11
   11a64:	bfc5                	j	11a54 <_ZN6tflite17ConvertTensorTypeENS_10TensorTypeEP10TfLiteTypePNS_13ErrorReporterE+0x22>
   11a66:	479d                	li	a5,7
   11a68:	b7f5                	j	11a54 <_ZN6tflite17ConvertTensorTypeENS_10TensorTypeEP10TfLiteTypePNS_13ErrorReporterE+0x22>
   11a6a:	47c5                	li	a5,17
   11a6c:	b7e5                	j	11a54 <_ZN6tflite17ConvertTensorTypeENS_10TensorTypeEP10TfLiteTypePNS_13ErrorReporterE+0x22>
   11a6e:	4789                	li	a5,2
   11a70:	b7d5                	j	11a54 <_ZN6tflite17ConvertTensorTypeENS_10TensorTypeEP10TfLiteTypePNS_13ErrorReporterE+0x22>
   11a72:	47c1                	li	a5,16
   11a74:	b7c5                	j	11a54 <_ZN6tflite17ConvertTensorTypeENS_10TensorTypeEP10TfLiteTypePNS_13ErrorReporterE+0x22>
   11a76:	478d                	li	a5,3
   11a78:	bff1                	j	11a54 <_ZN6tflite17ConvertTensorTypeENS_10TensorTypeEP10TfLiteTypePNS_13ErrorReporterE+0x22>
   11a7a:	47a5                	li	a5,9
   11a7c:	bfe1                	j	11a54 <_ZN6tflite17ConvertTensorTypeENS_10TensorTypeEP10TfLiteTypePNS_13ErrorReporterE+0x22>
   11a7e:	4791                	li	a5,4
   11a80:	bfd1                	j	11a54 <_ZN6tflite17ConvertTensorTypeENS_10TensorTypeEP10TfLiteTypePNS_13ErrorReporterE+0x22>
   11a82:	47b5                	li	a5,13
   11a84:	bfc1                	j	11a54 <_ZN6tflite17ConvertTensorTypeENS_10TensorTypeEP10TfLiteTypePNS_13ErrorReporterE+0x22>
   11a86:	4795                	li	a5,5
   11a88:	b7f1                	j	11a54 <_ZN6tflite17ConvertTensorTypeENS_10TensorTypeEP10TfLiteTypePNS_13ErrorReporterE+0x22>
   11a8a:	4799                	li	a5,6
   11a8c:	b7e1                	j	11a54 <_ZN6tflite17ConvertTensorTypeENS_10TensorTypeEP10TfLiteTypePNS_13ErrorReporterE+0x22>
   11a8e:	47a1                	li	a5,8
   11a90:	b7d1                	j	11a54 <_ZN6tflite17ConvertTensorTypeENS_10TensorTypeEP10TfLiteTypePNS_13ErrorReporterE+0x22>
   11a92:	47b1                	li	a5,12
   11a94:	b7c1                	j	11a54 <_ZN6tflite17ConvertTensorTypeENS_10TensorTypeEP10TfLiteTypePNS_13ErrorReporterE+0x22>
   11a96:	47b9                	li	a5,14
   11a98:	bf75                	j	11a54 <_ZN6tflite17ConvertTensorTypeENS_10TensorTypeEP10TfLiteTypePNS_13ErrorReporterE+0x22>
   11a9a:	47bd                	li	a5,15
   11a9c:	bf65                	j	11a54 <_ZN6tflite17ConvertTensorTypeENS_10TensorTypeEP10TfLiteTypePNS_13ErrorReporterE+0x22>
   11a9e:	47c9                	li	a5,18
   11aa0:	bf55                	j	11a54 <_ZN6tflite17ConvertTensorTypeENS_10TensorTypeEP10TfLiteTypePNS_13ErrorReporterE+0x22>
   11aa2:	1141                	addi	sp,sp,-16
   11aa4:	c606                	sw	ra,12(sp)
   11aa6:	0005a023          	sw	zero,0(a1)
   11aaa:	00018597          	auipc	a1,0x18
   11aae:	8532                	mv	a0,a2
   11ab0:	b4a58593          	addi	a1,a1,-1206 # 295f4 <__extenddftf2+0x15c6>
   11ab4:	863e                	mv	a2,a5
   11ab6:	00009097          	auipc	ra,0x9
   11aba:	22c080e7          	jalr	556(ra) # 1ace2 <_ZN6tflite13ErrorReporter6ReportEPKcz>
   11abe:	40b2                	lw	ra,12(sp)
   11ac0:	4505                	li	a0,1
   11ac2:	0141                	addi	sp,sp,16
   11ac4:	8082                	ret

00011ac6 <_ZNK11flatbuffers5Table8GetFieldIhEET_tS2_>:
   11ac6:	1141                	addi	sp,sp,-16
   11ac8:	c422                	sw	s0,8(sp)
   11aca:	c226                	sw	s1,4(sp)
   11acc:	c606                	sw	ra,12(sp)
   11ace:	842a                	mv	s0,a0
   11ad0:	84b2                	mv	s1,a2
   11ad2:	fffff097          	auipc	ra,0xfffff
   11ad6:	bda080e7          	jalr	-1062(ra) # 106ac <_ZNK11flatbuffers5Table22GetOptionalFieldOffsetEt>
   11ada:	c501                	beqz	a0,11ae2 <_ZNK11flatbuffers5Table8GetFieldIhEET_tS2_+0x1c>
   11adc:	942a                	add	s0,s0,a0
   11ade:	00044483          	lbu	s1,0(s0)
   11ae2:	40b2                	lw	ra,12(sp)
   11ae4:	4422                	lw	s0,8(sp)
   11ae6:	8526                	mv	a0,s1
   11ae8:	4492                	lw	s1,4(sp)
   11aea:	0141                	addi	sp,sp,16
   11aec:	8082                	ret

00011aee <_ZNK6tflite8Operator20builtin_options_typeEv>:
   11aee:	4601                	li	a2,0
   11af0:	45a9                	li	a1,10
   11af2:	00000317          	auipc	t1,0x0
   11af6:	fd430067          	jr	-44(t1) # 11ac6 <_ZNK11flatbuffers5Table8GetFieldIhEET_tS2_>

00011afa <_ZN6tflite12ParseReshapeEPKNS_8OperatorEPNS_13ErrorReporterEPNS_20BuiltinDataAllocatorEPPv>:
   11afa:	1101                	addi	sp,sp,-32
   11afc:	ce06                	sw	ra,28(sp)
   11afe:	cc22                	sw	s0,24(sp)
   11b00:	ca26                	sw	s1,20(sp)
   11b02:	c84a                	sw	s2,16(sp)
   11b04:	c64e                	sw	s3,12(sp)
   11b06:	c452                	sw	s4,8(sp)
   11b08:	89b2                	mv	s3,a2
   11b0a:	842a                	mv	s0,a0
   11b0c:	892e                	mv	s2,a1
   11b0e:	8a36                	mv	s4,a3
   11b10:	00000097          	auipc	ra,0x0
   11b14:	f0c080e7          	jalr	-244(ra) # 11a1c <_ZN6tflite12_GLOBAL__N_123CheckParsePointerParamsEPKNS_8OperatorEPNS_13ErrorReporterEPNS_20BuiltinDataAllocatorEPPv>
   11b18:	0009a783          	lw	a5,0(s3)
   11b1c:	4611                	li	a2,4
   11b1e:	02400593          	li	a1,36
   11b22:	439c                	lw	a5,0(a5)
   11b24:	854e                	mv	a0,s3
   11b26:	9782                	jalr	a5
   11b28:	84aa                	mv	s1,a0
   11b2a:	02400613          	li	a2,36
   11b2e:	4581                	li	a1,0
   11b30:	00011097          	auipc	ra,0x11
   11b34:	9a2080e7          	jalr	-1630(ra) # 224d2 <memset>
   11b38:	ec9d                	bnez	s1,11b76 <_ZN6tflite12ParseReshapeEPKNS_8OperatorEPNS_13ErrorReporterEPNS_20BuiltinDataAllocatorEPPv+0x7c>
   11b3a:	00018797          	auipc	a5,0x18
   11b3e:	00018697          	auipc	a3,0x18
   11b42:	00018617          	auipc	a2,0x18
   11b46:	85ca                	mv	a1,s2
   11b48:	854a                	mv	a0,s2
   11b4a:	ade78793          	addi	a5,a5,-1314 # 29618 <__extenddftf2+0x15ea>
   11b4e:	7ef00713          	li	a4,2031
   11b52:	aee68693          	addi	a3,a3,-1298 # 2962c <__extenddftf2+0x15fe>
   11b56:	b1e60613          	addi	a2,a2,-1250 # 29660 <__extenddftf2+0x1632>
   11b5a:	00009097          	auipc	ra,0x9
   11b5e:	1a8080e7          	jalr	424(ra) # 1ad02 <_ZN6tflite13ErrorReporter11ReportErrorEPvPKcz>
   11b62:	4905                	li	s2,1
   11b64:	40f2                	lw	ra,28(sp)
   11b66:	4462                	lw	s0,24(sp)
   11b68:	44d2                	lw	s1,20(sp)
   11b6a:	49b2                	lw	s3,12(sp)
   11b6c:	4a22                	lw	s4,8(sp)
   11b6e:	854a                	mv	a0,s2
   11b70:	4942                	lw	s2,16(sp)
   11b72:	6105                	addi	sp,sp,32
   11b74:	8082                	ret
   11b76:	8522                	mv	a0,s0
   11b78:	00000097          	auipc	ra,0x0
   11b7c:	f76080e7          	jalr	-138(ra) # 11aee <_ZNK6tflite8Operator20builtin_options_typeEv>
   11b80:	47c5                	li	a5,17
   11b82:	04f51263          	bne	a0,a5,11bc6 <_ZN6tflite12ParseReshapeEPKNS_8OperatorEPNS_13ErrorReporterEPNS_20BuiltinDataAllocatorEPPv+0xcc>
   11b86:	8522                	mv	a0,s0
   11b88:	00000097          	auipc	ra,0x0
   11b8c:	e6e080e7          	jalr	-402(ra) # 119f6 <_ZNK6tflite8Operator15builtin_optionsEv>
   11b90:	842a                	mv	s0,a0
   11b92:	c915                	beqz	a0,11bc6 <_ZN6tflite12ParseReshapeEPKNS_8OperatorEPNS_13ErrorReporterEPNS_20BuiltinDataAllocatorEPPv+0xcc>
   11b94:	4591                	li	a1,4
   11b96:	fffff097          	auipc	ra,0xfffff
   11b9a:	b16080e7          	jalr	-1258(ra) # 106ac <_ZNK11flatbuffers5Table22GetOptionalFieldOffsetEt>
   11b9e:	c505                	beqz	a0,11bc6 <_ZN6tflite12ParseReshapeEPKNS_8OperatorEPNS_13ErrorReporterEPNS_20BuiltinDataAllocatorEPPv+0xcc>
   11ba0:	942a                	add	s0,s0,a0
   11ba2:	401c                	lw	a5,0(s0)
   11ba4:	943e                	add	s0,s0,a5
   11ba6:	c005                	beqz	s0,11bc6 <_ZN6tflite12ParseReshapeEPKNS_8OperatorEPNS_13ErrorReporterEPNS_20BuiltinDataAllocatorEPPv+0xcc>
   11ba8:	00018697          	auipc	a3,0x18
   11bac:	864a                	mv	a2,s2
   11bae:	ad068693          	addi	a3,a3,-1328 # 29678 <__extenddftf2+0x164a>
   11bb2:	85a6                	mv	a1,s1
   11bb4:	8522                	mv	a0,s0
   11bb6:	00000097          	auipc	ra,0x0
   11bba:	dbe080e7          	jalr	-578(ra) # 11974 <_ZN6tflite12_GLOBAL__N_1L26FlatBufferIntVectorToArrayIlEE12TfLiteStatusiPKN11flatbuffers6VectorIT_mEEPS5_PNS_13ErrorReporterEPKc.constprop.0>
   11bbe:	892a                	mv	s2,a0
   11bc0:	e519                	bnez	a0,11bce <_ZN6tflite12ParseReshapeEPKNS_8OperatorEPNS_13ErrorReporterEPNS_20BuiltinDataAllocatorEPPv+0xd4>
   11bc2:	401c                	lw	a5,0(s0)
   11bc4:	d09c                	sw	a5,32(s1)
   11bc6:	009a2023          	sw	s1,0(s4)
   11bca:	4901                	li	s2,0
   11bcc:	bf61                	j	11b64 <_ZN6tflite12ParseReshapeEPKNS_8OperatorEPNS_13ErrorReporterEPNS_20BuiltinDataAllocatorEPPv+0x6a>
   11bce:	85a6                	mv	a1,s1
   11bd0:	854e                	mv	a0,s3
   11bd2:	00000097          	auipc	ra,0x0
   11bd6:	e1e080e7          	jalr	-482(ra) # 119f0 <_ZN6tflite12_GLOBAL__N_124SafeBuiltinDataAllocator18BuiltinDataDeleterclEPv.isra.0>
   11bda:	b769                	j	11b64 <_ZN6tflite12ParseReshapeEPKNS_8OperatorEPNS_13ErrorReporterEPNS_20BuiltinDataAllocatorEPPv+0x6a>

00011bdc <_ZNK11flatbuffers5Table8GetFieldIlEET_tS2_>:
   11bdc:	1141                	addi	sp,sp,-16
   11bde:	c422                	sw	s0,8(sp)
   11be0:	c226                	sw	s1,4(sp)
   11be2:	c606                	sw	ra,12(sp)
   11be4:	842a                	mv	s0,a0
   11be6:	84b2                	mv	s1,a2
   11be8:	fffff097          	auipc	ra,0xfffff
   11bec:	ac4080e7          	jalr	-1340(ra) # 106ac <_ZNK11flatbuffers5Table22GetOptionalFieldOffsetEt>
   11bf0:	c119                	beqz	a0,11bf6 <_ZNK11flatbuffers5Table8GetFieldIlEET_tS2_+0x1a>
   11bf2:	942a                	add	s0,s0,a0
   11bf4:	4004                	lw	s1,0(s0)
   11bf6:	40b2                	lw	ra,12(sp)
   11bf8:	4422                	lw	s0,8(sp)
   11bfa:	8526                	mv	a0,s1
   11bfc:	4492                	lw	s1,4(sp)
   11bfe:	0141                	addi	sp,sp,16
   11c00:	8082                	ret

00011c02 <_ZNK11flatbuffers5Table8GetFieldIaEET_tS2_>:
   11c02:	1141                	addi	sp,sp,-16
   11c04:	c422                	sw	s0,8(sp)
   11c06:	c226                	sw	s1,4(sp)
   11c08:	c606                	sw	ra,12(sp)
   11c0a:	842a                	mv	s0,a0
   11c0c:	84b2                	mv	s1,a2
   11c0e:	fffff097          	auipc	ra,0xfffff
   11c12:	a9e080e7          	jalr	-1378(ra) # 106ac <_ZNK11flatbuffers5Table22GetOptionalFieldOffsetEt>
   11c16:	c501                	beqz	a0,11c1e <_ZNK11flatbuffers5Table8GetFieldIaEET_tS2_+0x1c>
   11c18:	942a                	add	s0,s0,a0
   11c1a:	00040483          	lb	s1,0(s0)
   11c1e:	40b2                	lw	ra,12(sp)
   11c20:	4422                	lw	s0,8(sp)
   11c22:	8526                	mv	a0,s1
   11c24:	4492                	lw	s1,4(sp)
   11c26:	0141                	addi	sp,sp,16
   11c28:	8082                	ret

00011c2a <_ZN6tflite11ParseConv2DEPKNS_8OperatorEPNS_13ErrorReporterEPNS_20BuiltinDataAllocatorEPPv>:
   11c2a:	1101                	addi	sp,sp,-32
   11c2c:	ce06                	sw	ra,28(sp)
   11c2e:	cc22                	sw	s0,24(sp)
   11c30:	ca26                	sw	s1,20(sp)
   11c32:	c84a                	sw	s2,16(sp)
   11c34:	c64e                	sw	s3,12(sp)
   11c36:	8932                	mv	s2,a2
   11c38:	c452                	sw	s4,8(sp)
   11c3a:	84aa                	mv	s1,a0
   11c3c:	89ae                	mv	s3,a1
   11c3e:	8a36                	mv	s4,a3
   11c40:	00000097          	auipc	ra,0x0
   11c44:	ddc080e7          	jalr	-548(ra) # 11a1c <_ZN6tflite12_GLOBAL__N_123CheckParsePointerParamsEPKNS_8OperatorEPNS_13ErrorReporterEPNS_20BuiltinDataAllocatorEPPv>
   11c48:	00092783          	lw	a5,0(s2)
   11c4c:	4611                	li	a2,4
   11c4e:	45f1                	li	a1,28
   11c50:	439c                	lw	a5,0(a5)
   11c52:	854a                	mv	a0,s2
   11c54:	9782                	jalr	a5
   11c56:	842a                	mv	s0,a0
   11c58:	4671                	li	a2,28
   11c5a:	4581                	li	a1,0
   11c5c:	00011097          	auipc	ra,0x11
   11c60:	876080e7          	jalr	-1930(ra) # 224d2 <memset>
   11c64:	ec1d                	bnez	s0,11ca2 <_ZN6tflite11ParseConv2DEPKNS_8OperatorEPNS_13ErrorReporterEPNS_20BuiltinDataAllocatorEPPv+0x78>
   11c66:	00018797          	auipc	a5,0x18
   11c6a:	00018697          	auipc	a3,0x18
   11c6e:	00018617          	auipc	a2,0x18
   11c72:	9b278793          	addi	a5,a5,-1614 # 29618 <__extenddftf2+0x15ea>
   11c76:	52800713          	li	a4,1320
   11c7a:	9c268693          	addi	a3,a3,-1598 # 2962c <__extenddftf2+0x15fe>
   11c7e:	9f260613          	addi	a2,a2,-1550 # 29660 <__extenddftf2+0x1632>
   11c82:	85ce                	mv	a1,s3
   11c84:	854e                	mv	a0,s3
   11c86:	00009097          	auipc	ra,0x9
   11c8a:	07c080e7          	jalr	124(ra) # 1ad02 <_ZN6tflite13ErrorReporter11ReportErrorEPvPKcz>
   11c8e:	4485                	li	s1,1
   11c90:	40f2                	lw	ra,28(sp)
   11c92:	4462                	lw	s0,24(sp)
   11c94:	4942                	lw	s2,16(sp)
   11c96:	49b2                	lw	s3,12(sp)
   11c98:	4a22                	lw	s4,8(sp)
   11c9a:	8526                	mv	a0,s1
   11c9c:	44d2                	lw	s1,20(sp)
   11c9e:	6105                	addi	sp,sp,32
   11ca0:	8082                	ret
   11ca2:	8526                	mv	a0,s1
   11ca4:	00000097          	auipc	ra,0x0
   11ca8:	e4a080e7          	jalr	-438(ra) # 11aee <_ZNK6tflite8Operator20builtin_options_typeEv>
   11cac:	4785                	li	a5,1
   11cae:	00f50663          	beq	a0,a5,11cba <_ZN6tflite11ParseConv2DEPKNS_8OperatorEPNS_13ErrorReporterEPNS_20BuiltinDataAllocatorEPPv+0x90>
   11cb2:	008a2023          	sw	s0,0(s4)
   11cb6:	4481                	li	s1,0
   11cb8:	bfe1                	j	11c90 <_ZN6tflite11ParseConv2DEPKNS_8OperatorEPNS_13ErrorReporterEPNS_20BuiltinDataAllocatorEPPv+0x66>
   11cba:	8526                	mv	a0,s1
   11cbc:	00000097          	auipc	ra,0x0
   11cc0:	d3a080e7          	jalr	-710(ra) # 119f6 <_ZNK6tflite8Operator15builtin_optionsEv>
   11cc4:	84aa                	mv	s1,a0
   11cc6:	d575                	beqz	a0,11cb2 <_ZN6tflite11ParseConv2DEPKNS_8OperatorEPNS_13ErrorReporterEPNS_20BuiltinDataAllocatorEPPv+0x88>
   11cc8:	4601                	li	a2,0
   11cca:	4591                	li	a1,4
   11ccc:	00000097          	auipc	ra,0x0
   11cd0:	f36080e7          	jalr	-202(ra) # 11c02 <_ZNK11flatbuffers5Table8GetFieldIaEET_tS2_>
   11cd4:	00000097          	auipc	ra,0x0
   11cd8:	c90080e7          	jalr	-880(ra) # 11964 <_ZN6tflite12_GLOBAL__N_114ConvertPaddingENS_7PaddingE>
   11cdc:	c008                	sw	a0,0(s0)
   11cde:	4601                	li	a2,0
   11ce0:	4599                	li	a1,6
   11ce2:	8526                	mv	a0,s1
   11ce4:	00000097          	auipc	ra,0x0
   11ce8:	ef8080e7          	jalr	-264(ra) # 11bdc <_ZNK11flatbuffers5Table8GetFieldIlEET_tS2_>
   11cec:	c048                	sw	a0,4(s0)
   11cee:	4601                	li	a2,0
   11cf0:	45a1                	li	a1,8
   11cf2:	8526                	mv	a0,s1
   11cf4:	00000097          	auipc	ra,0x0
   11cf8:	ee8080e7          	jalr	-280(ra) # 11bdc <_ZNK11flatbuffers5Table8GetFieldIlEET_tS2_>
   11cfc:	c408                	sw	a0,8(s0)
   11cfe:	4601                	li	a2,0
   11d00:	45a9                	li	a1,10
   11d02:	8526                	mv	a0,s1
   11d04:	00000097          	auipc	ra,0x0
   11d08:	efe080e7          	jalr	-258(ra) # 11c02 <_ZNK11flatbuffers5Table8GetFieldIaEET_tS2_>
   11d0c:	fff50793          	addi	a5,a0,-1
   11d10:	0ff7f793          	zext.b	a5,a5
   11d14:	4691                	li	a3,4
   11d16:	4701                	li	a4,0
   11d18:	00f6e363          	bltu	a3,a5,11d1e <_ZN6tflite11ParseConv2DEPKNS_8OperatorEPNS_13ErrorReporterEPNS_20BuiltinDataAllocatorEPPv+0xf4>
   11d1c:	872a                	mv	a4,a0
   11d1e:	c458                	sw	a4,12(s0)
   11d20:	4605                	li	a2,1
   11d22:	45b1                	li	a1,12
   11d24:	8526                	mv	a0,s1
   11d26:	00000097          	auipc	ra,0x0
   11d2a:	eb6080e7          	jalr	-330(ra) # 11bdc <_ZNK11flatbuffers5Table8GetFieldIlEET_tS2_>
   11d2e:	c808                	sw	a0,16(s0)
   11d30:	4605                	li	a2,1
   11d32:	45b9                	li	a1,14
   11d34:	8526                	mv	a0,s1
   11d36:	00000097          	auipc	ra,0x0
   11d3a:	ea6080e7          	jalr	-346(ra) # 11bdc <_ZNK11flatbuffers5Table8GetFieldIlEET_tS2_>
   11d3e:	c848                	sw	a0,20(s0)
   11d40:	4601                	li	a2,0
   11d42:	45c1                	li	a1,16
   11d44:	8526                	mv	a0,s1
   11d46:	00000097          	auipc	ra,0x0
   11d4a:	ebc080e7          	jalr	-324(ra) # 11c02 <_ZNK11flatbuffers5Table8GetFieldIaEET_tS2_>
   11d4e:	864e                	mv	a2,s3
   11d50:	01840593          	addi	a1,s0,24
   11d54:	00000097          	auipc	ra,0x0
   11d58:	cde080e7          	jalr	-802(ra) # 11a32 <_ZN6tflite17ConvertTensorTypeENS_10TensorTypeEP10TfLiteTypePNS_13ErrorReporterE>
   11d5c:	84aa                	mv	s1,a0
   11d5e:	d931                	beqz	a0,11cb2 <_ZN6tflite11ParseConv2DEPKNS_8OperatorEPNS_13ErrorReporterEPNS_20BuiltinDataAllocatorEPPv+0x88>
   11d60:	85a2                	mv	a1,s0
   11d62:	854a                	mv	a0,s2
   11d64:	00000097          	auipc	ra,0x0
   11d68:	c8c080e7          	jalr	-884(ra) # 119f0 <_ZN6tflite12_GLOBAL__N_124SafeBuiltinDataAllocator18BuiltinDataDeleterclEPv.isra.0>
   11d6c:	b715                	j	11c90 <_ZN6tflite11ParseConv2DEPKNS_8OperatorEPNS_13ErrorReporterEPNS_20BuiltinDataAllocatorEPPv+0x66>

00011d6e <_ZN6tflite20ParseDepthwiseConv2DEPKNS_8OperatorEPNS_13ErrorReporterEPNS_20BuiltinDataAllocatorEPPv>:
   11d6e:	1101                	addi	sp,sp,-32
   11d70:	ce06                	sw	ra,28(sp)
   11d72:	cc22                	sw	s0,24(sp)
   11d74:	ca26                	sw	s1,20(sp)
   11d76:	8432                	mv	s0,a2
   11d78:	c84a                	sw	s2,16(sp)
   11d7a:	c64e                	sw	s3,12(sp)
   11d7c:	84aa                	mv	s1,a0
   11d7e:	89ae                	mv	s3,a1
   11d80:	8936                	mv	s2,a3
   11d82:	00000097          	auipc	ra,0x0
   11d86:	c9a080e7          	jalr	-870(ra) # 11a1c <_ZN6tflite12_GLOBAL__N_123CheckParsePointerParamsEPKNS_8OperatorEPNS_13ErrorReporterEPNS_20BuiltinDataAllocatorEPPv>
   11d8a:	401c                	lw	a5,0(s0)
   11d8c:	4611                	li	a2,4
   11d8e:	45f1                	li	a1,28
   11d90:	439c                	lw	a5,0(a5)
   11d92:	8522                	mv	a0,s0
   11d94:	9782                	jalr	a5
   11d96:	842a                	mv	s0,a0
   11d98:	4671                	li	a2,28
   11d9a:	4581                	li	a1,0
   11d9c:	00010097          	auipc	ra,0x10
   11da0:	736080e7          	jalr	1846(ra) # 224d2 <memset>
   11da4:	ec0d                	bnez	s0,11dde <_ZN6tflite20ParseDepthwiseConv2DEPKNS_8OperatorEPNS_13ErrorReporterEPNS_20BuiltinDataAllocatorEPPv+0x70>
   11da6:	00018797          	auipc	a5,0x18
   11daa:	00018697          	auipc	a3,0x18
   11dae:	00018617          	auipc	a2,0x18
   11db2:	87278793          	addi	a5,a5,-1934 # 29618 <__extenddftf2+0x15ea>
   11db6:	58000713          	li	a4,1408
   11dba:	88268693          	addi	a3,a3,-1918 # 2962c <__extenddftf2+0x15fe>
   11dbe:	8b260613          	addi	a2,a2,-1870 # 29660 <__extenddftf2+0x1632>
   11dc2:	85ce                	mv	a1,s3
   11dc4:	854e                	mv	a0,s3
   11dc6:	00009097          	auipc	ra,0x9
   11dca:	f3c080e7          	jalr	-196(ra) # 1ad02 <_ZN6tflite13ErrorReporter11ReportErrorEPvPKcz>
   11dce:	4505                	li	a0,1
   11dd0:	40f2                	lw	ra,28(sp)
   11dd2:	4462                	lw	s0,24(sp)
   11dd4:	44d2                	lw	s1,20(sp)
   11dd6:	4942                	lw	s2,16(sp)
   11dd8:	49b2                	lw	s3,12(sp)
   11dda:	6105                	addi	sp,sp,32
   11ddc:	8082                	ret
   11dde:	8526                	mv	a0,s1
   11de0:	00000097          	auipc	ra,0x0
   11de4:	d0e080e7          	jalr	-754(ra) # 11aee <_ZNK6tflite8Operator20builtin_options_typeEv>
   11de8:	4789                	li	a5,2
   11dea:	08f51d63          	bne	a0,a5,11e84 <_ZN6tflite20ParseDepthwiseConv2DEPKNS_8OperatorEPNS_13ErrorReporterEPNS_20BuiltinDataAllocatorEPPv+0x116>
   11dee:	8526                	mv	a0,s1
   11df0:	00000097          	auipc	ra,0x0
   11df4:	c06080e7          	jalr	-1018(ra) # 119f6 <_ZNK6tflite8Operator15builtin_optionsEv>
   11df8:	84aa                	mv	s1,a0
   11dfa:	c549                	beqz	a0,11e84 <_ZN6tflite20ParseDepthwiseConv2DEPKNS_8OperatorEPNS_13ErrorReporterEPNS_20BuiltinDataAllocatorEPPv+0x116>
   11dfc:	4601                	li	a2,0
   11dfe:	4591                	li	a1,4
   11e00:	00000097          	auipc	ra,0x0
   11e04:	e02080e7          	jalr	-510(ra) # 11c02 <_ZNK11flatbuffers5Table8GetFieldIaEET_tS2_>
   11e08:	00000097          	auipc	ra,0x0
   11e0c:	b5c080e7          	jalr	-1188(ra) # 11964 <_ZN6tflite12_GLOBAL__N_114ConvertPaddingENS_7PaddingE>
   11e10:	c008                	sw	a0,0(s0)
   11e12:	4601                	li	a2,0
   11e14:	4599                	li	a1,6
   11e16:	8526                	mv	a0,s1
   11e18:	00000097          	auipc	ra,0x0
   11e1c:	dc4080e7          	jalr	-572(ra) # 11bdc <_ZNK11flatbuffers5Table8GetFieldIlEET_tS2_>
   11e20:	c048                	sw	a0,4(s0)
   11e22:	4601                	li	a2,0
   11e24:	45a1                	li	a1,8
   11e26:	8526                	mv	a0,s1
   11e28:	00000097          	auipc	ra,0x0
   11e2c:	db4080e7          	jalr	-588(ra) # 11bdc <_ZNK11flatbuffers5Table8GetFieldIlEET_tS2_>
   11e30:	c408                	sw	a0,8(s0)
   11e32:	4601                	li	a2,0
   11e34:	45a9                	li	a1,10
   11e36:	8526                	mv	a0,s1
   11e38:	00000097          	auipc	ra,0x0
   11e3c:	da4080e7          	jalr	-604(ra) # 11bdc <_ZNK11flatbuffers5Table8GetFieldIlEET_tS2_>
   11e40:	c448                	sw	a0,12(s0)
   11e42:	4601                	li	a2,0
   11e44:	45b1                	li	a1,12
   11e46:	8526                	mv	a0,s1
   11e48:	00000097          	auipc	ra,0x0
   11e4c:	dba080e7          	jalr	-582(ra) # 11c02 <_ZNK11flatbuffers5Table8GetFieldIaEET_tS2_>
   11e50:	fff50793          	addi	a5,a0,-1
   11e54:	0ff7f793          	zext.b	a5,a5
   11e58:	4691                	li	a3,4
   11e5a:	4701                	li	a4,0
   11e5c:	00f6e363          	bltu	a3,a5,11e62 <_ZN6tflite20ParseDepthwiseConv2DEPKNS_8OperatorEPNS_13ErrorReporterEPNS_20BuiltinDataAllocatorEPPv+0xf4>
   11e60:	872a                	mv	a4,a0
   11e62:	c818                	sw	a4,16(s0)
   11e64:	4605                	li	a2,1
   11e66:	45b9                	li	a1,14
   11e68:	8526                	mv	a0,s1
   11e6a:	00000097          	auipc	ra,0x0
   11e6e:	d72080e7          	jalr	-654(ra) # 11bdc <_ZNK11flatbuffers5Table8GetFieldIlEET_tS2_>
   11e72:	c848                	sw	a0,20(s0)
   11e74:	4605                	li	a2,1
   11e76:	45c1                	li	a1,16
   11e78:	8526                	mv	a0,s1
   11e7a:	00000097          	auipc	ra,0x0
   11e7e:	d62080e7          	jalr	-670(ra) # 11bdc <_ZNK11flatbuffers5Table8GetFieldIlEET_tS2_>
   11e82:	cc08                	sw	a0,24(s0)
   11e84:	00892023          	sw	s0,0(s2)
   11e88:	4501                	li	a0,0
   11e8a:	b799                	j	11dd0 <_ZN6tflite20ParseDepthwiseConv2DEPKNS_8OperatorEPNS_13ErrorReporterEPNS_20BuiltinDataAllocatorEPPv+0x62>

00011e8c <_ZN6tflite9ParsePoolEPKNS_8OperatorEPNS_13ErrorReporterEPNS_20BuiltinDataAllocatorEPPv>:
   11e8c:	1101                	addi	sp,sp,-32
   11e8e:	ce06                	sw	ra,28(sp)
   11e90:	cc22                	sw	s0,24(sp)
   11e92:	ca26                	sw	s1,20(sp)
   11e94:	8432                	mv	s0,a2
   11e96:	c84a                	sw	s2,16(sp)
   11e98:	c64e                	sw	s3,12(sp)
   11e9a:	84aa                	mv	s1,a0
   11e9c:	89ae                	mv	s3,a1
   11e9e:	8936                	mv	s2,a3
   11ea0:	00000097          	auipc	ra,0x0
   11ea4:	b7c080e7          	jalr	-1156(ra) # 11a1c <_ZN6tflite12_GLOBAL__N_123CheckParsePointerParamsEPKNS_8OperatorEPNS_13ErrorReporterEPNS_20BuiltinDataAllocatorEPPv>
   11ea8:	401c                	lw	a5,0(s0)
   11eaa:	4611                	li	a2,4
   11eac:	02800593          	li	a1,40
   11eb0:	439c                	lw	a5,0(a5)
   11eb2:	8522                	mv	a0,s0
   11eb4:	9782                	jalr	a5
   11eb6:	842a                	mv	s0,a0
   11eb8:	02800613          	li	a2,40
   11ebc:	4581                	li	a1,0
   11ebe:	00010097          	auipc	ra,0x10
   11ec2:	614080e7          	jalr	1556(ra) # 224d2 <memset>
   11ec6:	ec0d                	bnez	s0,11f00 <_ZN6tflite9ParsePoolEPKNS_8OperatorEPNS_13ErrorReporterEPNS_20BuiltinDataAllocatorEPPv+0x74>
   11ec8:	00017797          	auipc	a5,0x17
   11ecc:	00017697          	auipc	a3,0x17
   11ed0:	00017617          	auipc	a2,0x17
   11ed4:	75078793          	addi	a5,a5,1872 # 29618 <__extenddftf2+0x15ea>
   11ed8:	78500713          	li	a4,1925
   11edc:	76068693          	addi	a3,a3,1888 # 2962c <__extenddftf2+0x15fe>
   11ee0:	79060613          	addi	a2,a2,1936 # 29660 <__extenddftf2+0x1632>
   11ee4:	85ce                	mv	a1,s3
   11ee6:	854e                	mv	a0,s3
   11ee8:	00009097          	auipc	ra,0x9
   11eec:	e1a080e7          	jalr	-486(ra) # 1ad02 <_ZN6tflite13ErrorReporter11ReportErrorEPvPKcz>
   11ef0:	4505                	li	a0,1
   11ef2:	40f2                	lw	ra,28(sp)
   11ef4:	4462                	lw	s0,24(sp)
   11ef6:	44d2                	lw	s1,20(sp)
   11ef8:	4942                	lw	s2,16(sp)
   11efa:	49b2                	lw	s3,12(sp)
   11efc:	6105                	addi	sp,sp,32
   11efe:	8082                	ret
   11f00:	8526                	mv	a0,s1
   11f02:	00000097          	auipc	ra,0x0
   11f06:	bec080e7          	jalr	-1044(ra) # 11aee <_ZNK6tflite8Operator20builtin_options_typeEv>
   11f0a:	4795                	li	a5,5
   11f0c:	08f51563          	bne	a0,a5,11f96 <_ZN6tflite9ParsePoolEPKNS_8OperatorEPNS_13ErrorReporterEPNS_20BuiltinDataAllocatorEPPv+0x10a>
   11f10:	8526                	mv	a0,s1
   11f12:	00000097          	auipc	ra,0x0
   11f16:	ae4080e7          	jalr	-1308(ra) # 119f6 <_ZNK6tflite8Operator15builtin_optionsEv>
   11f1a:	84aa                	mv	s1,a0
   11f1c:	cd2d                	beqz	a0,11f96 <_ZN6tflite9ParsePoolEPKNS_8OperatorEPNS_13ErrorReporterEPNS_20BuiltinDataAllocatorEPPv+0x10a>
   11f1e:	4601                	li	a2,0
   11f20:	4591                	li	a1,4
   11f22:	00000097          	auipc	ra,0x0
   11f26:	ce0080e7          	jalr	-800(ra) # 11c02 <_ZNK11flatbuffers5Table8GetFieldIaEET_tS2_>
   11f2a:	00000097          	auipc	ra,0x0
   11f2e:	a3a080e7          	jalr	-1478(ra) # 11964 <_ZN6tflite12_GLOBAL__N_114ConvertPaddingENS_7PaddingE>
   11f32:	c008                	sw	a0,0(s0)
   11f34:	4601                	li	a2,0
   11f36:	4599                	li	a1,6
   11f38:	8526                	mv	a0,s1
   11f3a:	00000097          	auipc	ra,0x0
   11f3e:	ca2080e7          	jalr	-862(ra) # 11bdc <_ZNK11flatbuffers5Table8GetFieldIlEET_tS2_>
   11f42:	c048                	sw	a0,4(s0)
   11f44:	4601                	li	a2,0
   11f46:	45a1                	li	a1,8
   11f48:	8526                	mv	a0,s1
   11f4a:	00000097          	auipc	ra,0x0
   11f4e:	c92080e7          	jalr	-878(ra) # 11bdc <_ZNK11flatbuffers5Table8GetFieldIlEET_tS2_>
   11f52:	c408                	sw	a0,8(s0)
   11f54:	4601                	li	a2,0
   11f56:	45a9                	li	a1,10
   11f58:	8526                	mv	a0,s1
   11f5a:	00000097          	auipc	ra,0x0
   11f5e:	c82080e7          	jalr	-894(ra) # 11bdc <_ZNK11flatbuffers5Table8GetFieldIlEET_tS2_>
   11f62:	c448                	sw	a0,12(s0)
   11f64:	4601                	li	a2,0
   11f66:	45b1                	li	a1,12
   11f68:	8526                	mv	a0,s1
   11f6a:	00000097          	auipc	ra,0x0
   11f6e:	c72080e7          	jalr	-910(ra) # 11bdc <_ZNK11flatbuffers5Table8GetFieldIlEET_tS2_>
   11f72:	c808                	sw	a0,16(s0)
   11f74:	4601                	li	a2,0
   11f76:	45b9                	li	a1,14
   11f78:	8526                	mv	a0,s1
   11f7a:	00000097          	auipc	ra,0x0
   11f7e:	c88080e7          	jalr	-888(ra) # 11c02 <_ZNK11flatbuffers5Table8GetFieldIaEET_tS2_>
   11f82:	fff50793          	addi	a5,a0,-1
   11f86:	0ff7f793          	zext.b	a5,a5
   11f8a:	4691                	li	a3,4
   11f8c:	4701                	li	a4,0
   11f8e:	00f6e363          	bltu	a3,a5,11f94 <_ZN6tflite9ParsePoolEPKNS_8OperatorEPNS_13ErrorReporterEPNS_20BuiltinDataAllocatorEPPv+0x108>
   11f92:	872a                	mv	a4,a0
   11f94:	c858                	sw	a4,20(s0)
   11f96:	00892023          	sw	s0,0(s2)
   11f9a:	4501                	li	a0,0
   11f9c:	bf99                	j	11ef2 <_ZN6tflite9ParsePoolEPKNS_8OperatorEPNS_13ErrorReporterEPNS_20BuiltinDataAllocatorEPPv+0x66>

00011f9e <_ZNK11flatbuffers5Table8GetFieldIfEET_tS2_>:
   11f9e:	1141                	addi	sp,sp,-16
   11fa0:	c422                	sw	s0,8(sp)
   11fa2:	c226                	sw	s1,4(sp)
   11fa4:	c606                	sw	ra,12(sp)
   11fa6:	842a                	mv	s0,a0
   11fa8:	84b2                	mv	s1,a2
   11faa:	ffffe097          	auipc	ra,0xffffe
   11fae:	702080e7          	jalr	1794(ra) # 106ac <_ZNK11flatbuffers5Table22GetOptionalFieldOffsetEt>
   11fb2:	c119                	beqz	a0,11fb8 <_ZNK11flatbuffers5Table8GetFieldIfEET_tS2_+0x1a>
   11fb4:	942a                	add	s0,s0,a0
   11fb6:	4004                	lw	s1,0(s0)
   11fb8:	40b2                	lw	ra,12(sp)
   11fba:	4422                	lw	s0,8(sp)
   11fbc:	8526                	mv	a0,s1
   11fbe:	4492                	lw	s1,4(sp)
   11fc0:	0141                	addi	sp,sp,16
   11fc2:	8082                	ret

00011fc4 <_ZN6tflite12ParseSoftmaxEPKNS_8OperatorEPNS_13ErrorReporterEPNS_20BuiltinDataAllocatorEPPv>:
   11fc4:	1101                	addi	sp,sp,-32
   11fc6:	ce06                	sw	ra,28(sp)
   11fc8:	cc22                	sw	s0,24(sp)
   11fca:	ca26                	sw	s1,20(sp)
   11fcc:	8432                	mv	s0,a2
   11fce:	c84a                	sw	s2,16(sp)
   11fd0:	c64e                	sw	s3,12(sp)
   11fd2:	84aa                	mv	s1,a0
   11fd4:	89ae                	mv	s3,a1
   11fd6:	8936                	mv	s2,a3
   11fd8:	00000097          	auipc	ra,0x0
   11fdc:	a44080e7          	jalr	-1468(ra) # 11a1c <_ZN6tflite12_GLOBAL__N_123CheckParsePointerParamsEPKNS_8OperatorEPNS_13ErrorReporterEPNS_20BuiltinDataAllocatorEPPv>
   11fe0:	401c                	lw	a5,0(s0)
   11fe2:	4611                	li	a2,4
   11fe4:	4591                	li	a1,4
   11fe6:	439c                	lw	a5,0(a5)
   11fe8:	8522                	mv	a0,s0
   11fea:	9782                	jalr	a5
   11fec:	00000793          	li	a5,0
   11ff0:	c11c                	sw	a5,0(a0)
   11ff2:	ed15                	bnez	a0,1202e <_ZN6tflite12ParseSoftmaxEPKNS_8OperatorEPNS_13ErrorReporterEPNS_20BuiltinDataAllocatorEPPv+0x6a>
   11ff4:	00017797          	auipc	a5,0x17
   11ff8:	6705                	lui	a4,0x1
   11ffa:	00017697          	auipc	a3,0x17
   11ffe:	00017617          	auipc	a2,0x17
   12002:	62478793          	addi	a5,a5,1572 # 29618 <__extenddftf2+0x15ea>
   12006:	9b570713          	addi	a4,a4,-1611 # 9b5 <exit-0xf6df>
   1200a:	63268693          	addi	a3,a3,1586 # 2962c <__extenddftf2+0x15fe>
   1200e:	66260613          	addi	a2,a2,1634 # 29660 <__extenddftf2+0x1632>
   12012:	85ce                	mv	a1,s3
   12014:	854e                	mv	a0,s3
   12016:	00009097          	auipc	ra,0x9
   1201a:	cec080e7          	jalr	-788(ra) # 1ad02 <_ZN6tflite13ErrorReporter11ReportErrorEPvPKcz>
   1201e:	4505                	li	a0,1
   12020:	40f2                	lw	ra,28(sp)
   12022:	4462                	lw	s0,24(sp)
   12024:	44d2                	lw	s1,20(sp)
   12026:	4942                	lw	s2,16(sp)
   12028:	49b2                	lw	s3,12(sp)
   1202a:	6105                	addi	sp,sp,32
   1202c:	8082                	ret
   1202e:	842a                	mv	s0,a0
   12030:	8526                	mv	a0,s1
   12032:	00000097          	auipc	ra,0x0
   12036:	abc080e7          	jalr	-1348(ra) # 11aee <_ZNK6tflite8Operator20builtin_options_typeEv>
   1203a:	47a5                	li	a5,9
   1203c:	02f51063          	bne	a0,a5,1205c <_ZN6tflite12ParseSoftmaxEPKNS_8OperatorEPNS_13ErrorReporterEPNS_20BuiltinDataAllocatorEPPv+0x98>
   12040:	8526                	mv	a0,s1
   12042:	00000097          	auipc	ra,0x0
   12046:	9b4080e7          	jalr	-1612(ra) # 119f6 <_ZNK6tflite8Operator15builtin_optionsEv>
   1204a:	c909                	beqz	a0,1205c <_ZN6tflite12ParseSoftmaxEPKNS_8OperatorEPNS_13ErrorReporterEPNS_20BuiltinDataAllocatorEPPv+0x98>
   1204c:	00000613          	li	a2,0
   12050:	4591                	li	a1,4
   12052:	00000097          	auipc	ra,0x0
   12056:	f4c080e7          	jalr	-180(ra) # 11f9e <_ZNK11flatbuffers5Table8GetFieldIfEET_tS2_>
   1205a:	c008                	sw	a0,0(s0)
   1205c:	00892023          	sw	s0,0(s2)
   12060:	4501                	li	a0,0
   12062:	bf7d                	j	12020 <_ZN6tflite12ParseSoftmaxEPKNS_8OperatorEPNS_13ErrorReporterEPNS_20BuiltinDataAllocatorEPPv+0x5c>

00012064 <_ZN6tflite14GetBuiltinCodeEPKNS_12OperatorCodeE>:
   12064:	ed01                	bnez	a0,1207c <_ZN6tflite14GetBuiltinCodeEPKNS_12OperatorCodeE+0x18>
   12066:	00016517          	auipc	a0,0x16
   1206a:	1141                	addi	sp,sp,-16
   1206c:	16e50513          	addi	a0,a0,366 # 281d4 <__extenddftf2+0x1a6>
   12070:	c606                	sw	ra,12(sp)
   12072:	fffff097          	auipc	ra,0xfffff
   12076:	6fc080e7          	jalr	1788(ra) # 1176e <_Z11MicroPrintfPKcz>
   1207a:	a001                	j	1207a <_ZN6tflite14GetBuiltinCodeEPKNS_12OperatorCodeE+0x16>
   1207c:	4118                	lw	a4,0(a0)
   1207e:	47a9                	li	a5,10
   12080:	40e50733          	sub	a4,a0,a4
   12084:	00075603          	lhu	a2,0(a4)
   12088:	02c7f063          	bgeu	a5,a2,120a8 <_ZN6tflite14GetBuiltinCodeEPKNS_12OperatorCodeE+0x44>
   1208c:	00a75783          	lhu	a5,10(a4)
   12090:	4681                	li	a3,0
   12092:	c399                	beqz	a5,12098 <_ZN6tflite14GetBuiltinCodeEPKNS_12OperatorCodeE+0x34>
   12094:	97aa                	add	a5,a5,a0
   12096:	4394                	lw	a3,0(a5)
   12098:	00475703          	lhu	a4,4(a4)
   1209c:	4781                	li	a5,0
   1209e:	cb11                	beqz	a4,120b2 <_ZN6tflite14GetBuiltinCodeEPKNS_12OperatorCodeE+0x4e>
   120a0:	953a                	add	a0,a0,a4
   120a2:	00050783          	lb	a5,0(a0)
   120a6:	a031                	j	120b2 <_ZN6tflite14GetBuiltinCodeEPKNS_12OperatorCodeE+0x4e>
   120a8:	4591                	li	a1,4
   120aa:	4681                	li	a3,0
   120ac:	4781                	li	a5,0
   120ae:	fec5e5e3          	bltu	a1,a2,12098 <_ZN6tflite14GetBuiltinCodeEPKNS_12OperatorCodeE+0x34>
   120b2:	853e                	mv	a0,a5
   120b4:	00d7d363          	bge	a5,a3,120ba <_ZN6tflite14GetBuiltinCodeEPKNS_12OperatorCodeE+0x56>
   120b8:	8536                	mv	a0,a3
   120ba:	8082                	ret

000120bc <_ZN6tflite21reference_integer_ops14ConvPerChannelERKNS_10ConvParamsEPKlS5_RKNS_12RuntimeShapeEPKaS8_SA_S8_S5_S8_Pa.isra.0>:
   120bc:	7175                	addi	sp,sp,-144
   120be:	d0ea                	sw	s10,96(sp)
   120c0:	8e3a                	mv	t3,a4
   120c2:	8d2e                	mv	s10,a1
   120c4:	474a                	lw	a4,144(sp)
   120c6:	85b6                	mv	a1,a3
   120c8:	46da                	lw	a3,148(sp)
   120ca:	c522                	sw	s0,136(sp)
   120cc:	c326                	sw	s1,132(sp)
   120ce:	d6de                	sw	s7,108(sp)
   120d0:	d4e2                	sw	s8,104(sp)
   120d2:	c706                	sw	ra,140(sp)
   120d4:	c14a                	sw	s2,128(sp)
   120d6:	dece                	sw	s3,124(sp)
   120d8:	dcd2                	sw	s4,120(sp)
   120da:	dad6                	sw	s5,116(sp)
   120dc:	d8da                	sw	s6,112(sp)
   120de:	d2e6                	sw	s9,100(sp)
   120e0:	ceee                	sw	s11,92(sp)
   120e2:	dc32                	sw	a2,56(sp)
   120e4:	d846                	sw	a7,48(sp)
   120e6:	548a                	lw	s1,160(sp)
   120e8:	5b9a                	lw	s7,164(sp)
   120ea:	542a                	lw	s0,168(sp)
   120ec:	5c3a                	lw	s8,172(sp)
   120ee:	5fea                	lw	t6,184(sp)
   120f0:	12e6c863          	blt	a3,a4,12220 <_ZN6tflite21reference_integer_ops14ConvPerChannelERKNS_10ConvParamsEPKlS5_RKNS_12RuntimeShapeEPKaS8_SA_S8_S5_S8_Pa.isra.0+0x164>
   120f4:	4094                	lw	a3,0(s1)
   120f6:	4711                	li	a4,4
   120f8:	12e69463          	bne	a3,a4,12220 <_ZN6tflite21reference_integer_ops14ConvPerChannelERKNS_10ConvParamsEPKlS5_RKNS_12RuntimeShapeEPKaS8_SA_S8_S5_S8_Pa.isra.0+0x164>
   120fc:	4018                	lw	a4,0(s0)
   120fe:	12d71163          	bne	a4,a3,12220 <_ZN6tflite21reference_integer_ops14ConvPerChannelERKNS_10ConvParamsEPKlS5_RKNS_12RuntimeShapeEPKaS8_SA_S8_S5_S8_Pa.isra.0+0x164>
   12102:	000fa683          	lw	a3,0(t6)
   12106:	10e69d63          	bne	a3,a4,12220 <_ZN6tflite21reference_integer_ops14ConvPerChannelERKNS_10ConvParamsEPKlS5_RKNS_12RuntimeShapeEPKaS8_SA_S8_S5_S8_Pa.isra.0+0x164>
   1210a:	0044a903          	lw	s2,4(s1)
   1210e:	004fa703          	lw	a4,4(t6)
   12112:	11271763          	bne	a4,s2,12220 <_ZN6tflite21reference_integer_ops14ConvPerChannelERKNS_10ConvParamsEPKlS5_RKNS_12RuntimeShapeEPKaS8_SA_S8_S5_S8_Pa.isra.0+0x164>
   12116:	00442303          	lw	t1,4(s0)
   1211a:	010fa703          	lw	a4,16(t6)
   1211e:	0104aa03          	lw	s4,16(s1)
   12122:	0ee31f63          	bne	t1,a4,12220 <_ZN6tflite21reference_integer_ops14ConvPerChannelERKNS_10ConvParamsEPKlS5_RKNS_12RuntimeShapeEPKaS8_SA_S8_S5_S8_Pa.isra.0+0x164>
   12126:	575a                	lw	a4,180(sp)
   12128:	8b42                	mv	s6,a6
   1212a:	c30d                	beqz	a4,1214c <_ZN6tflite21reference_integer_ops14ConvPerChannelERKNS_10ConvParamsEPKlS5_RKNS_12RuntimeShapeEPKaS8_SA_S8_S5_S8_Pa.isra.0+0x90>
   1212c:	574a                	lw	a4,176(sp)
   1212e:	4314                	lw	a3,0(a4)
   12130:	30d05963          	blez	a3,12442 <_ZN6tflite21reference_integer_ops14ConvPerChannelERKNS_10ConvParamsEPKlS5_RKNS_12RuntimeShapeEPKaS8_SA_S8_S5_S8_Pa.isra.0+0x386>
   12134:	068a                	slli	a3,a3,0x2
   12136:	00d70833          	add	a6,a4,a3
   1213a:	4685                	li	a3,1
   1213c:	4350                	lw	a2,4(a4)
   1213e:	0711                	addi	a4,a4,4
   12140:	02c686b3          	mul	a3,a3,a2
   12144:	ff071ce3          	bne	a4,a6,1213c <_ZN6tflite21reference_integer_ops14ConvPerChannelERKNS_10ConvParamsEPKlS5_RKNS_12RuntimeShapeEPKaS8_SA_S8_S5_S8_Pa.isra.0+0x80>
   12148:	0cd31c63          	bne	t1,a3,12220 <_ZN6tflite21reference_integer_ops14ConvPerChannelERKNS_10ConvParamsEPKlS5_RKNS_12RuntimeShapeEPKaS8_SA_S8_S5_S8_Pa.isra.0+0x164>
   1214c:	4814                	lw	a3,16(s0)
   1214e:	0084a383          	lw	t2,8(s1)
   12152:	00c4a283          	lw	t0,12(s1)
   12156:	00842883          	lw	a7,8(s0)
   1215a:	00c42c83          	lw	s9,12(s0)
   1215e:	02da4733          	div	a4,s4,a3
   12162:	cf5d                	beqz	a4,12220 <_ZN6tflite21reference_integer_ops14ConvPerChannelERKNS_10ConvParamsEPKlS5_RKNS_12RuntimeShapeEPKaS8_SA_S8_S5_S8_Pa.isra.0+0x164>
   12164:	02da66b3          	rem	a3,s4,a3
   12168:	eec5                	bnez	a3,12220 <_ZN6tflite21reference_integer_ops14ConvPerChannelERKNS_10ConvParamsEPKlS5_RKNS_12RuntimeShapeEPKaS8_SA_S8_S5_S8_Pa.isra.0+0x164>
   1216a:	02e34733          	div	a4,t1,a4
   1216e:	cb4d                	beqz	a4,12220 <_ZN6tflite21reference_integer_ops14ConvPerChannelERKNS_10ConvParamsEPKlS5_RKNS_12RuntimeShapeEPKaS8_SA_S8_S5_S8_Pa.isra.0+0x164>
   12170:	008fad83          	lw	s11,8(t6)
   12174:	00cfa603          	lw	a2,12(t6)
   12178:	4981                	li	s3,0
   1217a:	25205063          	blez	s2,123ba <_ZN6tflite21reference_integer_ops14ConvPerChannelERKNS_10ConvParamsEPKlS5_RKNS_12RuntimeShapeEPKaS8_SA_S8_S5_S8_Pa.isra.0+0x2fe>
   1217e:	2bb05e63          	blez	s11,1243a <_ZN6tflite21reference_integer_ops14ConvPerChannelERKNS_10ConvParamsEPKlS5_RKNS_12RuntimeShapeEPKaS8_SA_S8_S5_S8_Pa.isra.0+0x37e>
   12182:	40a00733          	neg	a4,a0
   12186:	86ca                	mv	a3,s2
   12188:	856e                	mv	a0,s11
   1218a:	896a                	mv	s2,s10
   1218c:	887e                	mv	a6,t6
   1218e:	8d72                	mv	s10,t3
   12190:	4a91                	li	s5,4
   12192:	8e2e                	mv	t3,a1
   12194:	8f46                	mv	t5,a7
   12196:	8d96                	mv	s11,t0
   12198:	859a                	mv	a1,t1
   1219a:	8fbe                	mv	t6,a5
   1219c:	20c05c63          	blez	a2,123b4 <_ZN6tflite21reference_integer_ops14ConvPerChannelERKNS_10ConvParamsEPKlS5_RKNS_12RuntimeShapeEPKaS8_SA_S8_S5_S8_Pa.isra.0+0x2f8>
   121a0:	412007b3          	neg	a5,s2
   121a4:	d43e                	sw	a5,40(sp)
   121a6:	4781                	li	a5,0
   121a8:	8342                	mv	t1,a6
   121aa:	883e                	mv	a6,a5
   121ac:	88ba                	mv	a7,a4
   121ae:	4781                	li	a5,0
   121b0:	1eb05b63          	blez	a1,123a6 <_ZN6tflite21reference_integer_ops14ConvPerChannelERKNS_10ConvParamsEPKlS5_RKNS_12RuntimeShapeEPKaS8_SA_S8_S5_S8_Pa.isra.0+0x2ea>
   121b4:	ca42                	sw	a6,20(sp)
   121b6:	d62e                	sw	a1,44(sp)
   121b8:	c67a                	sw	t5,12(sp)
   121ba:	de2a                	sw	a0,60(sp)
   121bc:	da32                	sw	a2,52(sp)
   121be:	883e                	mv	a6,a5
   121c0:	c0b6                	sw	a3,64(sp)
   121c2:	c2ca                	sw	s2,68(sp)
   121c4:	c4f2                	sw	t3,72(sp)
   121c6:	c6ba                	sw	a4,76(sp)
   121c8:	476a                	lw	a4,152(sp)
   121ca:	46fa                	lw	a3,156(sp)
   121cc:	4901                	li	s2,0
   121ce:	c83a                	sw	a4,16(sp)
   121d0:	47b2                	lw	a5,12(sp)
   121d2:	26f05263          	blez	a5,12436 <_ZN6tflite21reference_integer_ops14ConvPerChannelERKNS_10ConvParamsEPKlS5_RKNS_12RuntimeShapeEPKaS8_SA_S8_S5_S8_Pa.isra.0+0x37a>
   121d6:	5ea2                	lw	t4,40(sp)
   121d8:	4501                	li	a0,0
   121da:	4281                	li	t0,0
   121dc:	80c2                	mv	ra,a6
   121de:	8e36                	mv	t3,a3
   121e0:	0f905563          	blez	s9,122ca <_ZN6tflite21reference_integer_ops14ConvPerChannelERKNS_10ConvParamsEPKlS5_RKNS_12RuntimeShapeEPKaS8_SA_S8_S5_S8_Pa.isra.0+0x20e>
   121e4:	86c6                	mv	a3,a7
   121e6:	4601                	li	a2,0
   121e8:	8f06                	mv	t5,ra
   121ea:	a029                	j	121f4 <_ZN6tflite21reference_integer_ops14ConvPerChannelERKNS_10ConvParamsEPKlS5_RKNS_12RuntimeShapeEPKaS8_SA_S8_S5_S8_Pa.isra.0+0x138>
   121ec:	0605                	addi	a2,a2,1
   121ee:	96ea                	add	a3,a3,s10
   121f0:	0ccc8c63          	beq	s9,a2,122c8 <_ZN6tflite21reference_integer_ops14ConvPerChannelERKNS_10ConvParamsEPKlS5_RKNS_12RuntimeShapeEPKaS8_SA_S8_S5_S8_Pa.isra.0+0x20c>
   121f4:	01d6e7b3          	or	a5,a3,t4
   121f8:	fe07cae3          	bltz	a5,121ec <_ZN6tflite21reference_integer_ops14ConvPerChannelERKNS_10ConvParamsEPKlS5_RKNS_12RuntimeShapeEPKaS8_SA_S8_S5_S8_Pa.isra.0+0x130>
   121fc:	ffb6d8e3          	bge	a3,s11,121ec <_ZN6tflite21reference_integer_ops14ConvPerChannelERKNS_10ConvParamsEPKlS5_RKNS_12RuntimeShapeEPKaS8_SA_S8_S5_S8_Pa.isra.0+0x130>
   12200:	fe7ed6e3          	bge	t4,t2,121ec <_ZN6tflite21reference_integer_ops14ConvPerChannelERKNS_10ConvParamsEPKlS5_RKNS_12RuntimeShapeEPKaS8_SA_S8_S5_S8_Pa.isra.0+0x130>
   12204:	ff4054e3          	blez	s4,121ec <_ZN6tflite21reference_integer_ops14ConvPerChannelERKNS_10ConvParamsEPKlS5_RKNS_12RuntimeShapeEPKaS8_SA_S8_S5_S8_Pa.isra.0+0x130>
   12208:	409c                	lw	a5,0(s1)
   1220a:	01579b63          	bne	a5,s5,12220 <_ZN6tflite21reference_integer_ops14ConvPerChannelERKNS_10ConvParamsEPKlS5_RKNS_12RuntimeShapeEPKaS8_SA_S8_S5_S8_Pa.isra.0+0x164>
   1220e:	0044a083          	lw	ra,4(s1)
   12212:	4701                	li	a4,0
   12214:	c21e                	sw	t2,4(sp)
   12216:	c46e                	sw	s11,8(sp)
   12218:	00009863          	bnez	ra,12228 <_ZN6tflite21reference_integer_ops14ConvPerChannelERKNS_10ConvParamsEPKlS5_RKNS_12RuntimeShapeEPKaS8_SA_S8_S5_S8_Pa.isra.0+0x16c>
   1221c:	00098863          	beqz	s3,1222c <_ZN6tflite21reference_integer_ops14ConvPerChannelERKNS_10ConvParamsEPKlS5_RKNS_12RuntimeShapeEPKaS8_SA_S8_S5_S8_Pa.isra.0+0x170>
   12220:	fffff097          	auipc	ra,0xfffff
   12224:	dae080e7          	jalr	-594(ra) # 10fce <_Z9AbortImplv>
   12228:	fe19dce3          	bge	s3,ra,12220 <_ZN6tflite21reference_integer_ops14ConvPerChannelERKNS_10ConvParamsEPKlS5_RKNS_12RuntimeShapeEPKaS8_SA_S8_S5_S8_Pa.isra.0+0x164>
   1222c:	449c                	lw	a5,8(s1)
   1222e:	1a079563          	bnez	a5,123d8 <_ZN6tflite21reference_integer_ops14ConvPerChannelERKNS_10ConvParamsEPKlS5_RKNS_12RuntimeShapeEPKaS8_SA_S8_S5_S8_Pa.isra.0+0x31c>
   12232:	fe0e97e3          	bnez	t4,12220 <_ZN6tflite21reference_integer_ops14ConvPerChannelERKNS_10ConvParamsEPKlS5_RKNS_12RuntimeShapeEPKaS8_SA_S8_S5_S8_Pa.isra.0+0x164>
   12236:	00c4a803          	lw	a6,12(s1)
   1223a:	1a081563          	bnez	a6,123e4 <_ZN6tflite21reference_integer_ops14ConvPerChannelERKNS_10ConvParamsEPKlS5_RKNS_12RuntimeShapeEPKaS8_SA_S8_S5_S8_Pa.isra.0+0x328>
   1223e:	f2ed                	bnez	a3,12220 <_ZN6tflite21reference_integer_ops14ConvPerChannelERKNS_10ConvParamsEPKlS5_RKNS_12RuntimeShapeEPKaS8_SA_S8_S5_S8_Pa.isra.0+0x164>
   12240:	0104a383          	lw	t2,16(s1)
   12244:	1a039663          	bnez	t2,123f0 <_ZN6tflite21reference_integer_ops14ConvPerChannelERKNS_10ConvParamsEPKlS5_RKNS_12RuntimeShapeEPKaS8_SA_S8_S5_S8_Pa.isra.0+0x334>
   12248:	ff61                	bnez	a4,12220 <_ZN6tflite21reference_integer_ops14ConvPerChannelERKNS_10ConvParamsEPKlS5_RKNS_12RuntimeShapeEPKaS8_SA_S8_S5_S8_Pa.isra.0+0x164>
   1224a:	02f987b3          	mul	a5,s3,a5
   1224e:	00042d83          	lw	s11,0(s0)
   12252:	00eb85b3          	add	a1,s7,a4
   12256:	97f6                	add	a5,a5,t4
   12258:	030787b3          	mul	a5,a5,a6
   1225c:	97b6                	add	a5,a5,a3
   1225e:	027787b3          	mul	a5,a5,t2
   12262:	95be                	add	a1,a1,a5
   12264:	00058583          	lb	a1,0(a1)
   12268:	fb5d9ce3          	bne	s11,s5,12220 <_ZN6tflite21reference_integer_ops14ConvPerChannelERKNS_10ConvParamsEPKlS5_RKNS_12RuntimeShapeEPKaS8_SA_S8_S5_S8_Pa.isra.0+0x164>
   1226c:	405c                	lw	a5,4(s0)
   1226e:	18079463          	bnez	a5,123f6 <_ZN6tflite21reference_integer_ops14ConvPerChannelERKNS_10ConvParamsEPKlS5_RKNS_12RuntimeShapeEPKaS8_SA_S8_S5_S8_Pa.isra.0+0x33a>
   12272:	fa0917e3          	bnez	s2,12220 <_ZN6tflite21reference_integer_ops14ConvPerChannelERKNS_10ConvParamsEPKlS5_RKNS_12RuntimeShapeEPKaS8_SA_S8_S5_S8_Pa.isra.0+0x164>
   12276:	441c                	lw	a5,8(s0)
   12278:	18079463          	bnez	a5,12400 <_ZN6tflite21reference_integer_ops14ConvPerChannelERKNS_10ConvParamsEPKlS5_RKNS_12RuntimeShapeEPKaS8_SA_S8_S5_S8_Pa.isra.0+0x344>
   1227c:	fa0292e3          	bnez	t0,12220 <_ZN6tflite21reference_integer_ops14ConvPerChannelERKNS_10ConvParamsEPKlS5_RKNS_12RuntimeShapeEPKaS8_SA_S8_S5_S8_Pa.isra.0+0x164>
   12280:	00c42383          	lw	t2,12(s0)
   12284:	18039463          	bnez	t2,1240c <_ZN6tflite21reference_integer_ops14ConvPerChannelERKNS_10ConvParamsEPKlS5_RKNS_12RuntimeShapeEPKaS8_SA_S8_S5_S8_Pa.isra.0+0x350>
   12288:	fe41                	bnez	a2,12220 <_ZN6tflite21reference_integer_ops14ConvPerChannelERKNS_10ConvParamsEPKlS5_RKNS_12RuntimeShapeEPKaS8_SA_S8_S5_S8_Pa.isra.0+0x164>
   1228a:	01042d83          	lw	s11,16(s0)
   1228e:	180d9563          	bnez	s11,12418 <_ZN6tflite21reference_integer_ops14ConvPerChannelERKNS_10ConvParamsEPKlS5_RKNS_12RuntimeShapeEPKaS8_SA_S8_S5_S8_Pa.isra.0+0x35c>
   12292:	f759                	bnez	a4,12220 <_ZN6tflite21reference_integer_ops14ConvPerChannelERKNS_10ConvParamsEPKlS5_RKNS_12RuntimeShapeEPKaS8_SA_S8_S5_S8_Pa.isra.0+0x164>
   12294:	02f907b3          	mul	a5,s2,a5
   12298:	00ec0833          	add	a6,s8,a4
   1229c:	95da                	add	a1,a1,s6
   1229e:	0705                	addi	a4,a4,1
   122a0:	9796                	add	a5,a5,t0
   122a2:	027787b3          	mul	a5,a5,t2
   122a6:	97b2                	add	a5,a5,a2
   122a8:	03b787b3          	mul	a5,a5,s11
   122ac:	983e                	add	a6,a6,a5
   122ae:	00080783          	lb	a5,0(a6)
   122b2:	02b787b3          	mul	a5,a5,a1
   122b6:	953e                	add	a0,a0,a5
   122b8:	f74710e3          	bne	a4,s4,12218 <_ZN6tflite21reference_integer_ops14ConvPerChannelERKNS_10ConvParamsEPKlS5_RKNS_12RuntimeShapeEPKaS8_SA_S8_S5_S8_Pa.isra.0+0x15c>
   122bc:	0605                	addi	a2,a2,1
   122be:	4392                	lw	t2,4(sp)
   122c0:	4da2                	lw	s11,8(sp)
   122c2:	96ea                	add	a3,a3,s10
   122c4:	f2cc98e3          	bne	s9,a2,121f4 <_ZN6tflite21reference_integer_ops14ConvPerChannelERKNS_10ConvParamsEPKlS5_RKNS_12RuntimeShapeEPKaS8_SA_S8_S5_S8_Pa.isra.0+0x138>
   122c8:	80fa                	mv	ra,t5
   122ca:	47b2                	lw	a5,12(sp)
   122cc:	0285                	addi	t0,t0,1
   122ce:	9efe                	add	t4,t4,t6
   122d0:	f05798e3          	bne	a5,t0,121e0 <_ZN6tflite21reference_integer_ops14ConvPerChannelERKNS_10ConvParamsEPKlS5_RKNS_12RuntimeShapeEPKaS8_SA_S8_S5_S8_Pa.isra.0+0x124>
   122d4:	8806                	mv	a6,ra
   122d6:	86f2                	mv	a3,t3
   122d8:	57da                	lw	a5,180(sp)
   122da:	c799                	beqz	a5,122e8 <_ZN6tflite21reference_integer_ops14ConvPerChannelERKNS_10ConvParamsEPKlS5_RKNS_12RuntimeShapeEPKaS8_SA_S8_S5_S8_Pa.isra.0+0x22c>
   122dc:	575a                	lw	a4,180(sp)
   122de:	00291793          	slli	a5,s2,0x2
   122e2:	97ba                	add	a5,a5,a4
   122e4:	439c                	lw	a5,0(a5)
   122e6:	953e                	add	a0,a0,a5
   122e8:	47c2                	lw	a5,16(sp)
   122ea:	4290                	lw	a2,0(a3)
   122ec:	d21a                	sw	t1,36(sp)
   122ee:	438c                	lw	a1,0(a5)
   122f0:	d07e                	sw	t6,32(sp)
   122f2:	ce46                	sw	a7,28(sp)
   122f4:	cc42                	sw	a6,24(sp)
   122f6:	c41e                	sw	t2,8(sp)
   122f8:	c236                	sw	a3,4(sp)
   122fa:	00008097          	auipc	ra,0x8
   122fe:	5b8080e7          	jalr	1464(ra) # 1a8b2 <_ZN6tflite29MultiplyByQuantizedMultiplierElli>
   12302:	57c2                	lw	a5,48(sp)
   12304:	4692                	lw	a3,4(sp)
   12306:	43a2                	lw	t2,8(sp)
   12308:	00f50633          	add	a2,a0,a5
   1230c:	47ca                	lw	a5,144(sp)
   1230e:	4862                	lw	a6,24(sp)
   12310:	48f2                	lw	a7,28(sp)
   12312:	5f82                	lw	t6,32(sp)
   12314:	5312                	lw	t1,36(sp)
   12316:	00f65363          	bge	a2,a5,1231c <_ZN6tflite21reference_integer_ops14ConvPerChannelERKNS_10ConvParamsEPKlS5_RKNS_12RuntimeShapeEPKaS8_SA_S8_S5_S8_Pa.isra.0+0x260>
   1231a:	863e                	mv	a2,a5
   1231c:	47da                	lw	a5,148(sp)
   1231e:	00c7d363          	bge	a5,a2,12324 <_ZN6tflite21reference_integer_ops14ConvPerChannelERKNS_10ConvParamsEPKlS5_RKNS_12RuntimeShapeEPKaS8_SA_S8_S5_S8_Pa.isra.0+0x268>
   12322:	863e                	mv	a2,a5
   12324:	00032783          	lw	a5,0(t1)
   12328:	ef579ce3          	bne	a5,s5,12220 <_ZN6tflite21reference_integer_ops14ConvPerChannelERKNS_10ConvParamsEPKlS5_RKNS_12RuntimeShapeEPKaS8_SA_S8_S5_S8_Pa.isra.0+0x164>
   1232c:	00432783          	lw	a5,4(t1)
   12330:	10079063          	bnez	a5,12430 <_ZN6tflite21reference_integer_ops14ConvPerChannelERKNS_10ConvParamsEPKlS5_RKNS_12RuntimeShapeEPKaS8_SA_S8_S5_S8_Pa.isra.0+0x374>
   12334:	ee0996e3          	bnez	s3,12220 <_ZN6tflite21reference_integer_ops14ConvPerChannelERKNS_10ConvParamsEPKlS5_RKNS_12RuntimeShapeEPKaS8_SA_S8_S5_S8_Pa.isra.0+0x164>
   12338:	00832783          	lw	a5,8(t1)
   1233c:	4752                	lw	a4,20(sp)
   1233e:	e7f5                	bnez	a5,1242a <_ZN6tflite21reference_integer_ops14ConvPerChannelERKNS_10ConvParamsEPKlS5_RKNS_12RuntimeShapeEPKaS8_SA_S8_S5_S8_Pa.isra.0+0x36e>
   12340:	ee0710e3          	bnez	a4,12220 <_ZN6tflite21reference_integer_ops14ConvPerChannelERKNS_10ConvParamsEPKlS5_RKNS_12RuntimeShapeEPKaS8_SA_S8_S5_S8_Pa.isra.0+0x164>
   12344:	00c32e03          	lw	t3,12(t1)
   12348:	0c0e1e63          	bnez	t3,12424 <_ZN6tflite21reference_integer_ops14ConvPerChannelERKNS_10ConvParamsEPKlS5_RKNS_12RuntimeShapeEPKaS8_SA_S8_S5_S8_Pa.isra.0+0x368>
   1234c:	ec081ae3          	bnez	a6,12220 <_ZN6tflite21reference_integer_ops14ConvPerChannelERKNS_10ConvParamsEPKlS5_RKNS_12RuntimeShapeEPKaS8_SA_S8_S5_S8_Pa.isra.0+0x164>
   12350:	01032503          	lw	a0,16(t1)
   12354:	e569                	bnez	a0,1241e <_ZN6tflite21reference_integer_ops14ConvPerChannelERKNS_10ConvParamsEPKlS5_RKNS_12RuntimeShapeEPKaS8_SA_S8_S5_S8_Pa.isra.0+0x362>
   12356:	ec0915e3          	bnez	s2,12220 <_ZN6tflite21reference_integer_ops14ConvPerChannelERKNS_10ConvParamsEPKlS5_RKNS_12RuntimeShapeEPKaS8_SA_S8_S5_S8_Pa.isra.0+0x164>
   1235a:	577a                	lw	a4,188(sp)
   1235c:	02f987b3          	mul	a5,s3,a5
   12360:	0691                	addi	a3,a3,4
   12362:	012705b3          	add	a1,a4,s2
   12366:	4742                	lw	a4,16(sp)
   12368:	0905                	addi	s2,s2,1
   1236a:	0711                	addi	a4,a4,4
   1236c:	c83a                	sw	a4,16(sp)
   1236e:	4752                	lw	a4,20(sp)
   12370:	97ba                	add	a5,a5,a4
   12372:	03c787b3          	mul	a5,a5,t3
   12376:	97c2                	add	a5,a5,a6
   12378:	02a787b3          	mul	a5,a5,a0
   1237c:	95be                	add	a1,a1,a5
   1237e:	57b2                	lw	a5,44(sp)
   12380:	00c58023          	sb	a2,0(a1)
   12384:	e52796e3          	bne	a5,s2,121d0 <_ZN6tflite21reference_integer_ops14ConvPerChannelERKNS_10ConvParamsEPKlS5_RKNS_12RuntimeShapeEPKaS8_SA_S8_S5_S8_Pa.isra.0+0x114>
   12388:	57e2                	lw	a5,56(sp)
   1238a:	0805                	addi	a6,a6,1
   1238c:	98be                	add	a7,a7,a5
   1238e:	57d2                	lw	a5,52(sp)
   12390:	e3079ce3          	bne	a5,a6,121c8 <_ZN6tflite21reference_integer_ops14ConvPerChannelERKNS_10ConvParamsEPKlS5_RKNS_12RuntimeShapeEPKaS8_SA_S8_S5_S8_Pa.isra.0+0x10c>
   12394:	883a                	mv	a6,a4
   12396:	55b2                	lw	a1,44(sp)
   12398:	4f32                	lw	t5,12(sp)
   1239a:	5572                	lw	a0,60(sp)
   1239c:	4686                	lw	a3,64(sp)
   1239e:	4916                	lw	s2,68(sp)
   123a0:	4e26                	lw	t3,72(sp)
   123a2:	4736                	lw	a4,76(sp)
   123a4:	863e                	mv	a2,a5
   123a6:	57a2                	lw	a5,40(sp)
   123a8:	0805                	addi	a6,a6,1
   123aa:	97f2                	add	a5,a5,t3
   123ac:	d43e                	sw	a5,40(sp)
   123ae:	df051fe3          	bne	a0,a6,121ac <_ZN6tflite21reference_integer_ops14ConvPerChannelERKNS_10ConvParamsEPKlS5_RKNS_12RuntimeShapeEPKaS8_SA_S8_S5_S8_Pa.isra.0+0xf0>
   123b2:	881a                	mv	a6,t1
   123b4:	0985                	addi	s3,s3,1
   123b6:	ded993e3          	bne	s3,a3,1219c <_ZN6tflite21reference_integer_ops14ConvPerChannelERKNS_10ConvParamsEPKlS5_RKNS_12RuntimeShapeEPKaS8_SA_S8_S5_S8_Pa.isra.0+0xe0>
   123ba:	40ba                	lw	ra,140(sp)
   123bc:	442a                	lw	s0,136(sp)
   123be:	449a                	lw	s1,132(sp)
   123c0:	490a                	lw	s2,128(sp)
   123c2:	59f6                	lw	s3,124(sp)
   123c4:	5a66                	lw	s4,120(sp)
   123c6:	5ad6                	lw	s5,116(sp)
   123c8:	5b46                	lw	s6,112(sp)
   123ca:	5bb6                	lw	s7,108(sp)
   123cc:	5c26                	lw	s8,104(sp)
   123ce:	5c96                	lw	s9,100(sp)
   123d0:	5d06                	lw	s10,96(sp)
   123d2:	4df6                	lw	s11,92(sp)
   123d4:	6149                	addi	sp,sp,144
   123d6:	8082                	ret
   123d8:	e4fed4e3          	bge	t4,a5,12220 <_ZN6tflite21reference_integer_ops14ConvPerChannelERKNS_10ConvParamsEPKlS5_RKNS_12RuntimeShapeEPKaS8_SA_S8_S5_S8_Pa.isra.0+0x164>
   123dc:	00c4a803          	lw	a6,12(s1)
   123e0:	e4080fe3          	beqz	a6,1223e <_ZN6tflite21reference_integer_ops14ConvPerChannelERKNS_10ConvParamsEPKlS5_RKNS_12RuntimeShapeEPKaS8_SA_S8_S5_S8_Pa.isra.0+0x182>
   123e4:	e306dee3          	bge	a3,a6,12220 <_ZN6tflite21reference_integer_ops14ConvPerChannelERKNS_10ConvParamsEPKlS5_RKNS_12RuntimeShapeEPKaS8_SA_S8_S5_S8_Pa.isra.0+0x164>
   123e8:	0104a383          	lw	t2,16(s1)
   123ec:	e4038ee3          	beqz	t2,12248 <_ZN6tflite21reference_integer_ops14ConvPerChannelERKNS_10ConvParamsEPKlS5_RKNS_12RuntimeShapeEPKaS8_SA_S8_S5_S8_Pa.isra.0+0x18c>
   123f0:	e4774de3          	blt	a4,t2,1224a <_ZN6tflite21reference_integer_ops14ConvPerChannelERKNS_10ConvParamsEPKlS5_RKNS_12RuntimeShapeEPKaS8_SA_S8_S5_S8_Pa.isra.0+0x18e>
   123f4:	b535                	j	12220 <_ZN6tflite21reference_integer_ops14ConvPerChannelERKNS_10ConvParamsEPKlS5_RKNS_12RuntimeShapeEPKaS8_SA_S8_S5_S8_Pa.isra.0+0x164>
   123f6:	e2f955e3          	bge	s2,a5,12220 <_ZN6tflite21reference_integer_ops14ConvPerChannelERKNS_10ConvParamsEPKlS5_RKNS_12RuntimeShapeEPKaS8_SA_S8_S5_S8_Pa.isra.0+0x164>
   123fa:	441c                	lw	a5,8(s0)
   123fc:	e80780e3          	beqz	a5,1227c <_ZN6tflite21reference_integer_ops14ConvPerChannelERKNS_10ConvParamsEPKlS5_RKNS_12RuntimeShapeEPKaS8_SA_S8_S5_S8_Pa.isra.0+0x1c0>
   12400:	e2f2d0e3          	bge	t0,a5,12220 <_ZN6tflite21reference_integer_ops14ConvPerChannelERKNS_10ConvParamsEPKlS5_RKNS_12RuntimeShapeEPKaS8_SA_S8_S5_S8_Pa.isra.0+0x164>
   12404:	00c42383          	lw	t2,12(s0)
   12408:	e80380e3          	beqz	t2,12288 <_ZN6tflite21reference_integer_ops14ConvPerChannelERKNS_10ConvParamsEPKlS5_RKNS_12RuntimeShapeEPKaS8_SA_S8_S5_S8_Pa.isra.0+0x1cc>
   1240c:	e0765ae3          	bge	a2,t2,12220 <_ZN6tflite21reference_integer_ops14ConvPerChannelERKNS_10ConvParamsEPKlS5_RKNS_12RuntimeShapeEPKaS8_SA_S8_S5_S8_Pa.isra.0+0x164>
   12410:	01042d83          	lw	s11,16(s0)
   12414:	e60d8fe3          	beqz	s11,12292 <_ZN6tflite21reference_integer_ops14ConvPerChannelERKNS_10ConvParamsEPKlS5_RKNS_12RuntimeShapeEPKaS8_SA_S8_S5_S8_Pa.isra.0+0x1d6>
   12418:	e7b74ee3          	blt	a4,s11,12294 <_ZN6tflite21reference_integer_ops14ConvPerChannelERKNS_10ConvParamsEPKlS5_RKNS_12RuntimeShapeEPKaS8_SA_S8_S5_S8_Pa.isra.0+0x1d8>
   1241c:	b511                	j	12220 <_ZN6tflite21reference_integer_ops14ConvPerChannelERKNS_10ConvParamsEPKlS5_RKNS_12RuntimeShapeEPKaS8_SA_S8_S5_S8_Pa.isra.0+0x164>
   1241e:	f2a94ee3          	blt	s2,a0,1235a <_ZN6tflite21reference_integer_ops14ConvPerChannelERKNS_10ConvParamsEPKlS5_RKNS_12RuntimeShapeEPKaS8_SA_S8_S5_S8_Pa.isra.0+0x29e>
   12422:	bbfd                	j	12220 <_ZN6tflite21reference_integer_ops14ConvPerChannelERKNS_10ConvParamsEPKlS5_RKNS_12RuntimeShapeEPKaS8_SA_S8_S5_S8_Pa.isra.0+0x164>
   12424:	f3c846e3          	blt	a6,t3,12350 <_ZN6tflite21reference_integer_ops14ConvPerChannelERKNS_10ConvParamsEPKlS5_RKNS_12RuntimeShapeEPKaS8_SA_S8_S5_S8_Pa.isra.0+0x294>
   12428:	bbe5                	j	12220 <_ZN6tflite21reference_integer_ops14ConvPerChannelERKNS_10ConvParamsEPKlS5_RKNS_12RuntimeShapeEPKaS8_SA_S8_S5_S8_Pa.isra.0+0x164>
   1242a:	f0f74de3          	blt	a4,a5,12344 <_ZN6tflite21reference_integer_ops14ConvPerChannelERKNS_10ConvParamsEPKlS5_RKNS_12RuntimeShapeEPKaS8_SA_S8_S5_S8_Pa.isra.0+0x288>
   1242e:	bbcd                	j	12220 <_ZN6tflite21reference_integer_ops14ConvPerChannelERKNS_10ConvParamsEPKlS5_RKNS_12RuntimeShapeEPKaS8_SA_S8_S5_S8_Pa.isra.0+0x164>
   12430:	f0f9c4e3          	blt	s3,a5,12338 <_ZN6tflite21reference_integer_ops14ConvPerChannelERKNS_10ConvParamsEPKlS5_RKNS_12RuntimeShapeEPKaS8_SA_S8_S5_S8_Pa.isra.0+0x27c>
   12434:	b3f5                	j	12220 <_ZN6tflite21reference_integer_ops14ConvPerChannelERKNS_10ConvParamsEPKlS5_RKNS_12RuntimeShapeEPKaS8_SA_S8_S5_S8_Pa.isra.0+0x164>
   12436:	4501                	li	a0,0
   12438:	b545                	j	122d8 <_ZN6tflite21reference_integer_ops14ConvPerChannelERKNS_10ConvParamsEPKlS5_RKNS_12RuntimeShapeEPKaS8_SA_S8_S5_S8_Pa.isra.0+0x21c>
   1243a:	0985                	addi	s3,s3,1
   1243c:	d52991e3          	bne	s3,s2,1217e <_ZN6tflite21reference_integer_ops14ConvPerChannelERKNS_10ConvParamsEPKlS5_RKNS_12RuntimeShapeEPKaS8_SA_S8_S5_S8_Pa.isra.0+0xc2>
   12440:	bfad                	j	123ba <_ZN6tflite21reference_integer_ops14ConvPerChannelERKNS_10ConvParamsEPKlS5_RKNS_12RuntimeShapeEPKaS8_SA_S8_S5_S8_Pa.isra.0+0x2fe>
   12442:	4685                	li	a3,1
   12444:	b311                	j	12148 <_ZN6tflite21reference_integer_ops14ConvPerChannelERKNS_10ConvParamsEPKlS5_RKNS_12RuntimeShapeEPKaS8_SA_S8_S5_S8_Pa.isra.0+0x8c>

00012446 <_ZN6tflite12_GLOBAL__N_18ConvEvalEP13TfLiteContextP10TfLiteNode>:
   12446:	00063797          	auipc	a5,0x63
   1244a:	3f67a603          	lw	a2,1014(a5) # 7583c <_ZN6tflite16kConvInputTensorE>
   1244e:	b5010113          	addi	sp,sp,-1200
   12452:	4a112623          	sw	ra,1196(sp)
   12456:	4a912223          	sw	s1,1188(sp)
   1245a:	4b212023          	sw	s2,1184(sp)
   1245e:	84ae                	mv	s1,a1
   12460:	49312e23          	sw	s3,1180(sp)
   12464:	49412c23          	sw	s4,1176(sp)
   12468:	4a812423          	sw	s0,1192(sp)
   1246c:	8a2a                	mv	s4,a0
   1246e:	49512a23          	sw	s5,1172(sp)
   12472:	00003097          	auipc	ra,0x3
   12476:	228080e7          	jalr	552(ra) # 1569a <_ZN6tflite5micro12GetEvalInputEPK13TfLiteContextPK10TfLiteNodei>
   1247a:	00063797          	auipc	a5,0x63
   1247e:	3be7a603          	lw	a2,958(a5) # 75838 <_ZN6tflite18kConvWeightsTensorE>
   12482:	892a                	mv	s2,a0
   12484:	85a6                	mv	a1,s1
   12486:	8552                	mv	a0,s4
   12488:	00003097          	auipc	ra,0x3
   1248c:	212080e7          	jalr	530(ra) # 1569a <_ZN6tflite5micro12GetEvalInputEPK13TfLiteContextPK10TfLiteNodei>
   12490:	409c                	lw	a5,0(s1)
   12492:	89aa                	mv	s3,a0
   12494:	d4be                	sw	a5,104(sp)
   12496:	c791                	beqz	a5,124a2 <_ZN6tflite12_GLOBAL__N_18ConvEvalEP13TfLiteContextP10TfLiteNode+0x5c>
   12498:	4398                	lw	a4,0(a5)
   1249a:	d482                	sw	zero,104(sp)
   1249c:	478d                	li	a5,3
   1249e:	72f700e3          	beq	a4,a5,133be <_ZN6tflite12_GLOBAL__N_18ConvEvalEP13TfLiteContextP10TfLiteNode+0xf78>
   124a2:	00063797          	auipc	a5,0x63
   124a6:	38e7a603          	lw	a2,910(a5) # 75830 <_ZN6tflite17kConvOutputTensorE>
   124aa:	85a6                	mv	a1,s1
   124ac:	8552                	mv	a0,s4
   124ae:	00003097          	auipc	ra,0x3
   124b2:	222080e7          	jalr	546(ra) # 156d0 <_ZN6tflite5micro13GetEvalOutputEPK13TfLiteContextPK10TfLiteNodei>
   124b6:	0104aa83          	lw	s5,16(s1)
   124ba:	842a                	mv	s0,a0
   124bc:	000a9463          	bnez	s5,124c4 <_ZN6tflite12_GLOBAL__N_18ConvEvalEP13TfLiteContextP10TfLiteNode+0x7e>
   124c0:	1e20106f          	j	136a2 <_ZN6tflite12_GLOBAL__N_18ConvEvalEP13TfLiteContextP10TfLiteNode+0x125c>
   124c4:	44c4                	lw	s1,12(s1)
   124c6:	e099                	bnez	s1,124cc <_ZN6tflite12_GLOBAL__N_18ConvEvalEP13TfLiteContextP10TfLiteNode+0x86>
   124c8:	1be0106f          	j	13686 <_ZN6tflite12_GLOBAL__N_18ConvEvalEP13TfLiteContextP10TfLiteNode+0x1240>
   124cc:	00892503          	lw	a0,8(s2)
   124d0:	479d                	li	a5,7
   124d2:	54f50d63          	beq	a0,a5,12a2c <_ZN6tflite12_GLOBAL__N_18ConvEvalEP13TfLiteContextP10TfLiteNode+0x5e6>
   124d6:	47a5                	li	a5,9
   124d8:	2ef50e63          	beq	a0,a5,127d4 <_ZN6tflite12_GLOBAL__N_18ConvEvalEP13TfLiteContextP10TfLiteNode+0x38e>
   124dc:	4785                	li	a5,1
   124de:	50f51663          	bne	a0,a5,129ea <_ZN6tflite12_GLOBAL__N_18ConvEvalEP13TfLiteContextP10TfLiteNode+0x5a4>
   124e2:	85d6                	mv	a1,s5
   124e4:	0ea8                	addi	a0,sp,856
   124e6:	8626                	mv	a2,s1
   124e8:	00001097          	auipc	ra,0x1
   124ec:	374080e7          	jalr	884(ra) # 1385c <_ZN6tflite15ConvParamsFloatERK16TfLiteConvParamsRKNS_10OpDataConvE>
   124f0:	85ca                	mv	a1,s2
   124f2:	0268                	addi	a0,sp,268
   124f4:	00003097          	auipc	ra,0x3
   124f8:	1fa080e7          	jalr	506(ra) # 156ee <_ZN6tflite5micro14GetTensorShapeEPK16TfLiteEvalTensor>
   124fc:	7c0903e3          	beqz	s2,134c2 <_ZN6tflite12_GLOBAL__N_18ConvEvalEP13TfLiteContextP10TfLiteNode+0x107c>
   12500:	00092783          	lw	a5,0(s2)
   12504:	85ce                	mv	a1,s3
   12506:	1228                	addi	a0,sp,296
   12508:	cd3e                	sw	a5,152(sp)
   1250a:	00003097          	auipc	ra,0x3
   1250e:	1e4080e7          	jalr	484(ra) # 156ee <_ZN6tflite5micro14GetTensorShapeEPK16TfLiteEvalTensor>
   12512:	7c0986e3          	beqz	s3,134de <_ZN6tflite12_GLOBAL__N_18ConvEvalEP13TfLiteContextP10TfLiteNode+0x1098>
   12516:	54a6                	lw	s1,104(sp)
   12518:	0009a703          	lw	a4,0(s3)
   1251c:	02c8                	addi	a0,sp,324
   1251e:	85a6                	mv	a1,s1
   12520:	d0ba                	sw	a4,96(sp)
   12522:	00003097          	auipc	ra,0x3
   12526:	1cc080e7          	jalr	460(ra) # 156ee <_ZN6tflite5micro14GetTensorShapeEPK16TfLiteEvalTensor>
   1252a:	c099                	beqz	s1,12530 <_ZN6tflite12_GLOBAL__N_18ConvEvalEP13TfLiteContextP10TfLiteNode+0xea>
   1252c:	409c                	lw	a5,0(s1)
   1252e:	d4be                	sw	a5,104(sp)
   12530:	85a2                	mv	a1,s0
   12532:	1288                	addi	a0,sp,352
   12534:	00003097          	auipc	ra,0x3
   12538:	1ba080e7          	jalr	442(ra) # 156ee <_ZN6tflite5micro14GetTensorShapeEPK16TfLiteEvalTensor>
   1253c:	7a040fe3          	beqz	s0,134fa <_ZN6tflite12_GLOBAL__N_18ConvEvalEP13TfLiteContextP10TfLiteNode+0x10b4>
   12540:	401c                	lw	a5,0(s0)
   12542:	4581                	li	a1,0
   12544:	1ae8                	addi	a0,sp,380
   12546:	d53e                	sw	a5,168(sp)
   12548:	00003097          	auipc	ra,0x3
   1254c:	1a6080e7          	jalr	422(ra) # 156ee <_ZN6tflite5micro14GetTensorShapeEPK16TfLiteEvalTensor>
   12550:	36611583          	lh	a1,870(sp)
   12554:	10c12603          	lw	a2,268(sp)
   12558:	4691                	li	a3,4
   1255a:	dc2e                	sw	a1,56(sp)
   1255c:	36811583          	lh	a1,872(sp)
   12560:	35a11783          	lh	a5,858(sp)
   12564:	35c11a03          	lh	s4,860(sp)
   12568:	d2ae                	sw	a1,100(sp)
   1256a:	38812583          	lw	a1,904(sp)
   1256e:	36211703          	lh	a4,866(sp)
   12572:	36411e03          	lh	t3,868(sp)
   12576:	cb2e                	sw	a1,148(sp)
   12578:	38c12583          	lw	a1,908(sp)
   1257c:	cf2e                	sw	a1,156(sp)
   1257e:	00d60463          	beq	a2,a3,12586 <_ZN6tflite12_GLOBAL__N_18ConvEvalEP13TfLiteContextP10TfLiteNode+0x140>
   12582:	0840106f          	j	13606 <_ZN6tflite12_GLOBAL__N_18ConvEvalEP13TfLiteContextP10TfLiteNode+0x11c0>
   12586:	12812683          	lw	a3,296(sp)
   1258a:	00c68463          	beq	a3,a2,12592 <_ZN6tflite12_GLOBAL__N_18ConvEvalEP13TfLiteContextP10TfLiteNode+0x14c>
   1258e:	0940106f          	j	13622 <_ZN6tflite12_GLOBAL__N_18ConvEvalEP13TfLiteContextP10TfLiteNode+0x11dc>
   12592:	16012603          	lw	a2,352(sp)
   12596:	00d60463          	beq	a2,a3,1259e <_ZN6tflite12_GLOBAL__N_18ConvEvalEP13TfLiteContextP10TfLiteNode+0x158>
   1259a:	0a40106f          	j	1363e <_ZN6tflite12_GLOBAL__N_18ConvEvalEP13TfLiteContextP10TfLiteNode+0x11f8>
   1259e:	11012283          	lw	t0,272(sp)
   125a2:	16412683          	lw	a3,356(sp)
   125a6:	00568463          	beq	a3,t0,125ae <_ZN6tflite12_GLOBAL__N_18ConvEvalEP13TfLiteContextP10TfLiteNode+0x168>
   125aa:	0b00106f          	j	1365a <_ZN6tflite12_GLOBAL__N_18ConvEvalEP13TfLiteContextP10TfLiteNode+0x1214>
   125ae:	12c12583          	lw	a1,300(sp)
   125b2:	17012f03          	lw	t5,368(sp)
   125b6:	49812423          	sw	s8,1160(sp)
   125ba:	11c12c03          	lw	s8,284(sp)
   125be:	00bf0463          	beq	t5,a1,125c6 <_ZN6tflite12_GLOBAL__N_18ConvEvalEP13TfLiteContextP10TfLiteNode+0x180>
   125c2:	0fc0106f          	j	136be <_ZN6tflite12_GLOBAL__N_18ConvEvalEP13TfLiteContextP10TfLiteNode+0x1278>
   125c6:	56a6                	lw	a3,104(sp)
   125c8:	c295                	beqz	a3,125ec <_ZN6tflite12_GLOBAL__N_18ConvEvalEP13TfLiteContextP10TfLiteNode+0x1a6>
   125ca:	14412603          	lw	a2,324(sp)
   125ce:	6cc053e3          	blez	a2,13494 <_ZN6tflite12_GLOBAL__N_18ConvEvalEP13TfLiteContextP10TfLiteNode+0x104e>
   125d2:	060a                	slli	a2,a2,0x2
   125d4:	02b4                	addi	a3,sp,328
   125d6:	00c68833          	add	a6,a3,a2
   125da:	4605                	li	a2,1
   125dc:	4288                	lw	a0,0(a3)
   125de:	0691                	addi	a3,a3,4
   125e0:	02a60633          	mul	a2,a2,a0
   125e4:	ff069ce3          	bne	a3,a6,125dc <_ZN6tflite12_GLOBAL__N_18ConvEvalEP13TfLiteContextP10TfLiteNode+0x196>
   125e8:	74b61fe3          	bne	a2,a1,13546 <_ZN6tflite12_GLOBAL__N_18ConvEvalEP13TfLiteContextP10TfLiteNode+0x1100>
   125ec:	13812483          	lw	s1,312(sp)
   125f0:	11412883          	lw	a7,276(sp)
   125f4:	11812503          	lw	a0,280(sp)
   125f8:	13012383          	lw	t2,304(sp)
   125fc:	13412f83          	lw	t6,308(sp)
   12600:	c2c6                	sw	a7,68(sp)
   12602:	c0aa                	sw	a0,64(sp)
   12604:	029c46b3          	div	a3,s8,s1
   12608:	ce9e                	sw	t2,92(sp)
   1260a:	da7e                	sw	t6,52(sp)
   1260c:	e299                	bnez	a3,12612 <_ZN6tflite12_GLOBAL__N_18ConvEvalEP13TfLiteContextP10TfLiteNode+0x1cc>
   1260e:	0f80106f          	j	13706 <_ZN6tflite12_GLOBAL__N_18ConvEvalEP13TfLiteContextP10TfLiteNode+0x12c0>
   12612:	029c6633          	rem	a2,s8,s1
   12616:	c219                	beqz	a2,1261c <_ZN6tflite12_GLOBAL__N_18ConvEvalEP13TfLiteContextP10TfLiteNode+0x1d6>
   12618:	0be0106f          	j	136d6 <_ZN6tflite12_GLOBAL__N_18ConvEvalEP13TfLiteContextP10TfLiteNode+0x1290>
   1261c:	02d5c833          	div	a6,a1,a3
   12620:	00081463          	bnez	a6,12628 <_ZN6tflite12_GLOBAL__N_18ConvEvalEP13TfLiteContextP10TfLiteNode+0x1e2>
   12624:	0ca0106f          	j	136ee <_ZN6tflite12_GLOBAL__N_18ConvEvalEP13TfLiteContextP10TfLiteNode+0x12a8>
   12628:	47b12e23          	sw	s11,1148(sp)
   1262c:	16812403          	lw	s0,360(sp)
   12630:	16c12d83          	lw	s11,364(sp)
   12634:	1e5058e3          	blez	t0,13024 <_ZN6tflite12_GLOBAL__N_18ConvEvalEP13TfLiteContextP10TfLiteNode+0xbde>
   12638:	02aa06b3          	mul	a3,s4,a0
   1263c:	49a12023          	sw	s10,1152(sp)
   12640:	49612823          	sw	s6,1168(sp)
   12644:	49712623          	sw	s7,1164(sp)
   12648:	4a81                	li	s5,0
   1264a:	4e81                	li	t4,0
   1264c:	db3a                	sw	a4,180(sp)
   1264e:	c5f2                	sw	t3,200(sp)
   12650:	c542                	sw	a6,136(sp)
   12652:	89a2                	mv	s3,s0
   12654:	03850633          	mul	a2,a0,s8
   12658:	40d006b3          	neg	a3,a3
   1265c:	8e9d                	sub	a3,a3,a5
   1265e:	02a888b3          	mul	a7,a7,a0
   12662:	03f38533          	mul	a0,t2,t6
   12666:	03868d33          	mul	s10,a3,s8
   1266a:	029506b3          	mul	a3,a0,s1
   1266e:	d336                	sw	a3,164(sp)
   12670:	5696                	lw	a3,100(sp)
   12672:	03b40333          	mul	t1,s0,s11
   12676:	02c686b3          	mul	a3,a3,a2
   1267a:	d6b6                	sw	a3,108(sp)
   1267c:	029f86b3          	mul	a3,t6,s1
   12680:	d8b6                	sw	a3,112(sp)
   12682:	56e2                	lw	a3,56(sp)
   12684:	038888b3          	mul	a7,a7,s8
   12688:	03c60933          	mul	s2,a2,t3
   1268c:	cdc6                	sw	a7,216(sp)
   1268e:	88ae                	mv	a7,a1
   12690:	03870bb3          	mul	s7,a4,s8
   12694:	c9ca                	sw	s2,208(sp)
   12696:	8976                	mv	s2,t4
   12698:	03e30333          	mul	t1,t1,t5
   1269c:	dd5e                	sw	s7,184(sp)
   1269e:	8bd6                	mv	s7,s5
   126a0:	8abe                	mv	s5,a5
   126a2:	87ee                	mv	a5,s11
   126a4:	03ed8b33          	mul	s6,s11,t5
   126a8:	cb9a                	sw	t1,212(sp)
   126aa:	038686b3          	mul	a3,a3,s8
   126ae:	c7da                	sw	s6,204(sp)
   126b0:	de36                	sw	a3,60(sp)
   126b2:	31305563          	blez	s3,129bc <_ZN6tflite12_GLOBAL__N_18ConvEvalEP13TfLiteContextP10TfLiteNode+0x576>
   126b6:	414005b3          	neg	a1,s4
   126ba:	cfd2                	sw	s4,220(sp)
   126bc:	df4e                	sw	s3,188(sp)
   126be:	49912223          	sw	s9,1156(sp)
   126c2:	4381                	li	t2,0
   126c4:	8dbe                	mv	s11,a5
   126c6:	d196                	sw	t0,224(sp)
   126c8:	8a5e                	mv	s4,s7
   126ca:	89ea                	mv	s3,s10
   126cc:	c72e                	sw	a1,140(sp)
   126ce:	d3de                	sw	s7,228(sp)
   126d0:	2db05363          	blez	s11,12996 <_ZN6tflite12_GLOBAL__N_18ConvEvalEP13TfLiteContextP10TfLiteNode+0x550>
   126d4:	415007b3          	neg	a5,s5
   126d8:	4f81                	li	t6,0
   126da:	dabe                	sw	a5,116(sp)
   126dc:	86ce                	mv	a3,s3
   126de:	d5d6                	sw	s5,232(sp)
   126e0:	d76e                	sw	s11,172(sp)
   126e2:	8cfe                	mv	s9,t6
   126e4:	d79e                	sw	t2,236(sp)
   126e6:	d9ca                	sw	s2,240(sp)
   126e8:	d97a                	sw	t5,176(sp)
   126ea:	8e46                	mv	t3,a7
   126ec:	dbd2                	sw	s4,244(sp)
   126ee:	ddce                	sw	s3,248(sp)
   126f0:	dfea                	sw	s10,252(sp)
   126f2:	27c05d63          	blez	t3,1296c <_ZN6tflite12_GLOBAL__N_18ConvEvalEP13TfLiteContextP10TfLiteNode+0x526>
   126f6:	57aa                	lw	a5,168(sp)
   126f8:	002a1513          	slli	a0,s4,0x2
   126fc:	4981                	li	s3,0
   126fe:	97aa                	add	a5,a5,a0
   12700:	debe                	sw	a5,124(sp)
   12702:	57a6                	lw	a5,104(sp)
   12704:	4901                	li	s2,0
   12706:	c1e6                	sw	s9,192(sp)
   12708:	dcbe                	sw	a5,120(sp)
   1270a:	d172                	sw	t3,160(sp)
   1270c:	c3d2                	sw	s4,196(sp)
   1270e:	c936                	sw	a3,144(sp)
   12710:	47aa                	lw	a5,136(sp)
   12712:	02f9c333          	div	t1,s3,a5
   12716:	47f6                	lw	a5,92(sp)
   12718:	50f057e3          	blez	a5,13426 <_ZN6tflite12_GLOBAL__N_18ConvEvalEP13TfLiteContextP10TfLiteNode+0xfe0>
   1271c:	46ea                	lw	a3,152(sp)
   1271e:	4dba                	lw	s11,140(sp)
   12720:	454a                	lw	a0,144(sp)
   12722:	884a                	mv	a6,s2
   12724:	4581                	li	a1,0
   12726:	00000413          	li	s0,0
   1272a:	c14e                	sw	s3,128(sp)
   1272c:	c34a                	sw	s2,132(sp)
   1272e:	02930733          	mul	a4,t1,s1
   12732:	00271793          	slli	a5,a4,0x2
   12736:	97b6                	add	a5,a5,a3
   12738:	cabe                	sw	a5,84(sp)
   1273a:	00970a33          	add	s4,a4,s1
   1273e:	ccba                	sw	a4,88(sp)
   12740:	57d2                	lw	a5,52(sp)
   12742:	1af05a63          	blez	a5,128f6 <_ZN6tflite12_GLOBAL__N_18ConvEvalEP13TfLiteContextP10TfLiteNode+0x4b0>
   12746:	5cd6                	lw	s9,116(sp)
   12748:	4d01                	li	s10,0
   1274a:	89c2                	mv	s3,a6
   1274c:	87e6                	mv	a5,s9
   1274e:	892a                	mv	s2,a0
   12750:	8cea                	mv	s9,s10
   12752:	c4aa                	sw	a0,72(sp)
   12754:	c6ae                	sw	a1,76(sp)
   12756:	c8c2                	sw	a6,80(sp)
   12758:	8d3e                	mv	s10,a5
   1275a:	a811                	j	1276e <_ZN6tflite12_GLOBAL__N_18ConvEvalEP13TfLiteContextP10TfLiteNode+0x328>
   1275c:	57e2                	lw	a5,56(sp)
   1275e:	0c85                	addi	s9,s9,1
   12760:	99a6                	add	s3,s3,s1
   12762:	9d3e                	add	s10,s10,a5
   12764:	57f2                	lw	a5,60(sp)
   12766:	993e                	add	s2,s2,a5
   12768:	57d2                	lw	a5,52(sp)
   1276a:	19978363          	beq	a5,s9,128f0 <_ZN6tflite12_GLOBAL__N_18ConvEvalEP13TfLiteContextP10TfLiteNode+0x4aa>
   1276e:	01bd67b3          	or	a5,s10,s11
   12772:	fe07c5e3          	bltz	a5,1275c <_ZN6tflite12_GLOBAL__N_18ConvEvalEP13TfLiteContextP10TfLiteNode+0x316>
   12776:	4786                	lw	a5,64(sp)
   12778:	fefd52e3          	bge	s10,a5,1275c <_ZN6tflite12_GLOBAL__N_18ConvEvalEP13TfLiteContextP10TfLiteNode+0x316>
   1277c:	4796                	lw	a5,68(sp)
   1277e:	fcfddfe3          	bge	s11,a5,1275c <_ZN6tflite12_GLOBAL__N_18ConvEvalEP13TfLiteContextP10TfLiteNode+0x316>
   12782:	fc905de3          	blez	s1,1275c <_ZN6tflite12_GLOBAL__N_18ConvEvalEP13TfLiteContextP10TfLiteNode+0x316>
   12786:	47d6                	lw	a5,84(sp)
   12788:	00291693          	slli	a3,s2,0x2
   1278c:	00299613          	slli	a2,s3,0x2
   12790:	00f68ab3          	add	s5,a3,a5
   12794:	5786                	lw	a5,96(sp)
   12796:	00c78b33          	add	s6,a5,a2
   1279a:	47e6                	lw	a5,88(sp)
   1279c:	240c1063          	bnez	s8,129dc <_ZN6tflite12_GLOBAL__N_18ConvEvalEP13TfLiteContextP10TfLiteNode+0x596>
   127a0:	e795                	bnez	a5,127cc <_ZN6tflite12_GLOBAL__N_18ConvEvalEP13TfLiteContextP10TfLiteNode+0x386>
   127a2:	4b81                	li	s7,0
   127a4:	000b2583          	lw	a1,0(s6)
   127a8:	000aa503          	lw	a0,0(s5)
   127ac:	0b85                	addi	s7,s7,1
   127ae:	0000c097          	auipc	ra,0xc
   127b2:	b4a080e7          	jalr	-1206(ra) # 1e2f8 <__mulsf3>
   127b6:	85aa                	mv	a1,a0
   127b8:	8522                	mv	a0,s0
   127ba:	0000b097          	auipc	ra,0xb
   127be:	490080e7          	jalr	1168(ra) # 1dc4a <__addsf3>
   127c2:	842a                	mv	s0,a0
   127c4:	f94b8ce3          	beq	s7,s4,1275c <_ZN6tflite12_GLOBAL__N_18ConvEvalEP13TfLiteContextP10TfLiteNode+0x316>
   127c8:	100c1e63          	bnez	s8,128e4 <_ZN6tflite12_GLOBAL__N_18ConvEvalEP13TfLiteContextP10TfLiteNode+0x49e>
   127cc:	fffff097          	auipc	ra,0xfffff
   127d0:	802080e7          	jalr	-2046(ra) # 10fce <_Z9AbortImplv>
   127d4:	0089a783          	lw	a5,8(s3)
   127d8:	36a78c63          	beq	a5,a0,12b50 <_ZN6tflite12_GLOBAL__N_18ConvEvalEP13TfLiteContextP10TfLiteNode+0x70a>
   127dc:	4749                	li	a4,18
   127de:	42e792e3          	bne	a5,a4,13402 <_ZN6tflite12_GLOBAL__N_18ConvEvalEP13TfLiteContextP10TfLiteNode+0xfbc>
   127e2:	044a2783          	lw	a5,68(s4)
   127e6:	58cc                	lw	a1,52(s1)
   127e8:	8552                	mv	a0,s4
   127ea:	9782                	jalr	a5
   127ec:	49612823          	sw	s6,1168(sp)
   127f0:	49712623          	sw	s7,1164(sp)
   127f4:	49812423          	sw	s8,1160(sp)
   127f8:	8a2a                	mv	s4,a0
   127fa:	520982e3          	beqz	s3,1351e <_ZN6tflite12_GLOBAL__N_18ConvEvalEP13TfLiteContextP10TfLiteNode+0x10d8>
   127fe:	85ce                	mv	a1,s3
   12800:	43810513          	addi	a0,sp,1080
   12804:	0009ab03          	lw	s6,0(s3)
   12808:	00003097          	auipc	ra,0x3
   1280c:	ee6080e7          	jalr	-282(ra) # 156ee <_ZN6tflite5micro14GetTensorShapeEPK16TfLiteEvalTensor>
   12810:	43812703          	lw	a4,1080(sp)
   12814:	48e054e3          	blez	a4,1349c <_ZN6tflite12_GLOBAL__N_18ConvEvalEP13TfLiteContextP10TfLiteNode+0x1056>
   12818:	43c10793          	addi	a5,sp,1084
   1281c:	070a                	slli	a4,a4,0x2
   1281e:	00e786b3          	add	a3,a5,a4
   12822:	4585                	li	a1,1
   12824:	4398                	lw	a4,0(a5)
   12826:	0791                	addi	a5,a5,4
   12828:	02e585b3          	mul	a1,a1,a4
   1282c:	fed79ce3          	bne	a5,a3,12824 <_ZN6tflite12_GLOBAL__N_18ConvEvalEP13TfLiteContextP10TfLiteNode+0x3de>
   12830:	8652                	mv	a2,s4
   12832:	855a                	mv	a0,s6
   12834:	00008097          	auipc	ra,0x8
   12838:	232080e7          	jalr	562(ra) # 1aa66 <_ZN6tflite12tensor_utils23UnpackDenseInt4IntoInt8EPKaiPa>
   1283c:	85d6                	mv	a1,s5
   1283e:	40010513          	addi	a0,sp,1024
   12842:	8626                	mv	a2,s1
   12844:	00001097          	auipc	ra,0x1
   12848:	0c2080e7          	jalr	194(ra) # 13906 <_ZN6tflite19ConvParamsQuantizedERK16TfLiteConvParamsRKNS_10OpDataConvE>
   1284c:	27810a93          	addi	s5,sp,632
   12850:	85ca                	mv	a1,s2
   12852:	8556                	mv	a0,s5
   12854:	0244ab83          	lw	s7,36(s1)
   12858:	0284ac03          	lw	s8,40(s1)
   1285c:	00003097          	auipc	ra,0x3
   12860:	e92080e7          	jalr	-366(ra) # 156ee <_ZN6tflite5micro14GetTensorShapeEPK16TfLiteEvalTensor>
   12864:	780901e3          	beqz	s2,137e6 <_ZN6tflite12_GLOBAL__N_18ConvEvalEP13TfLiteContextP10TfLiteNode+0x13a0>
   12868:	29410b13          	addi	s6,sp,660
   1286c:	85ce                	mv	a1,s3
   1286e:	855a                	mv	a0,s6
   12870:	00092983          	lw	s3,0(s2)
   12874:	00003097          	auipc	ra,0x3
   12878:	e7a080e7          	jalr	-390(ra) # 156ee <_ZN6tflite5micro14GetTensorShapeEPK16TfLiteEvalTensor>
   1287c:	54a6                	lw	s1,104(sp)
   1287e:	2b010913          	addi	s2,sp,688
   12882:	854a                	mv	a0,s2
   12884:	85a6                	mv	a1,s1
   12886:	00003097          	auipc	ra,0x3
   1288a:	e68080e7          	jalr	-408(ra) # 156ee <_ZN6tflite5micro14GetTensorShapeEPK16TfLiteEvalTensor>
   1288e:	c099                	beqz	s1,12894 <_ZN6tflite12_GLOBAL__N_18ConvEvalEP13TfLiteContextP10TfLiteNode+0x44e>
   12890:	409c                	lw	a5,0(s1)
   12892:	d4be                	sw	a5,104(sp)
   12894:	05e4                	addi	s1,sp,716
   12896:	85a2                	mv	a1,s0
   12898:	8526                	mv	a0,s1
   1289a:	00003097          	auipc	ra,0x3
   1289e:	e54080e7          	jalr	-428(ra) # 156ee <_ZN6tflite5micro14GetTensorShapeEPK16TfLiteEvalTensor>
   128a2:	72040ae3          	beqz	s0,137d6 <_ZN6tflite12_GLOBAL__N_18ConvEvalEP13TfLiteContextP10TfLiteNode+0x1390>
   128a6:	42c12e03          	lw	t3,1068(sp)
   128aa:	00042303          	lw	t1,0(s0)
   128ae:	41c12883          	lw	a7,1052(sp)
   128b2:	c272                	sw	t3,4(sp)
   128b4:	41412803          	lw	a6,1044(sp)
   128b8:	41011783          	lh	a5,1040(sp)
   128bc:	40e11703          	lh	a4,1038(sp)
   128c0:	40c11683          	lh	a3,1036(sp)
   128c4:	40a11603          	lh	a2,1034(sp)
   128c8:	40411583          	lh	a1,1028(sp)
   128cc:	40211503          	lh	a0,1026(sp)
   128d0:	42812e03          	lw	t3,1064(sp)
   128d4:	d04a                	sw	s2,32(sp)
   128d6:	ce52                	sw	s4,28(sp)
   128d8:	cc5a                	sw	s6,24(sp)
   128da:	ca4e                	sw	s3,20(sp)
   128dc:	c856                	sw	s5,16(sp)
   128de:	c662                	sw	s8,12(sp)
   128e0:	c45e                	sw	s7,8(sp)
   128e2:	a625                	j	12c0a <_ZN6tflite12_GLOBAL__N_18ConvEvalEP13TfLiteContextP10TfLiteNode+0x7c4>
   128e4:	85de                	mv	a1,s7
   128e6:	0a91                	addi	s5,s5,4
   128e8:	0b11                	addi	s6,s6,4
   128ea:	eb85cde3          	blt	a1,s8,127a4 <_ZN6tflite12_GLOBAL__N_18ConvEvalEP13TfLiteContextP10TfLiteNode+0x35e>
   128ee:	bdf9                	j	127cc <_ZN6tflite12_GLOBAL__N_18ConvEvalEP13TfLiteContextP10TfLiteNode+0x386>
   128f0:	4526                	lw	a0,72(sp)
   128f2:	45b6                	lw	a1,76(sp)
   128f4:	4846                	lw	a6,80(sp)
   128f6:	57b6                	lw	a5,108(sp)
   128f8:	0585                	addi	a1,a1,1
   128fa:	953e                	add	a0,a0,a5
   128fc:	57c6                	lw	a5,112(sp)
   128fe:	983e                	add	a6,a6,a5
   12900:	5796                	lw	a5,100(sp)
   12902:	9dbe                	add	s11,s11,a5
   12904:	47f6                	lw	a5,92(sp)
   12906:	e2b79de3          	bne	a5,a1,12740 <_ZN6tflite12_GLOBAL__N_18ConvEvalEP13TfLiteContextP10TfLiteNode+0x2fa>
   1290a:	498a                	lw	s3,128(sp)
   1290c:	491a                	lw	s2,132(sp)
   1290e:	57a6                	lw	a5,104(sp)
   12910:	00000513          	li	a0,0
   12914:	c399                	beqz	a5,1291a <_ZN6tflite12_GLOBAL__N_18ConvEvalEP13TfLiteContextP10TfLiteNode+0x4d4>
   12916:	57e6                	lw	a5,120(sp)
   12918:	4388                	lw	a0,0(a5)
   1291a:	85a2                	mv	a1,s0
   1291c:	0000b097          	auipc	ra,0xb
   12920:	32e080e7          	jalr	814(ra) # 1dc4a <__addsf3>
   12924:	842a                	mv	s0,a0
   12926:	85aa                	mv	a1,a0
   12928:	455a                	lw	a0,148(sp)
   1292a:	0000c097          	auipc	ra,0xc
   1292e:	8e2080e7          	jalr	-1822(ra) # 1e20c <__gesf2>
   12932:	00a05363          	blez	a0,12938 <_ZN6tflite12_GLOBAL__N_18ConvEvalEP13TfLiteContextP10TfLiteNode+0x4f2>
   12936:	445a                	lw	s0,148(sp)
   12938:	457a                	lw	a0,156(sp)
   1293a:	85a2                	mv	a1,s0
   1293c:	0000c097          	auipc	ra,0xc
   12940:	946080e7          	jalr	-1722(ra) # 1e282 <__lesf2>
   12944:	00055363          	bgez	a0,1294a <_ZN6tflite12_GLOBAL__N_18ConvEvalEP13TfLiteContextP10TfLiteNode+0x504>
   12948:	447a                	lw	s0,156(sp)
   1294a:	57f6                	lw	a5,124(sp)
   1294c:	0985                	addi	s3,s3,1
   1294e:	c380                	sw	s0,0(a5)
   12950:	0791                	addi	a5,a5,4
   12952:	debe                	sw	a5,124(sp)
   12954:	57e6                	lw	a5,120(sp)
   12956:	0791                	addi	a5,a5,4
   12958:	dcbe                	sw	a5,120(sp)
   1295a:	579a                	lw	a5,164(sp)
   1295c:	993e                	add	s2,s2,a5
   1295e:	578a                	lw	a5,160(sp)
   12960:	daf998e3          	bne	s3,a5,12710 <_ZN6tflite12_GLOBAL__N_18ConvEvalEP13TfLiteContextP10TfLiteNode+0x2ca>
   12964:	4c8e                	lw	s9,192(sp)
   12966:	4a1e                	lw	s4,196(sp)
   12968:	46ca                	lw	a3,144(sp)
   1296a:	8e3e                	mv	t3,a5
   1296c:	57ca                	lw	a5,176(sp)
   1296e:	575a                	lw	a4,180(sp)
   12970:	0c85                	addi	s9,s9,1
   12972:	9a3e                	add	s4,s4,a5
   12974:	57ea                	lw	a5,184(sp)
   12976:	96be                	add	a3,a3,a5
   12978:	57d6                	lw	a5,116(sp)
   1297a:	97ba                	add	a5,a5,a4
   1297c:	dabe                	sw	a5,116(sp)
   1297e:	57ba                	lw	a5,172(sp)
   12980:	d79799e3          	bne	a5,s9,126f2 <_ZN6tflite12_GLOBAL__N_18ConvEvalEP13TfLiteContextP10TfLiteNode+0x2ac>
   12984:	5aae                	lw	s5,232(sp)
   12986:	53be                	lw	t2,236(sp)
   12988:	594e                	lw	s2,240(sp)
   1298a:	5f4a                	lw	t5,176(sp)
   1298c:	5a5e                	lw	s4,244(sp)
   1298e:	59ee                	lw	s3,248(sp)
   12990:	5d7e                	lw	s10,252(sp)
   12992:	8dbe                	mv	s11,a5
   12994:	88f2                	mv	a7,t3
   12996:	47be                	lw	a5,204(sp)
   12998:	472e                	lw	a4,200(sp)
   1299a:	0385                	addi	t2,t2,1
   1299c:	9a3e                	add	s4,s4,a5
   1299e:	47ce                	lw	a5,208(sp)
   129a0:	99be                	add	s3,s3,a5
   129a2:	47ba                	lw	a5,140(sp)
   129a4:	97ba                	add	a5,a5,a4
   129a6:	c73e                	sw	a5,140(sp)
   129a8:	57fa                	lw	a5,188(sp)
   129aa:	d27793e3          	bne	a5,t2,126d0 <_ZN6tflite12_GLOBAL__N_18ConvEvalEP13TfLiteContextP10TfLiteNode+0x28a>
   129ae:	4a7e                	lw	s4,220(sp)
   129b0:	528e                	lw	t0,224(sp)
   129b2:	5b9e                	lw	s7,228(sp)
   129b4:	48412c83          	lw	s9,1156(sp)
   129b8:	89be                	mv	s3,a5
   129ba:	87ee                	mv	a5,s11
   129bc:	475e                	lw	a4,212(sp)
   129be:	0905                	addi	s2,s2,1
   129c0:	9bba                	add	s7,s7,a4
   129c2:	476e                	lw	a4,216(sp)
   129c4:	9d3a                	add	s10,s10,a4
   129c6:	ce5916e3          	bne	s2,t0,126b2 <_ZN6tflite12_GLOBAL__N_18ConvEvalEP13TfLiteContextP10TfLiteNode+0x26c>
   129ca:	49012b03          	lw	s6,1168(sp)
   129ce:	48c12b83          	lw	s7,1164(sp)
   129d2:	48012d03          	lw	s10,1152(sp)
   129d6:	47c12d83          	lw	s11,1148(sp)
   129da:	a4a9                	j	12c24 <_ZN6tflite12_GLOBAL__N_18ConvEvalEP13TfLiteContextP10TfLiteNode+0x7de>
   129dc:	85be                	mv	a1,a5
   129de:	de07c7e3          	bltz	a5,127cc <_ZN6tflite12_GLOBAL__N_18ConvEvalEP13TfLiteContextP10TfLiteNode+0x386>
   129e2:	8bbe                	mv	s7,a5
   129e4:	dd85c0e3          	blt	a1,s8,127a4 <_ZN6tflite12_GLOBAL__N_18ConvEvalEP13TfLiteContextP10TfLiteNode+0x35e>
   129e8:	b3d5                	j	127cc <_ZN6tflite12_GLOBAL__N_18ConvEvalEP13TfLiteContextP10TfLiteNode+0x386>
   129ea:	00008097          	auipc	ra,0x8
   129ee:	33e080e7          	jalr	830(ra) # 1ad28 <TfLiteTypeGetName>
   129f2:	00892603          	lw	a2,8(s2)
   129f6:	85aa                	mv	a1,a0
   129f8:	00017517          	auipc	a0,0x17
   129fc:	cd050513          	addi	a0,a0,-816 # 296c8 <__extenddftf2+0x169a>
   12a00:	fffff097          	auipc	ra,0xfffff
   12a04:	d6e080e7          	jalr	-658(ra) # 1176e <_Z11MicroPrintfPKcz>
   12a08:	4505                	li	a0,1
   12a0a:	4ac12083          	lw	ra,1196(sp)
   12a0e:	4a812403          	lw	s0,1192(sp)
   12a12:	4a412483          	lw	s1,1188(sp)
   12a16:	4a012903          	lw	s2,1184(sp)
   12a1a:	49c12983          	lw	s3,1180(sp)
   12a1e:	49812a03          	lw	s4,1176(sp)
   12a22:	49412a83          	lw	s5,1172(sp)
   12a26:	4b010113          	addi	sp,sp,1200
   12a2a:	8082                	ret
   12a2c:	57a6                	lw	a5,104(sp)
   12a2e:	1e078f63          	beqz	a5,12c2c <_ZN6tflite12_GLOBAL__N_18ConvEvalEP13TfLiteContextP10TfLiteNode+0x7e6>
   12a32:	4788                	lw	a0,8(a5)
   12a34:	4789                	li	a5,2
   12a36:	1ef50b63          	beq	a0,a5,12c2c <_ZN6tflite12_GLOBAL__N_18ConvEvalEP13TfLiteContextP10TfLiteNode+0x7e6>
   12a3a:	4791                	li	a5,4
   12a3c:	20f519e3          	bne	a0,a5,1344e <_ZN6tflite12_GLOBAL__N_18ConvEvalEP13TfLiteContextP10TfLiteNode+0x1008>
   12a40:	85d6                	mv	a1,s5
   12a42:	07a8                	addi	a0,sp,968
   12a44:	8626                	mv	a2,s1
   12a46:	49812423          	sw	s8,1160(sp)
   12a4a:	00001097          	auipc	ra,0x1
   12a4e:	ebc080e7          	jalr	-324(ra) # 13906 <_ZN6tflite19ConvParamsQuantizedERK16TfLiteConvParamsRKNS_10OpDataConvE>
   12a52:	50dc                	lw	a5,36(s1)
   12a54:	85ca                	mv	a1,s2
   12a56:	0428                	addi	a0,sp,520
   12a58:	0284ac03          	lw	s8,40(s1)
   12a5c:	d53e                	sw	a5,168(sp)
   12a5e:	00003097          	auipc	ra,0x3
   12a62:	c90080e7          	jalr	-880(ra) # 156ee <_ZN6tflite5micro14GetTensorShapeEPK16TfLiteEvalTensor>
   12a66:	2c0904e3          	beqz	s2,1352e <_ZN6tflite12_GLOBAL__N_18ConvEvalEP13TfLiteContextP10TfLiteNode+0x10e8>
   12a6a:	00092783          	lw	a5,0(s2)
   12a6e:	85ce                	mv	a1,s3
   12a70:	1448                	addi	a0,sp,548
   12a72:	c73e                	sw	a5,140(sp)
   12a74:	00003097          	auipc	ra,0x3
   12a78:	c7a080e7          	jalr	-902(ra) # 156ee <_ZN6tflite5micro14GetTensorShapeEPK16TfLiteEvalTensor>
   12a7c:	320981e3          	beqz	s3,1359e <_ZN6tflite12_GLOBAL__N_18ConvEvalEP13TfLiteContextP10TfLiteNode+0x1158>
   12a80:	54a6                	lw	s1,104(sp)
   12a82:	0009a703          	lw	a4,0(s3)
   12a86:	0488                	addi	a0,sp,576
   12a88:	85a6                	mv	a1,s1
   12a8a:	d4ba                	sw	a4,104(sp)
   12a8c:	00003097          	auipc	ra,0x3
   12a90:	c62080e7          	jalr	-926(ra) # 156ee <_ZN6tflite5micro14GetTensorShapeEPK16TfLiteEvalTensor>
   12a94:	4084                	lw	s1,0(s1)
   12a96:	85a2                	mv	a1,s0
   12a98:	0ce8                	addi	a0,sp,604
   12a9a:	cd26                	sw	s1,152(sp)
   12a9c:	00003097          	auipc	ra,0x3
   12aa0:	c52080e7          	jalr	-942(ra) # 156ee <_ZN6tflite5micro14GetTensorShapeEPK16TfLiteEvalTensor>
   12aa4:	2e0401e3          	beqz	s0,13586 <_ZN6tflite12_GLOBAL__N_18ConvEvalEP13TfLiteContextP10TfLiteNode+0x1140>
   12aa8:	4014                	lw	a3,0(s0)
   12aaa:	3f012783          	lw	a5,1008(sp)
   12aae:	3f412703          	lw	a4,1012(sp)
   12ab2:	cf36                	sw	a3,156(sp)
   12ab4:	3d611683          	lh	a3,982(sp)
   12ab8:	49712623          	sw	s7,1164(sp)
   12abc:	d13e                	sw	a5,160(sp)
   12abe:	d736                	sw	a3,172(sp)
   12ac0:	3d811683          	lh	a3,984(sp)
   12ac4:	d33a                	sw	a4,164(sp)
   12ac6:	3d211b83          	lh	s7,978(sp)
   12aca:	ceb6                	sw	a3,92(sp)
   12acc:	3d411983          	lh	s3,980(sp)
   12ad0:	3ca11a03          	lh	s4,970(sp)
   12ad4:	3cc11683          	lh	a3,972(sp)
   12ad8:	28f74de3          	blt	a4,a5,13572 <_ZN6tflite12_GLOBAL__N_18ConvEvalEP13TfLiteContextP10TfLiteNode+0x112c>
   12adc:	20812703          	lw	a4,520(sp)
   12ae0:	4791                	li	a5,4
   12ae2:	26f71ee3          	bne	a4,a5,1355e <_ZN6tflite12_GLOBAL__N_18ConvEvalEP13TfLiteContextP10TfLiteNode+0x1118>
   12ae6:	22412783          	lw	a5,548(sp)
   12aea:	30e794e3          	bne	a5,a4,135f2 <_ZN6tflite12_GLOBAL__N_18ConvEvalEP13TfLiteContextP10TfLiteNode+0x11ac>
   12aee:	25c12703          	lw	a4,604(sp)
   12af2:	2ef716e3          	bne	a4,a5,135de <_ZN6tflite12_GLOBAL__N_18ConvEvalEP13TfLiteContextP10TfLiteNode+0x1198>
   12af6:	20c12403          	lw	s0,524(sp)
   12afa:	26012783          	lw	a5,608(sp)
   12afe:	2cf416e3          	bne	s0,a5,135ca <_ZN6tflite12_GLOBAL__N_18ConvEvalEP13TfLiteContextP10TfLiteNode+0x1184>
   12b02:	22812783          	lw	a5,552(sp)
   12b06:	21812503          	lw	a0,536(sp)
   12b0a:	873e                	mv	a4,a5
   12b0c:	c13e                	sw	a5,128(sp)
   12b0e:	26c12783          	lw	a5,620(sp)
   12b12:	2af712e3          	bne	a4,a5,135b6 <_ZN6tflite12_GLOBAL__N_18ConvEvalEP13TfLiteContextP10TfLiteNode+0x1170>
   12b16:	50048a63          	beqz	s1,1302a <_ZN6tflite12_GLOBAL__N_18ConvEvalEP13TfLiteContextP10TfLiteNode+0xbe4>
   12b1a:	24012703          	lw	a4,576(sp)
   12b1e:	18e05fe3          	blez	a4,134bc <_ZN6tflite12_GLOBAL__N_18ConvEvalEP13TfLiteContextP10TfLiteNode+0x1076>
   12b22:	070a                	slli	a4,a4,0x2
   12b24:	04dc                	addi	a5,sp,580
   12b26:	00e785b3          	add	a1,a5,a4
   12b2a:	4705                	li	a4,1
   12b2c:	4390                	lw	a2,0(a5)
   12b2e:	0791                	addi	a5,a5,4
   12b30:	02c70733          	mul	a4,a4,a2
   12b34:	feb79ce3          	bne	a5,a1,12b2c <_ZN6tflite12_GLOBAL__N_18ConvEvalEP13TfLiteContextP10TfLiteNode+0x6e6>
   12b38:	478a                	lw	a5,128(sp)
   12b3a:	4ee78863          	beq	a5,a4,1302a <_ZN6tflite12_GLOBAL__N_18ConvEvalEP13TfLiteContextP10TfLiteNode+0xbe4>
   12b3e:	49612823          	sw	s6,1168(sp)
   12b42:	49912223          	sw	s9,1156(sp)
   12b46:	49a12023          	sw	s10,1152(sp)
   12b4a:	47b12e23          	sw	s11,1148(sp)
   12b4e:	b9bd                	j	127cc <_ZN6tflite12_GLOBAL__N_18ConvEvalEP13TfLiteContextP10TfLiteNode+0x386>
   12b50:	8626                	mv	a2,s1
   12b52:	85d6                	mv	a1,s5
   12b54:	43810513          	addi	a0,sp,1080
   12b58:	49612823          	sw	s6,1168(sp)
   12b5c:	49712623          	sw	s7,1164(sp)
   12b60:	2e810a13          	addi	s4,sp,744
   12b64:	00001097          	auipc	ra,0x1
   12b68:	da2080e7          	jalr	-606(ra) # 13906 <_ZN6tflite19ConvParamsQuantizedERK16TfLiteConvParamsRKNS_10OpDataConvE>
   12b6c:	85ca                	mv	a1,s2
   12b6e:	8552                	mv	a0,s4
   12b70:	0244ab03          	lw	s6,36(s1)
   12b74:	0284ab83          	lw	s7,40(s1)
   12b78:	00003097          	auipc	ra,0x3
   12b7c:	b76080e7          	jalr	-1162(ra) # 156ee <_ZN6tflite5micro14GetTensorShapeEPK16TfLiteEvalTensor>
   12b80:	49812423          	sw	s8,1160(sp)
   12b84:	480909e3          	beqz	s2,13816 <_ZN6tflite12_GLOBAL__N_18ConvEvalEP13TfLiteContextP10TfLiteNode+0x13d0>
   12b88:	30410a93          	addi	s5,sp,772
   12b8c:	85ce                	mv	a1,s3
   12b8e:	8556                	mv	a0,s5
   12b90:	00092c03          	lw	s8,0(s2)
   12b94:	00003097          	auipc	ra,0x3
   12b98:	b5a080e7          	jalr	-1190(ra) # 156ee <_ZN6tflite5micro14GetTensorShapeEPK16TfLiteEvalTensor>
   12b9c:	460985e3          	beqz	s3,13806 <_ZN6tflite12_GLOBAL__N_18ConvEvalEP13TfLiteContextP10TfLiteNode+0x13c0>
   12ba0:	54a6                	lw	s1,104(sp)
   12ba2:	32010913          	addi	s2,sp,800
   12ba6:	854a                	mv	a0,s2
   12ba8:	85a6                	mv	a1,s1
   12baa:	0009a983          	lw	s3,0(s3)
   12bae:	00003097          	auipc	ra,0x3
   12bb2:	b40080e7          	jalr	-1216(ra) # 156ee <_ZN6tflite5micro14GetTensorShapeEPK16TfLiteEvalTensor>
   12bb6:	c099                	beqz	s1,12bbc <_ZN6tflite12_GLOBAL__N_18ConvEvalEP13TfLiteContextP10TfLiteNode+0x776>
   12bb8:	409c                	lw	a5,0(s1)
   12bba:	d4be                	sw	a5,104(sp)
   12bbc:	1e64                	addi	s1,sp,828
   12bbe:	85a2                	mv	a1,s0
   12bc0:	8526                	mv	a0,s1
   12bc2:	00003097          	auipc	ra,0x3
   12bc6:	b2c080e7          	jalr	-1236(ra) # 156ee <_ZN6tflite5micro14GetTensorShapeEPK16TfLiteEvalTensor>
   12bca:	420406e3          	beqz	s0,137f6 <_ZN6tflite12_GLOBAL__N_18ConvEvalEP13TfLiteContextP10TfLiteNode+0x13b0>
   12bce:	46412e03          	lw	t3,1124(sp)
   12bd2:	00042303          	lw	t1,0(s0)
   12bd6:	45412883          	lw	a7,1108(sp)
   12bda:	c272                	sw	t3,4(sp)
   12bdc:	44c12803          	lw	a6,1100(sp)
   12be0:	44811783          	lh	a5,1096(sp)
   12be4:	44611703          	lh	a4,1094(sp)
   12be8:	44411683          	lh	a3,1092(sp)
   12bec:	44211603          	lh	a2,1090(sp)
   12bf0:	43c11583          	lh	a1,1084(sp)
   12bf4:	43a11503          	lh	a0,1082(sp)
   12bf8:	46012e03          	lw	t3,1120(sp)
   12bfc:	d04a                	sw	s2,32(sp)
   12bfe:	ce4e                	sw	s3,28(sp)
   12c00:	cc56                	sw	s5,24(sp)
   12c02:	ca62                	sw	s8,20(sp)
   12c04:	c852                	sw	s4,16(sp)
   12c06:	c65e                	sw	s7,12(sp)
   12c08:	c45a                	sw	s6,8(sp)
   12c0a:	5426                	lw	s0,104(sp)
   12c0c:	c072                	sw	t3,0(sp)
   12c0e:	d61a                	sw	t1,44(sp)
   12c10:	d426                	sw	s1,40(sp)
   12c12:	d222                	sw	s0,36(sp)
   12c14:	fffff097          	auipc	ra,0xfffff
   12c18:	4a8080e7          	jalr	1192(ra) # 120bc <_ZN6tflite21reference_integer_ops14ConvPerChannelERKNS_10ConvParamsEPKlS5_RKNS_12RuntimeShapeEPKaS8_SA_S8_S5_S8_Pa.isra.0>
   12c1c:	49012b03          	lw	s6,1168(sp)
   12c20:	48c12b83          	lw	s7,1164(sp)
   12c24:	48812c03          	lw	s8,1160(sp)
   12c28:	4501                	li	a0,0
   12c2a:	b3c5                	j	12a0a <_ZN6tflite12_GLOBAL__N_18ConvEvalEP13TfLiteContextP10TfLiteNode+0x5c4>
   12c2c:	85d6                	mv	a1,s5
   12c2e:	0f08                	addi	a0,sp,912
   12c30:	8626                	mv	a2,s1
   12c32:	49612823          	sw	s6,1168(sp)
   12c36:	00001097          	auipc	ra,0x1
   12c3a:	cd0080e7          	jalr	-816(ra) # 13906 <_ZN6tflite19ConvParamsQuantizedERK16TfLiteConvParamsRKNS_10OpDataConvE>
   12c3e:	85ca                	mv	a1,s2
   12c40:	0b28                	addi	a0,sp,408
   12c42:	0244ab03          	lw	s6,36(s1)
   12c46:	0284aa83          	lw	s5,40(s1)
   12c4a:	00003097          	auipc	ra,0x3
   12c4e:	aa4080e7          	jalr	-1372(ra) # 156ee <_ZN6tflite5micro14GetTensorShapeEPK16TfLiteEvalTensor>
   12c52:	360906e3          	beqz	s2,137be <_ZN6tflite12_GLOBAL__N_18ConvEvalEP13TfLiteContextP10TfLiteNode+0x1378>
   12c56:	00092783          	lw	a5,0(s2)
   12c5a:	85ce                	mv	a1,s3
   12c5c:	1b48                	addi	a0,sp,436
   12c5e:	c73e                	sw	a5,140(sp)
   12c60:	00003097          	auipc	ra,0x3
   12c64:	a8e080e7          	jalr	-1394(ra) # 156ee <_ZN6tflite5micro14GetTensorShapeEPK16TfLiteEvalTensor>
   12c68:	32098fe3          	beqz	s3,137a6 <_ZN6tflite12_GLOBAL__N_18ConvEvalEP13TfLiteContextP10TfLiteNode+0x1360>
   12c6c:	54a6                	lw	s1,104(sp)
   12c6e:	0009a703          	lw	a4,0(s3)
   12c72:	0b88                	addi	a0,sp,464
   12c74:	85a6                	mv	a1,s1
   12c76:	ccba                	sw	a4,88(sp)
   12c78:	00003097          	auipc	ra,0x3
   12c7c:	a76080e7          	jalr	-1418(ra) # 156ee <_ZN6tflite5micro14GetTensorShapeEPK16TfLiteEvalTensor>
   12c80:	c099                	beqz	s1,12c86 <_ZN6tflite12_GLOBAL__N_18ConvEvalEP13TfLiteContextP10TfLiteNode+0x840>
   12c82:	409c                	lw	a5,0(s1)
   12c84:	d4be                	sw	a5,104(sp)
   12c86:	85a2                	mv	a1,s0
   12c88:	13e8                	addi	a0,sp,492
   12c8a:	00003097          	auipc	ra,0x3
   12c8e:	a64080e7          	jalr	-1436(ra) # 156ee <_ZN6tflite5micro14GetTensorShapeEPK16TfLiteEvalTensor>
   12c92:	2e040ee3          	beqz	s0,1378e <_ZN6tflite12_GLOBAL__N_18ConvEvalEP13TfLiteContextP10TfLiteNode+0x1348>
   12c96:	4014                	lw	a3,0(s0)
   12c98:	3b812783          	lw	a5,952(sp)
   12c9c:	3bc12703          	lw	a4,956(sp)
   12ca0:	cb36                	sw	a3,148(sp)
   12ca2:	3a011683          	lh	a3,928(sp)
   12ca6:	49812423          	sw	s8,1160(sp)
   12caa:	49912223          	sw	s9,1156(sp)
   12cae:	ceb6                	sw	a3,92(sp)
   12cb0:	cd3e                	sw	a5,152(sp)
   12cb2:	cf3a                	sw	a4,156(sp)
   12cb4:	39a11c83          	lh	s9,922(sp)
   12cb8:	39c11883          	lh	a7,924(sp)
   12cbc:	39e11c03          	lh	s8,926(sp)
   12cc0:	39211683          	lh	a3,914(sp)
   12cc4:	39411983          	lh	s3,916(sp)
   12cc8:	2af74be3          	blt	a4,a5,1377e <_ZN6tflite12_GLOBAL__N_18ConvEvalEP13TfLiteContextP10TfLiteNode+0x1338>
   12ccc:	19812703          	lw	a4,408(sp)
   12cd0:	4791                	li	a5,4
   12cd2:	28f71ee3          	bne	a4,a5,1376e <_ZN6tflite12_GLOBAL__N_18ConvEvalEP13TfLiteContextP10TfLiteNode+0x1328>
   12cd6:	1b412783          	lw	a5,436(sp)
   12cda:	28e792e3          	bne	a5,a4,1375e <_ZN6tflite12_GLOBAL__N_18ConvEvalEP13TfLiteContextP10TfLiteNode+0x1318>
   12cde:	1ec12703          	lw	a4,492(sp)
   12ce2:	26f716e3          	bne	a4,a5,1374e <_ZN6tflite12_GLOBAL__N_18ConvEvalEP13TfLiteContextP10TfLiteNode+0x1308>
   12ce6:	19c12403          	lw	s0,412(sp)
   12cea:	1f012783          	lw	a5,496(sp)
   12cee:	248798e3          	bne	a5,s0,1373e <_ZN6tflite12_GLOBAL__N_18ConvEvalEP13TfLiteContextP10TfLiteNode+0x12f8>
   12cf2:	1b812e03          	lw	t3,440(sp)
   12cf6:	1fc12783          	lw	a5,508(sp)
   12cfa:	1a812503          	lw	a0,424(sp)
   12cfe:	23c798e3          	bne	a5,t3,1372e <_ZN6tflite12_GLOBAL__N_18ConvEvalEP13TfLiteContextP10TfLiteNode+0x12e8>
   12d02:	57a6                	lw	a5,104(sp)
   12d04:	c395                	beqz	a5,12d28 <_ZN6tflite12_GLOBAL__N_18ConvEvalEP13TfLiteContextP10TfLiteNode+0x8e2>
   12d06:	1d012703          	lw	a4,464(sp)
   12d0a:	7ae05163          	blez	a4,134ac <_ZN6tflite12_GLOBAL__N_18ConvEvalEP13TfLiteContextP10TfLiteNode+0x1066>
   12d0e:	070a                	slli	a4,a4,0x2
   12d10:	0bdc                	addi	a5,sp,468
   12d12:	00e785b3          	add	a1,a5,a4
   12d16:	4705                	li	a4,1
   12d18:	4390                	lw	a2,0(a5)
   12d1a:	0791                	addi	a5,a5,4
   12d1c:	02c70733          	mul	a4,a4,a2
   12d20:	feb79ce3          	bne	a5,a1,12d18 <_ZN6tflite12_GLOBAL__N_18ConvEvalEP13TfLiteContextP10TfLiteNode+0x8d2>
   12d24:	14ee19e3          	bne	t3,a4,13676 <_ZN6tflite12_GLOBAL__N_18ConvEvalEP13TfLiteContextP10TfLiteNode+0x1230>
   12d28:	1a012783          	lw	a5,416(sp)
   12d2c:	49a12023          	sw	s10,1152(sp)
   12d30:	1c412d03          	lw	s10,452(sp)
   12d34:	da3e                	sw	a5,52(sp)
   12d36:	1a412783          	lw	a5,420(sp)
   12d3a:	1bc12703          	lw	a4,444(sp)
   12d3e:	49712623          	sw	s7,1164(sp)
   12d42:	c93e                	sw	a5,144(sp)
   12d44:	03a567b3          	rem	a5,a0,s10
   12d48:	caba                	sw	a4,84(sp)
   12d4a:	1c012b83          	lw	s7,448(sp)
   12d4e:	03a54533          	div	a0,a0,s10
   12d52:	7c079263          	bnez	a5,13516 <_ZN6tflite12_GLOBAL__N_18ConvEvalEP13TfLiteContextP10TfLiteNode+0x10d0>
   12d56:	1f412903          	lw	s2,500(sp)
   12d5a:	1f812483          	lw	s1,504(sp)
   12d5e:	4801                	li	a6,0
   12d60:	02ae47b3          	div	a5,t3,a0
   12d64:	c13e                	sw	a5,128(sp)
   12d66:	70805863          	blez	s0,13476 <_ZN6tflite12_GLOBAL__N_18ConvEvalEP13TfLiteContextP10TfLiteNode+0x1030>
   12d6a:	71205363          	blez	s2,13470 <_ZN6tflite12_GLOBAL__N_18ConvEvalEP13TfLiteContextP10TfLiteNode+0x102a>
   12d6e:	40d007b3          	neg	a5,a3
   12d72:	86ea                	mv	a3,s10
   12d74:	47b12e23          	sw	s11,1148(sp)
   12d78:	d166                	sw	s9,160(sp)
   12d7a:	8d62                	mv	s10,s8
   12d7c:	4d91                	li	s11,4
   12d7e:	d346                	sw	a7,164(sp)
   12d80:	8cc2                	mv	s9,a6
   12d82:	c372                	sw	t3,132(sp)
   12d84:	873e                	mv	a4,a5
   12d86:	8c36                	mv	s8,a3
   12d88:	28905363          	blez	s1,1300e <_ZN6tflite12_GLOBAL__N_18ConvEvalEP13TfLiteContextP10TfLiteNode+0xbc8>
   12d8c:	8866                	mv	a6,s9
   12d8e:	d522                	sw	s0,168(sp)
   12d90:	8cde                	mv	s9,s7
   12d92:	41300eb3          	neg	t4,s3
   12d96:	da82                	sw	zero,116(sp)
   12d98:	86da                	mv	a3,s6
   12d9a:	87ce                	mv	a5,s3
   12d9c:	8be2                	mv	s7,s8
   12d9e:	843a                	mv	s0,a4
   12da0:	471a                	lw	a4,132(sp)
   12da2:	d0a2                	sw	s0,96(sp)
   12da4:	4e01                	li	t3,0
   12da6:	24e05663          	blez	a4,12ff2 <_ZN6tflite12_GLOBAL__N_18ConvEvalEP13TfLiteContextP10TfLiteNode+0xbac>
   12daa:	875e                	mv	a4,s7
   12dac:	d922                	sw	s0,176(sp)
   12dae:	8bea                	mv	s7,s10
   12db0:	8b66                	mv	s6,s9
   12db2:	d74a                	sw	s2,172(sp)
   12db4:	8c42                	mv	s8,a6
   12db6:	dcf2                	sw	t3,120(sp)
   12db8:	8436                	mv	s0,a3
   12dba:	8d3a                	mv	s10,a4
   12dbc:	89a2                	mv	s3,s0
   12dbe:	4c81                	li	s9,0
   12dc0:	db22                	sw	s0,180(sp)
   12dc2:	dd56                	sw	s5,184(sp)
   12dc4:	df3e                	sw	a5,188(sp)
   12dc6:	c1a6                	sw	s1,192(sp)
   12dc8:	c576                	sw	t4,136(sp)
   12dca:	d8d6                	sw	s5,112(sp)
   12dcc:	478a                	lw	a5,128(sp)
   12dce:	02fcc5b3          	div	a1,s9,a5
   12dd2:	47d6                	lw	a5,84(sp)
   12dd4:	6af05b63          	blez	a5,1348a <_ZN6tflite12_GLOBAL__N_18ConvEvalEP13TfLiteContextP10TfLiteNode+0x1044>
   12dd8:	1a012283          	lw	t0,416(sp)
   12ddc:	19812783          	lw	a5,408(sp)
   12de0:	1a412f83          	lw	t6,420(sp)
   12de4:	1a812f03          	lw	t5,424(sp)
   12de8:	c4be                	sw	a5,72(sp)
   12dea:	47aa                	lw	a5,136(sp)
   12dec:	1bc12383          	lw	t2,444(sp)
   12df0:	1c012083          	lw	ra,448(sp)
   12df4:	1c412303          	lw	t1,452(sp)
   12df8:	88be                	mv	a7,a5
   12dfa:	19c12403          	lw	s0,412(sp)
   12dfe:	1b412a03          	lw	s4,436(sp)
   12e02:	1b812483          	lw	s1,440(sp)
   12e06:	4501                	li	a0,0
   12e08:	4901                	li	s2,0
   12e0a:	dece                	sw	s3,124(sp)
   12e0c:	03828733          	mul	a4,t0,s8
   12e10:	973e                	add	a4,a4,a5
   12e12:	02bd06b3          	mul	a3,s10,a1
   12e16:	5786                	lw	a5,96(sp)
   12e18:	03f70733          	mul	a4,a4,t6
   12e1c:	00169593          	slli	a1,a3,0x1
   12e20:	c6b6                	sw	a3,76(sp)
   12e22:	46ba                	lw	a3,140(sp)
   12e24:	96ae                	add	a3,a3,a1
   12e26:	c8b6                	sw	a3,80(sp)
   12e28:	46f6                	lw	a3,92(sp)
   12e2a:	03ef8633          	mul	a2,t6,t5
   12e2e:	973e                	add	a4,a4,a5
   12e30:	02608833          	mul	a6,ra,t1
   12e34:	039387b3          	mul	a5,t2,s9
   12e38:	d6c2                	sw	a6,108(sp)
   12e3a:	02d606b3          	mul	a3,a2,a3
   12e3e:	030787b3          	mul	a5,a5,a6
   12e42:	d2b6                	sw	a3,100(sp)
   12e44:	46ca                	lw	a3,144(sp)
   12e46:	03e70633          	mul	a2,a4,t5
   12e4a:	03eb8ab3          	mul	s5,s7,t5
   12e4e:	0d605363          	blez	s6,12f14 <_ZN6tflite12_GLOBAL__N_18ConvEvalEP13TfLiteContextP10TfLiteNode+0xace>
   12e52:	5706                	lw	a4,96(sp)
   12e54:	8eb2                	mv	t4,a2
   12e56:	8e3e                	mv	t3,a5
   12e58:	4581                	li	a1,0
   12e5a:	89de                	mv	s3,s7
   12e5c:	c0be                	sw	a5,64(sp)
   12e5e:	c2b2                	sw	a2,68(sp)
   12e60:	a039                	j	12e6e <_ZN6tflite12_GLOBAL__N_18ConvEvalEP13TfLiteContextP10TfLiteNode+0xa28>
   12e62:	0585                	addi	a1,a1,1
   12e64:	974e                	add	a4,a4,s3
   12e66:	9e1a                	add	t3,t3,t1
   12e68:	9ed6                	add	t4,t4,s5
   12e6a:	0abb0263          	beq	s6,a1,12f0e <_ZN6tflite12_GLOBAL__N_18ConvEvalEP13TfLiteContextP10TfLiteNode+0xac8>
   12e6e:	011767b3          	or	a5,a4,a7
   12e72:	fe07c8e3          	bltz	a5,12e62 <_ZN6tflite12_GLOBAL__N_18ConvEvalEP13TfLiteContextP10TfLiteNode+0xa1c>
   12e76:	fed756e3          	bge	a4,a3,12e62 <_ZN6tflite12_GLOBAL__N_18ConvEvalEP13TfLiteContextP10TfLiteNode+0xa1c>
   12e7a:	57d2                	lw	a5,52(sp)
   12e7c:	fef8d3e3          	bge	a7,a5,12e62 <_ZN6tflite12_GLOBAL__N_18ConvEvalEP13TfLiteContextP10TfLiteNode+0xa1c>
   12e80:	ffa051e3          	blez	s10,12e62 <_ZN6tflite12_GLOBAL__N_18ConvEvalEP13TfLiteContextP10TfLiteNode+0xa1c>
   12e84:	47c6                	lw	a5,80(sp)
   12e86:	001e9813          	slli	a6,t4,0x1
   12e8a:	983e                	add	a6,a6,a5
   12e8c:	47a6                	lw	a5,72(sp)
   12e8e:	93b79fe3          	bne	a5,s11,127cc <_ZN6tflite12_GLOBAL__N_18ConvEvalEP13TfLiteContextP10TfLiteNode+0x386>
   12e92:	4be6                	lw	s7,88(sp)
   12e94:	4636                	lw	a2,76(sp)
   12e96:	4781                	li	a5,0
   12e98:	9bf2                	add	s7,s7,t3
   12e9a:	dc4e                	sw	s3,56(sp)
   12e9c:	de36                	sw	a3,60(sp)
   12e9e:	48041c63          	bnez	s0,13336 <_ZN6tflite12_GLOBAL__N_18ConvEvalEP13TfLiteContextP10TfLiteNode+0xef0>
   12ea2:	920c15e3          	bnez	s8,127cc <_ZN6tflite12_GLOBAL__N_18ConvEvalEP13TfLiteContextP10TfLiteNode+0x386>
   12ea6:	48029c63          	bnez	t0,1333e <_ZN6tflite12_GLOBAL__N_18ConvEvalEP13TfLiteContextP10TfLiteNode+0xef8>
   12eaa:	920891e3          	bnez	a7,127cc <_ZN6tflite12_GLOBAL__N_18ConvEvalEP13TfLiteContextP10TfLiteNode+0x386>
