
gen/riscv32_generic_riscv32-unknown-elf_default_gcc/bin/person_detection:     file format elf32-littleriscv


Disassembly of section .text:

00010094 <exit>:
   10094:	1141                	addi	sp,sp,-16
   10096:	4581                	li	a1,0
   10098:	c422                	sw	s0,8(sp)
   1009a:	c606                	sw	ra,12(sp)
   1009c:	842a                	mv	s0,a0
   1009e:	00007097          	auipc	ra,0x7
   100a2:	846080e7          	jalr	-1978(ra) # 168e4 <__call_exitprocs>
   100a6:	0001e7b7          	lui	a5,0x1e
   100aa:	7347a783          	lw	a5,1844(a5) # 1e734 <__stdio_exit_handler>
   100ae:	c391                	beqz	a5,100b2 <exit+0x1e>
   100b0:	9782                	jalr	a5
   100b2:	8522                	mv	a0,s0
   100b4:	0000a097          	auipc	ra,0xa
   100b8:	eb0080e7          	jalr	-336(ra) # 19f64 <_exit>

000100bc <main>:
   100bc:	1141                	addi	sp,sp,-16
   100be:	c606                	sw	ra,12(sp)
   100c0:	00000097          	auipc	ra,0x0
   100c4:	120080e7          	jalr	288(ra) # 101e0 <loop>
   100c8:	40b2                	lw	ra,12(sp)
   100ca:	4501                	li	a0,0
   100cc:	0141                	addi	sp,sp,16
   100ce:	8082                	ret

000100d0 <register_fini>:
   100d0:	000007b7          	lui	a5,0x0
   100d4:	00078793          	mv	a5,a5
   100d8:	cb89                	beqz	a5,100ea <register_fini+0x1a>
   100da:	0001a537          	lui	a0,0x1a
   100de:	de850513          	addi	a0,a0,-536 # 19de8 <__libc_fini_array>
   100e2:	00003317          	auipc	t1,0x3
   100e6:	ba830067          	jr	-1112(t1) # 12c8a <atexit>
   100ea:	8082                	ret

000100ec <_start>:
   100ec:	0000e197          	auipc	gp,0xe
   100f0:	72418193          	addi	gp,gp,1828 # 1e810 <__global_pointer$>
   100f4:	0000e517          	auipc	a0,0xe
   100f8:	63050513          	addi	a0,a0,1584 # 1e724 <_ZN12_GLOBAL__N_15inputE>
   100fc:	0000f617          	auipc	a2,0xf
   10100:	96060613          	addi	a2,a2,-1696 # 1ea5c <__BSS_END__>
   10104:	8e09                	sub	a2,a2,a0
   10106:	4581                	li	a1,0
   10108:	00006097          	auipc	ra,0x6
   1010c:	41e080e7          	jalr	1054(ra) # 16526 <memset>
   10110:	00003517          	auipc	a0,0x3
   10114:	b7a50513          	addi	a0,a0,-1158 # 12c8a <atexit>
   10118:	c909                	beqz	a0,1012a <_start+0x3e>
   1011a:	0000a517          	auipc	a0,0xa
   1011e:	cce50513          	addi	a0,a0,-818 # 19de8 <__libc_fini_array>
   10122:	00003097          	auipc	ra,0x3
   10126:	b68080e7          	jalr	-1176(ra) # 12c8a <atexit>
   1012a:	00006097          	auipc	ra,0x6
   1012e:	2be080e7          	jalr	702(ra) # 163e8 <__libc_init_array>
   10132:	4502                	lw	a0,0(sp)
   10134:	004c                	addi	a1,sp,4
   10136:	4601                	li	a2,0
   10138:	00000097          	auipc	ra,0x0
   1013c:	f84080e7          	jalr	-124(ra) # 100bc <main>
   10140:	00000317          	auipc	t1,0x0
   10144:	f5430067          	jr	-172(t1) # 10094 <exit>

00010148 <__do_global_dtors_aux>:
   10148:	1141                	addi	sp,sp,-16
   1014a:	c422                	sw	s0,8(sp)
   1014c:	0001e437          	lui	s0,0x1e
   10150:	75044783          	lbu	a5,1872(s0) # 1e750 <completed.1>
   10154:	c606                	sw	ra,12(sp)
   10156:	e38d                	bnez	a5,10178 <__do_global_dtors_aux+0x30>
   10158:	000007b7          	lui	a5,0x0
   1015c:	00078793          	mv	a5,a5
   10160:	cb89                	beqz	a5,10172 <__do_global_dtors_aux+0x2a>
   10162:	0001e537          	lui	a0,0x1e
   10166:	00050513          	mv	a0,a0
   1016a:	00000097          	auipc	ra,0x0
   1016e:	000000e7          	jalr	zero # 0 <exit-0x10094>
   10172:	4785                	li	a5,1
   10174:	74f40823          	sb	a5,1872(s0)
   10178:	40b2                	lw	ra,12(sp)
   1017a:	4422                	lw	s0,8(sp)
   1017c:	0141                	addi	sp,sp,16
   1017e:	8082                	ret

00010180 <frame_dummy>:
   10180:	000007b7          	lui	a5,0x0
   10184:	00078793          	mv	a5,a5
   10188:	cf89                	beqz	a5,101a2 <frame_dummy+0x22>
   1018a:	0001e5b7          	lui	a1,0x1e
   1018e:	0001e537          	lui	a0,0x1e
   10192:	75458593          	addi	a1,a1,1876 # 1e754 <object.0>
   10196:	00050513          	mv	a0,a0
   1019a:	00000317          	auipc	t1,0x0
   1019e:	00000067          	jr	zero # 0 <exit-0x10094>
   101a2:	8082                	ret

000101a4 <_Z18RespondToDetectionaa>:
   101a4:	862e                	mv	a2,a1
   101a6:	85aa                	mv	a1,a0
   101a8:	0000c517          	auipc	a0,0xc
   101ac:	f3850513          	addi	a0,a0,-200 # 1c0e0 <__extenddftf2+0x17c>
   101b0:	00001317          	auipc	t1,0x1
   101b4:	cdc30067          	jr	-804(t1) # 10e8c <_Z11MicroPrintfPKcz>

000101b8 <_Z8GetImageiiiPa>:
   101b8:	87aa                	mv	a5,a0
   101ba:	02b787b3          	mul	a5,a5,a1
   101be:	1141                	addi	sp,sp,-16
   101c0:	c606                	sw	ra,12(sp)
   101c2:	8536                	mv	a0,a3
   101c4:	02c78633          	mul	a2,a5,a2
   101c8:	00065363          	bgez	a2,101ce <_Z8GetImageiiiPa+0x16>
   101cc:	4601                	li	a2,0
   101ce:	4581                	li	a1,0
   101d0:	00006097          	auipc	ra,0x6
   101d4:	356080e7          	jalr	854(ra) # 16526 <memset>
   101d8:	40b2                	lw	ra,12(sp)
   101da:	4501                	li	a0,0
   101dc:	0141                	addi	sp,sp,16
   101de:	8082                	ret

000101e0 <loop>:
   101e0:	0000e797          	auipc	a5,0xe
   101e4:	5447a783          	lw	a5,1348(a5) # 1e724 <_ZN12_GLOBAL__N_15inputE>
   101e8:	1141                	addi	sp,sp,-16
   101ea:	4605                	li	a2,1
   101ec:	4b94                	lw	a3,16(a5)
   101ee:	06000593          	li	a1,96
   101f2:	06000513          	li	a0,96
   101f6:	c606                	sw	ra,12(sp)
   101f8:	00000097          	auipc	ra,0x0
   101fc:	fc0080e7          	jalr	-64(ra) # 101b8 <_Z8GetImageiiiPa>
   10200:	c909                	beqz	a0,10212 <loop+0x32>
   10202:	0000c517          	auipc	a0,0xc
   10206:	f0250513          	addi	a0,a0,-254 # 1c104 <__extenddftf2+0x1a0>
   1020a:	00001097          	auipc	ra,0x1
   1020e:	c82080e7          	jalr	-894(ra) # 10e8c <_Z11MicroPrintfPKcz>
   10212:	0000e797          	auipc	a5,0xe
   10216:	5167a503          	lw	a0,1302(a5) # 1e728 <_ZN12_GLOBAL__N_111interpreterE>
   1021a:	00000097          	auipc	ra,0x0
   1021e:	738080e7          	jalr	1848(ra) # 10952 <_ZN6tflite16MicroInterpreter6InvokeEv>
   10222:	c909                	beqz	a0,10234 <loop+0x54>
   10224:	0000c517          	auipc	a0,0xc
   10228:	ef850513          	addi	a0,a0,-264 # 1c11c <__extenddftf2+0x1b8>
   1022c:	00001097          	auipc	ra,0x1
   10230:	c60080e7          	jalr	-928(ra) # 10e8c <_Z11MicroPrintfPKcz>
   10234:	0000e797          	auipc	a5,0xe
   10238:	4f47a503          	lw	a0,1268(a5) # 1e728 <_ZN12_GLOBAL__N_111interpreterE>
   1023c:	4581                	li	a1,0
   1023e:	00000097          	auipc	ra,0x0
   10242:	164080e7          	jalr	356(ra) # 103a2 <_ZN6tflite16MicroInterpreter6outputEj>
   10246:	491c                	lw	a5,16(a0)
   10248:	40b2                	lw	ra,12(sp)
   1024a:	00078583          	lb	a1,0(a5)
   1024e:	00178503          	lb	a0,1(a5)
   10252:	0141                	addi	sp,sp,16
   10254:	00000317          	auipc	t1,0x0
   10258:	f5030067          	jr	-176(t1) # 101a4 <_Z18RespondToDetectionaa>

0001025c <_ZNK11flatbuffers5Table22GetOptionalFieldOffsetEt>:
   1025c:	411c                	lw	a5,0(a0)
   1025e:	8d1d                	sub	a0,a0,a5
   10260:	00055783          	lhu	a5,0(a0)
   10264:	00f5f663          	bgeu	a1,a5,10270 <_ZNK11flatbuffers5Table22GetOptionalFieldOffsetEt+0x14>
   10268:	952e                	add	a0,a0,a1
   1026a:	00055503          	lhu	a0,0(a0)
   1026e:	8082                	ret
   10270:	4501                	li	a0,0
   10272:	8082                	ret

00010274 <_ZN6tflite23EnumNameBuiltinOperatorENS_15BuiltinOperatorE>:
   10274:	0ce00793          	li	a5,206
   10278:	00a7ea63          	bltu	a5,a0,1028c <_ZN6tflite23EnumNameBuiltinOperatorENS_15BuiltinOperatorE+0x18>
   1027c:	0000d797          	auipc	a5,0xd
   10280:	2a878793          	addi	a5,a5,680 # 1d524 <_ZZN6tflite24EnumNamesBuiltinOperatorEvE5names>
   10284:	050a                	slli	a0,a0,0x2
   10286:	953e                	add	a0,a0,a5
   10288:	4108                	lw	a0,0(a0)
   1028a:	8082                	ret
   1028c:	0000c517          	auipc	a0,0xc
   10290:	1f450513          	addi	a0,a0,500 # 1c480 <__extenddftf2+0x51c>
   10294:	8082                	ret

00010296 <_ZNK6tflite5Model9subgraphsEv>:
   10296:	1141                	addi	sp,sp,-16
   10298:	45a1                	li	a1,8
   1029a:	c422                	sw	s0,8(sp)
   1029c:	c606                	sw	ra,12(sp)
   1029e:	842a                	mv	s0,a0
   102a0:	00000097          	auipc	ra,0x0
   102a4:	fbc080e7          	jalr	-68(ra) # 1025c <_ZNK11flatbuffers5Table22GetOptionalFieldOffsetEt>
   102a8:	c901                	beqz	a0,102b8 <_ZNK6tflite5Model9subgraphsEv+0x22>
   102aa:	9522                	add	a0,a0,s0
   102ac:	411c                	lw	a5,0(a0)
   102ae:	953e                	add	a0,a0,a5
   102b0:	40b2                	lw	ra,12(sp)
   102b2:	4422                	lw	s0,8(sp)
   102b4:	0141                	addi	sp,sp,16
   102b6:	8082                	ret
   102b8:	4501                	li	a0,0
   102ba:	bfdd                	j	102b0 <_ZNK6tflite5Model9subgraphsEv+0x1a>

000102bc <_ZNK11flatbuffers6VectorIlmE3GetEm>:
   102bc:	411c                	lw	a5,0(a0)
   102be:	02f5e663          	bltu	a1,a5,102ea <_ZNK11flatbuffers6VectorIlmE3GetEm+0x2e>
   102c2:	0000c697          	auipc	a3,0xc
   102c6:	0000c617          	auipc	a2,0xc
   102ca:	0000c517          	auipc	a0,0xc
   102ce:	1141                	addi	sp,sp,-16
   102d0:	e6a68693          	addi	a3,a3,-406 # 1c12c <__extenddftf2+0x1c8>
   102d4:	e7260613          	addi	a2,a2,-398 # 1c138 <__extenddftf2+0x1d4>
   102d8:	0b000593          	li	a1,176
   102dc:	f1250513          	addi	a0,a0,-238 # 1c1dc <__extenddftf2+0x278>
   102e0:	c606                	sw	ra,12(sp)
   102e2:	00003097          	auipc	ra,0x3
   102e6:	95a080e7          	jalr	-1702(ra) # 12c3c <__assert_func>
   102ea:	0585                	addi	a1,a1,1
   102ec:	058a                	slli	a1,a1,0x2
   102ee:	952e                	add	a0,a0,a1
   102f0:	4108                	lw	a0,0(a0)
   102f2:	8082                	ret

000102f4 <_ZNK11flatbuffers6VectorINS_6OffsetIN6tflite8SubGraphEEEmE3GetEm>:
   102f4:	411c                	lw	a5,0(a0)
   102f6:	02f5e663          	bltu	a1,a5,10322 <_ZNK11flatbuffers6VectorINS_6OffsetIN6tflite8SubGraphEEEmE3GetEm+0x2e>
   102fa:	0000c697          	auipc	a3,0xc
   102fe:	0000c617          	auipc	a2,0xc
   10302:	0000c517          	auipc	a0,0xc
   10306:	1141                	addi	sp,sp,-16
   10308:	e3268693          	addi	a3,a3,-462 # 1c12c <__extenddftf2+0x1c8>
   1030c:	f3260613          	addi	a2,a2,-206 # 1c230 <__extenddftf2+0x2cc>
   10310:	0b000593          	li	a1,176
   10314:	eda50513          	addi	a0,a0,-294 # 1c1dc <__extenddftf2+0x278>
   10318:	c606                	sw	ra,12(sp)
   1031a:	00003097          	auipc	ra,0x3
   1031e:	922080e7          	jalr	-1758(ra) # 12c3c <__assert_func>
   10322:	0585                	addi	a1,a1,1
   10324:	058a                	slli	a1,a1,0x2
   10326:	952e                	add	a0,a0,a1
   10328:	411c                	lw	a5,0(a0)
   1032a:	953e                	add	a0,a0,a5
   1032c:	8082                	ret

0001032e <_ZN11flatbuffers5Table10GetPointerIPKNS_6VectorIlmEEmEET_t>:
   1032e:	1141                	addi	sp,sp,-16
   10330:	c422                	sw	s0,8(sp)
   10332:	c606                	sw	ra,12(sp)
   10334:	842a                	mv	s0,a0
   10336:	00000097          	auipc	ra,0x0
   1033a:	f26080e7          	jalr	-218(ra) # 1025c <_ZNK11flatbuffers5Table22GetOptionalFieldOffsetEt>
   1033e:	c901                	beqz	a0,1034e <_ZN11flatbuffers5Table10GetPointerIPKNS_6VectorIlmEEmEET_t+0x20>
   10340:	9522                	add	a0,a0,s0
   10342:	411c                	lw	a5,0(a0)
   10344:	953e                	add	a0,a0,a5
   10346:	40b2                	lw	ra,12(sp)
   10348:	4422                	lw	s0,8(sp)
   1034a:	0141                	addi	sp,sp,16
   1034c:	8082                	ret
   1034e:	4501                	li	a0,0
   10350:	bfdd                	j	10346 <_ZN11flatbuffers5Table10GetPointerIPKNS_6VectorIlmEEmEET_t+0x18>

00010352 <_ZNK6tflite16MicroInterpreter11inputs_sizeEv.isra.0>:
   10352:	1141                	addi	sp,sp,-16
   10354:	c606                	sw	ra,12(sp)
   10356:	00000097          	auipc	ra,0x0
   1035a:	f40080e7          	jalr	-192(ra) # 10296 <_ZNK6tflite5Model9subgraphsEv>
   1035e:	4581                	li	a1,0
   10360:	00000097          	auipc	ra,0x0
   10364:	f94080e7          	jalr	-108(ra) # 102f4 <_ZNK11flatbuffers6VectorINS_6OffsetIN6tflite8SubGraphEEEmE3GetEm>
   10368:	4599                	li	a1,6
   1036a:	00000097          	auipc	ra,0x0
   1036e:	fc4080e7          	jalr	-60(ra) # 1032e <_ZN11flatbuffers5Table10GetPointerIPKNS_6VectorIlmEEmEET_t>
   10372:	40b2                	lw	ra,12(sp)
   10374:	4108                	lw	a0,0(a0)
   10376:	0141                	addi	sp,sp,16
   10378:	8082                	ret

0001037a <_ZNK6tflite16MicroInterpreter12outputs_sizeEv.isra.0>:
   1037a:	1141                	addi	sp,sp,-16
   1037c:	c606                	sw	ra,12(sp)
   1037e:	00000097          	auipc	ra,0x0
   10382:	f18080e7          	jalr	-232(ra) # 10296 <_ZNK6tflite5Model9subgraphsEv>
   10386:	4581                	li	a1,0
   10388:	00000097          	auipc	ra,0x0
   1038c:	f6c080e7          	jalr	-148(ra) # 102f4 <_ZNK11flatbuffers6VectorINS_6OffsetIN6tflite8SubGraphEEEmE3GetEm>
   10390:	45a1                	li	a1,8
   10392:	00000097          	auipc	ra,0x0
   10396:	f9c080e7          	jalr	-100(ra) # 1032e <_ZN11flatbuffers5Table10GetPointerIPKNS_6VectorIlmEEmEET_t>
   1039a:	40b2                	lw	ra,12(sp)
   1039c:	4108                	lw	a0,0(a0)
   1039e:	0141                	addi	sp,sp,16
   103a0:	8082                	ret

000103a2 <_ZN6tflite16MicroInterpreter6outputEj>:
   103a2:	1101                	addi	sp,sp,-32
   103a4:	cc22                	sw	s0,24(sp)
   103a6:	842a                	mv	s0,a0
   103a8:	4108                	lw	a0,0(a0)
   103aa:	c62e                	sw	a1,12(sp)
   103ac:	ce06                	sw	ra,28(sp)
   103ae:	00000097          	auipc	ra,0x0
   103b2:	fcc080e7          	jalr	-52(ra) # 1037a <_ZNK6tflite16MicroInterpreter12outputs_sizeEv.isra.0>
   103b6:	45b2                	lw	a1,12(sp)
   103b8:	02a5e063          	bltu	a1,a0,103d8 <_ZN6tflite16MicroInterpreter6outputEj+0x36>
   103bc:	862a                	mv	a2,a0
   103be:	0000c517          	auipc	a0,0xc
   103c2:	f4250513          	addi	a0,a0,-190 # 1c300 <__extenddftf2+0x39c>
   103c6:	00001097          	auipc	ra,0x1
   103ca:	ac6080e7          	jalr	-1338(ra) # 10e8c <_Z11MicroPrintfPKcz>
   103ce:	4501                	li	a0,0
   103d0:	40f2                	lw	ra,28(sp)
   103d2:	4462                	lw	s0,24(sp)
   103d4:	6105                	addi	sp,sp,32
   103d6:	8082                	ret
   103d8:	0a442783          	lw	a5,164(s0)
   103dc:	058a                	slli	a1,a1,0x2
   103de:	97ae                	add	a5,a5,a1
   103e0:	4388                	lw	a0,0(a5)
   103e2:	b7fd                	j	103d0 <_ZN6tflite16MicroInterpreter6outputEj+0x2e>

000103e4 <_ZN6tflite16MicroInterpreter44PrepareNodeAndRegistrationDataFromFlatbufferEv>:
   103e4:	7159                	addi	sp,sp,-112
   103e6:	07050793          	addi	a5,a0,112
   103ea:	d2a6                	sw	s1,100(sp)
   103ec:	c8da                	sw	s6,80(sp)
   103ee:	de6e                	sw	s11,60(sp)
   103f0:	d686                	sw	ra,108(sp)
   103f2:	d4a2                	sw	s0,104(sp)
   103f4:	d0ca                	sw	s2,96(sp)
   103f6:	cece                	sw	s3,92(sp)
   103f8:	ccd2                	sw	s4,88(sp)
   103fa:	cad6                	sw	s5,84(sp)
   103fc:	c6de                	sw	s7,76(sp)
   103fe:	c4e2                	sw	s8,72(sp)
   10400:	c2e6                	sw	s9,68(sp)
   10402:	c0ea                	sw	s10,64(sp)
   10404:	84aa                	mv	s1,a0
   10406:	4b01                	li	s6,0
   10408:	c83e                	sw	a5,16(sp)
   1040a:	02000d93          	li	s11,32
   1040e:	4542                	lw	a0,16(sp)
   10410:	00000097          	auipc	ra,0x0
   10414:	7aa080e7          	jalr	1962(ra) # 10bba <_ZN6tflite21MicroInterpreterGraph12NumSubgraphsEv>
   10418:	00ab4463          	blt	s6,a0,10420 <_ZN6tflite16MicroInterpreter44PrepareNodeAndRegistrationDataFromFlatbufferEv+0x3c>
   1041c:	4501                	li	a0,0
   1041e:	a291                	j	10562 <_ZN6tflite16MicroInterpreter44PrepareNodeAndRegistrationDataFromFlatbufferEv+0x17e>
   10420:	4080                	lw	s0,0(s1)
   10422:	8522                	mv	a0,s0
   10424:	00000097          	auipc	ra,0x0
   10428:	e72080e7          	jalr	-398(ra) # 10296 <_ZNK6tflite5Model9subgraphsEv>
   1042c:	85da                	mv	a1,s6
   1042e:	00000097          	auipc	ra,0x0
   10432:	ec6080e7          	jalr	-314(ra) # 102f4 <_ZNK11flatbuffers6VectorINS_6OffsetIN6tflite8SubGraphEEEmE3GetEm>
   10436:	8a2a                	mv	s4,a0
   10438:	e911                	bnez	a0,1044c <_ZN6tflite16MicroInterpreter44PrepareNodeAndRegistrationDataFromFlatbufferEv+0x68>
   1043a:	0000c517          	auipc	a0,0xc
   1043e:	ef250513          	addi	a0,a0,-270 # 1c32c <__extenddftf2+0x3c8>
   10442:	00001097          	auipc	ra,0x1
   10446:	a4a080e7          	jalr	-1462(ra) # 10e8c <_Z11MicroPrintfPKcz>
   1044a:	a001                	j	1044a <_ZN6tflite16MicroInterpreter44PrepareNodeAndRegistrationDataFromFlatbufferEv+0x66>
   1044c:	4599                	li	a1,6
   1044e:	8522                	mv	a0,s0
   10450:	00000097          	auipc	ra,0x0
   10454:	e0c080e7          	jalr	-500(ra) # 1025c <_ZNK11flatbuffers5Table22GetOptionalFieldOffsetEt>
   10458:	4b81                	li	s7,0
   1045a:	c509                	beqz	a0,10464 <_ZN6tflite16MicroInterpreter44PrepareNodeAndRegistrationDataFromFlatbufferEv+0x80>
   1045c:	942a                	add	s0,s0,a0
   1045e:	00042b83          	lw	s7,0(s0)
   10462:	9ba2                	add	s7,s7,s0
   10464:	54e8                	lw	a0,108(s1)
   10466:	003b1d13          	slli	s10,s6,0x3
   1046a:	4981                	li	s3,0
   1046c:	00001097          	auipc	ra,0x1
   10470:	f44080e7          	jalr	-188(ra) # 113b0 <_ZN6tflite14MicroAllocator23GetBuiltinDataAllocatorEv>
   10474:	c62a                	sw	a0,12(sp)
   10476:	8552                	mv	a0,s4
   10478:	00001097          	auipc	ra,0x1
   1047c:	c34080e7          	jalr	-972(ra) # 110ac <_ZN6tflite20NumSubgraphOperatorsEPKNS_8SubGraphE>
   10480:	8caa                	mv	s9,a0
   10482:	01999463          	bne	s3,s9,1048a <_ZN6tflite16MicroInterpreter44PrepareNodeAndRegistrationDataFromFlatbufferEv+0xa6>
   10486:	0b05                	addi	s6,s6,1
   10488:	b759                	j	1040e <_ZN6tflite16MicroInterpreter44PrepareNodeAndRegistrationDataFromFlatbufferEv+0x2a>
   1048a:	45a9                	li	a1,10
   1048c:	8552                	mv	a0,s4
   1048e:	00000097          	auipc	ra,0x0
   10492:	dce080e7          	jalr	-562(ra) # 1025c <_ZNK11flatbuffers5Table22GetOptionalFieldOffsetEt>
   10496:	4401                	li	s0,0
   10498:	c501                	beqz	a0,104a0 <_ZN6tflite16MicroInterpreter44PrepareNodeAndRegistrationDataFromFlatbufferEv+0xbc>
   1049a:	9552                	add	a0,a0,s4
   1049c:	4100                	lw	s0,0(a0)
   1049e:	942a                	add	s0,s0,a0
   104a0:	401c                	lw	a5,0(s0)
   104a2:	02f9e463          	bltu	s3,a5,104ca <_ZN6tflite16MicroInterpreter44PrepareNodeAndRegistrationDataFromFlatbufferEv+0xe6>
   104a6:	0000c697          	auipc	a3,0xc
   104aa:	0000c617          	auipc	a2,0xc
   104ae:	0000c517          	auipc	a0,0xc
   104b2:	c8668693          	addi	a3,a3,-890 # 1c12c <__extenddftf2+0x1c8>
   104b6:	e8a60613          	addi	a2,a2,-374 # 1c334 <__extenddftf2+0x3d0>
   104ba:	0b000593          	li	a1,176
   104be:	d2e50513          	addi	a0,a0,-722 # 1c1dc <__extenddftf2+0x278>
   104c2:	00002097          	auipc	ra,0x2
   104c6:	77a080e7          	jalr	1914(ra) # 12c3c <__assert_func>
   104ca:	0985                	addi	s3,s3,1
   104cc:	00299793          	slli	a5,s3,0x2
   104d0:	943e                	add	s0,s0,a5
   104d2:	401c                	lw	a5,0(s0)
   104d4:	4591                	li	a1,4
   104d6:	943e                	add	s0,s0,a5
   104d8:	8522                	mv	a0,s0
   104da:	00000097          	auipc	ra,0x0
   104de:	d82080e7          	jalr	-638(ra) # 1025c <_ZNK11flatbuffers5Table22GetOptionalFieldOffsetEt>
   104e2:	4781                	li	a5,0
   104e4:	c119                	beqz	a0,104ea <_ZN6tflite16MicroInterpreter44PrepareNodeAndRegistrationDataFromFlatbufferEv+0x106>
   104e6:	9522                	add	a0,a0,s0
   104e8:	411c                	lw	a5,0(a0)
   104ea:	000ba703          	lw	a4,0(s7)
   104ee:	00e7ed63          	bltu	a5,a4,10508 <_ZN6tflite16MicroInterpreter44PrepareNodeAndRegistrationDataFromFlatbufferEv+0x124>
   104f2:	0000c517          	auipc	a0,0xc
   104f6:	85be                	mv	a1,a5
   104f8:	f1250513          	addi	a0,a0,-238 # 1c404 <__extenddftf2+0x4a0>
   104fc:	00001097          	auipc	ra,0x1
   10500:	990080e7          	jalr	-1648(ra) # 10e8c <_Z11MicroPrintfPKcz>
   10504:	4505                	li	a0,1
   10506:	a8b1                	j	10562 <_ZN6tflite16MicroInterpreter44PrepareNodeAndRegistrationDataFromFlatbufferEv+0x17e>
   10508:	00178913          	addi	s2,a5,1
   1050c:	090a                	slli	s2,s2,0x2
   1050e:	995e                	add	s2,s2,s7
   10510:	00092703          	lw	a4,0(s2)
   10514:	00599c13          	slli	s8,s3,0x5
   10518:	40cc                	lw	a1,4(s1)
   1051a:	993a                	add	s2,s2,a4
   1051c:	0804a703          	lw	a4,128(s1)
   10520:	1c01                	addi	s8,s8,-32
   10522:	854a                	mv	a0,s2
   10524:	976a                	add	a4,a4,s10
   10526:	4310                	lw	a2,0(a4)
   10528:	ca3e                	sw	a5,20(sp)
   1052a:	9662                	add	a2,a2,s8
   1052c:	0671                	addi	a2,a2,28
   1052e:	00001097          	auipc	ra,0x1
   10532:	982080e7          	jalr	-1662(ra) # 10eb0 <_ZN6tflite25GetRegistrationFromOpCodeEPKNS_12OperatorCodeERKNS_15MicroOpResolverEPPK16TFLMRegistration>
   10536:	47d2                	lw	a5,20(sp)
   10538:	8aaa                	mv	s5,a0
   1053a:	c139                	beqz	a0,10580 <_ZN6tflite16MicroInterpreter44PrepareNodeAndRegistrationDataFromFlatbufferEv+0x19c>
   1053c:	854a                	mv	a0,s2
   1053e:	00001097          	auipc	ra,0x1
   10542:	b00080e7          	jalr	-1280(ra) # 1103e <_ZN6tflite14GetBuiltinCodeEPKNS_12OperatorCodeE>
   10546:	00000097          	auipc	ra,0x0
   1054a:	d2e080e7          	jalr	-722(ra) # 10274 <_ZN6tflite23EnumNameBuiltinOperatorENS_15BuiltinOperatorE>
   1054e:	85aa                	mv	a1,a0
   10550:	0000c517          	auipc	a0,0xc
   10554:	ee050513          	addi	a0,a0,-288 # 1c430 <__extenddftf2+0x4cc>
   10558:	00001097          	auipc	ra,0x1
   1055c:	934080e7          	jalr	-1740(ra) # 10e8c <_Z11MicroPrintfPKcz>
   10560:	8556                	mv	a0,s5
   10562:	50b6                	lw	ra,108(sp)
   10564:	5426                	lw	s0,104(sp)
   10566:	5496                	lw	s1,100(sp)
   10568:	5906                	lw	s2,96(sp)
   1056a:	49f6                	lw	s3,92(sp)
   1056c:	4a66                	lw	s4,88(sp)
   1056e:	4ad6                	lw	s5,84(sp)
   10570:	4b46                	lw	s6,80(sp)
   10572:	4bb6                	lw	s7,76(sp)
   10574:	4c26                	lw	s8,72(sp)
   10576:	4c96                	lw	s9,68(sp)
   10578:	4d06                	lw	s10,64(sp)
   1057a:	5df2                	lw	s11,60(sp)
   1057c:	6165                	addi	sp,sp,112
   1057e:	8082                	ret
   10580:	0804a703          	lw	a4,128(s1)
   10584:	976a                	add	a4,a4,s10
   10586:	4318                	lw	a4,0(a4)
   10588:	9762                	add	a4,a4,s8
   1058a:	4f58                	lw	a4,28(a4)
   1058c:	e719                	bnez	a4,1059a <_ZN6tflite16MicroInterpreter44PrepareNodeAndRegistrationDataFromFlatbufferEv+0x1b6>
   1058e:	0000c517          	auipc	a0,0xc
   10592:	85be                	mv	a1,a5
   10594:	ed250513          	addi	a0,a0,-302 # 1c460 <__extenddftf2+0x4fc>
   10598:	b795                	j	104fc <_ZN6tflite16MicroInterpreter44PrepareNodeAndRegistrationDataFromFlatbufferEv+0x118>
   1059a:	01472903          	lw	s2,20(a4)
   1059e:	d602                	sw	zero,44(sp)
   105a0:	45b9                	li	a1,14
   105a2:	8522                	mv	a0,s0
   105a4:	0bb91563          	bne	s2,s11,1064e <_ZN6tflite16MicroInterpreter44PrepareNodeAndRegistrationDataFromFlatbufferEv+0x26a>
   105a8:	00000097          	auipc	ra,0x0
   105ac:	cb4080e7          	jalr	-844(ra) # 1025c <_ZNK11flatbuffers5Table22GetOptionalFieldOffsetEt>
   105b0:	e551                	bnez	a0,1063c <_ZN6tflite16MicroInterpreter44PrepareNodeAndRegistrationDataFromFlatbufferEv+0x258>
   105b2:	4801                	li	a6,0
   105b4:	4599                	li	a1,6
   105b6:	8522                	mv	a0,s0
   105b8:	ce42                	sw	a6,28(sp)
   105ba:	00000097          	auipc	ra,0x0
   105be:	d74080e7          	jalr	-652(ra) # 1032e <_ZN11flatbuffers5Table10GetPointerIPKNS_6VectorIlmEEmEET_t>
   105c2:	00001097          	auipc	ra,0x1
   105c6:	b72080e7          	jalr	-1166(ra) # 11134 <_ZN6tflite33FlatBufferVectorToTfLiteTypeArrayEPKN11flatbuffers6VectorIlmEE>
   105ca:	45a1                	li	a1,8
   105cc:	cc2a                	sw	a0,24(sp)
   105ce:	8522                	mv	a0,s0
   105d0:	00000097          	auipc	ra,0x0
   105d4:	d5e080e7          	jalr	-674(ra) # 1032e <_ZN11flatbuffers5Table10GetPointerIPKNS_6VectorIlmEEmEET_t>
   105d8:	00001097          	auipc	ra,0x1
   105dc:	b5c080e7          	jalr	-1188(ra) # 11134 <_ZN6tflite33FlatBufferVectorToTfLiteTypeArrayEPKN11flatbuffers6VectorIlmEE>
   105e0:	0804a683          	lw	a3,128(s1)
   105e4:	ca2a                	sw	a0,20(sp)
   105e6:	4581                	li	a1,0
   105e8:	96ea                	add	a3,a3,s10
   105ea:	0006a903          	lw	s2,0(a3)
   105ee:	4671                	li	a2,28
   105f0:	9962                	add	s2,s2,s8
   105f2:	854a                	mv	a0,s2
   105f4:	00006097          	auipc	ra,0x6
   105f8:	f32080e7          	jalr	-206(ra) # 16526 <memset>
   105fc:	47d2                	lw	a5,20(sp)
   105fe:	4762                	lw	a4,24(sp)
   10600:	4872                	lw	a6,28(sp)
   10602:	00f92223          	sw	a5,4(s2)
   10606:	57b2                	lw	a5,44(sp)
   10608:	00e92023          	sw	a4,0(s2)
   1060c:	01092a23          	sw	a6,20(s2)
   10610:	00f92823          	sw	a5,16(s2)
   10614:	01592c23          	sw	s5,24(s2)
   10618:	45d1                	li	a1,20
   1061a:	8522                	mv	a0,s0
   1061c:	00000097          	auipc	ra,0x0
   10620:	d12080e7          	jalr	-750(ra) # 1032e <_ZN11flatbuffers5Table10GetPointerIPKNS_6VectorIlmEEmEET_t>
   10624:	e4050fe3          	beqz	a0,10482 <_ZN6tflite16MicroInterpreter44PrepareNodeAndRegistrationDataFromFlatbufferEv+0x9e>
   10628:	411c                	lw	a5,0(a0)
   1062a:	e4078ce3          	beqz	a5,10482 <_ZN6tflite16MicroInterpreter44PrepareNodeAndRegistrationDataFromFlatbufferEv+0x9e>
   1062e:	00001097          	auipc	ra,0x1
   10632:	b06080e7          	jalr	-1274(ra) # 11134 <_ZN6tflite33FlatBufferVectorToTfLiteTypeArrayEPKN11flatbuffers6VectorIlmEE>
   10636:	00a92423          	sw	a0,8(s2)
   1063a:	b5a1                	j	10482 <_ZN6tflite16MicroInterpreter44PrepareNodeAndRegistrationDataFromFlatbufferEv+0x9e>
   1063c:	9522                	add	a0,a0,s0
   1063e:	411c                	lw	a5,0(a0)
   10640:	953e                	add	a0,a0,a5
   10642:	d925                	beqz	a0,105b2 <_ZN6tflite16MicroInterpreter44PrepareNodeAndRegistrationDataFromFlatbufferEv+0x1ce>
   10644:	00052a83          	lw	s5,0(a0)
   10648:	00450813          	addi	a6,a0,4
   1064c:	b7a5                	j	105b4 <_ZN6tflite16MicroInterpreter44PrepareNodeAndRegistrationDataFromFlatbufferEv+0x1d0>
   1064e:	00000097          	auipc	ra,0x0
   10652:	c0e080e7          	jalr	-1010(ra) # 1025c <_ZNK11flatbuffers5Table22GetOptionalFieldOffsetEt>
   10656:	c105                	beqz	a0,10676 <_ZN6tflite16MicroInterpreter44PrepareNodeAndRegistrationDataFromFlatbufferEv+0x292>
   10658:	9522                	add	a0,a0,s0
   1065a:	411c                	lw	a5,0(a0)
   1065c:	953e                	add	a0,a0,a5
   1065e:	cd01                	beqz	a0,10676 <_ZN6tflite16MicroInterpreter44PrepareNodeAndRegistrationDataFromFlatbufferEv+0x292>
   10660:	854a                	mv	a0,s2
   10662:	00000097          	auipc	ra,0x0
   10666:	c12080e7          	jalr	-1006(ra) # 10274 <_ZN6tflite23EnumNameBuiltinOperatorENS_15BuiltinOperatorE>
   1066a:	85aa                	mv	a1,a0
   1066c:	0000c517          	auipc	a0,0xc
   10670:	e1850513          	addi	a0,a0,-488 # 1c484 <__extenddftf2+0x520>
   10674:	b561                	j	104fc <_ZN6tflite16MicroInterpreter44PrepareNodeAndRegistrationDataFromFlatbufferEv+0x118>
   10676:	40c8                	lw	a0,4(s1)
   10678:	85ca                	mv	a1,s2
   1067a:	411c                	lw	a5,0(a0)
   1067c:	479c                	lw	a5,8(a5)
   1067e:	9782                	jalr	a5
   10680:	ed01                	bnez	a0,10698 <_ZN6tflite16MicroInterpreter44PrepareNodeAndRegistrationDataFromFlatbufferEv+0x2b4>
   10682:	854a                	mv	a0,s2
   10684:	00000097          	auipc	ra,0x0
   10688:	bf0080e7          	jalr	-1040(ra) # 10274 <_ZN6tflite23EnumNameBuiltinOperatorENS_15BuiltinOperatorE>
   1068c:	85aa                	mv	a1,a0
   1068e:	0000c517          	auipc	a0,0xc
   10692:	e3e50513          	addi	a0,a0,-450 # 1c4cc <__extenddftf2+0x568>
   10696:	b59d                	j	104fc <_ZN6tflite16MicroInterpreter44PrepareNodeAndRegistrationDataFromFlatbufferEv+0x118>
   10698:	4632                	lw	a2,12(sp)
   1069a:	1074                	addi	a3,sp,44
   1069c:	85a2                	mv	a1,s0
   1069e:	00001097          	auipc	ra,0x1
   106a2:	926080e7          	jalr	-1754(ra) # 10fc4 <_ZN6tflite24CallBuiltinParseFunctionEPF12TfLiteStatusPKNS_8OperatorEPNS_13ErrorReporterEPNS_20BuiltinDataAllocatorEPPvES3_S7_S9_>
   106a6:	d511                	beqz	a0,105b2 <_ZN6tflite16MicroInterpreter44PrepareNodeAndRegistrationDataFromFlatbufferEv+0x1ce>
   106a8:	bd6d                	j	10562 <_ZN6tflite16MicroInterpreter44PrepareNodeAndRegistrationDataFromFlatbufferEv+0x17e>

000106aa <_ZN6tflite16MicroInterpreter5ResetEv>:
   106aa:	1141                	addi	sp,sp,-16
   106ac:	c422                	sw	s0,8(sp)
   106ae:	07050413          	addi	s0,a0,112
   106b2:	8522                	mv	a0,s0
   106b4:	c606                	sw	ra,12(sp)
   106b6:	00000097          	auipc	ra,0x0
   106ba:	3a2080e7          	jalr	930(ra) # 10a58 <_ZN6tflite21MicroInterpreterGraph14ResetSubgraphsEv>
   106be:	e909                	bnez	a0,106d0 <_ZN6tflite16MicroInterpreter5ResetEv+0x26>
   106c0:	8522                	mv	a0,s0
   106c2:	4422                	lw	s0,8(sp)
   106c4:	40b2                	lw	ra,12(sp)
   106c6:	0141                	addi	sp,sp,16
   106c8:	00000317          	auipc	t1,0x0
   106cc:	62a30067          	jr	1578(t1) # 10cf2 <_ZN6tflite21MicroInterpreterGraph20ResetVariableTensorsEv>
   106d0:	40b2                	lw	ra,12(sp)
   106d2:	4422                	lw	s0,8(sp)
   106d4:	0141                	addi	sp,sp,16
   106d6:	8082                	ret

000106d8 <_ZN6tflite16MicroInterpreter15AllocateTensorsEv>:
   106d8:	7139                	addi	sp,sp,-64
   106da:	dc22                	sw	s0,56(sp)
   106dc:	410c                	lw	a1,0(a0)
   106de:	842a                	mv	s0,a0
   106e0:	5568                	lw	a0,108(a0)
   106e2:	de06                	sw	ra,60(sp)
   106e4:	da26                	sw	s1,52(sp)
   106e6:	d84a                	sw	s2,48(sp)
   106e8:	d64e                	sw	s3,44(sp)
   106ea:	d452                	sw	s4,40(sp)
   106ec:	d256                	sw	s5,36(sp)
   106ee:	d05a                	sw	s6,32(sp)
   106f0:	ce5e                	sw	s7,28(sp)
   106f2:	cc62                	sw	s8,24(sp)
   106f4:	00001097          	auipc	ra,0x1
   106f8:	b9c080e7          	jalr	-1124(ra) # 11290 <_ZN6tflite14MicroAllocator20StartModelAllocationEPKNS_5ModelE>
   106fc:	e915                	bnez	a0,10730 <_ZN6tflite16MicroInterpreter15AllocateTensorsEv+0x58>
   106fe:	0000c517          	auipc	a0,0xc
   10702:	dee50513          	addi	a0,a0,-530 # 1c4ec <__extenddftf2+0x588>
   10706:	00000097          	auipc	ra,0x0
   1070a:	786080e7          	jalr	1926(ra) # 10e8c <_Z11MicroPrintfPKcz>
   1070e:	4785                	li	a5,1
   10710:	08f42c23          	sw	a5,152(s0)
   10714:	4485                	li	s1,1
   10716:	50f2                	lw	ra,60(sp)
   10718:	5462                	lw	s0,56(sp)
   1071a:	5942                	lw	s2,48(sp)
   1071c:	59b2                	lw	s3,44(sp)
   1071e:	5a22                	lw	s4,40(sp)
   10720:	5a92                	lw	s5,36(sp)
   10722:	5b02                	lw	s6,32(sp)
   10724:	4bf2                	lw	s7,28(sp)
   10726:	4c62                	lw	s8,24(sp)
   10728:	8526                	mv	a0,s1
   1072a:	54d2                	lw	s1,52(sp)
   1072c:	6121                	addi	sp,sp,64
   1072e:	8082                	ret
   10730:	07040913          	addi	s2,s0,112
   10734:	85aa                	mv	a1,a0
   10736:	854a                	mv	a0,s2
   10738:	00000097          	auipc	ra,0x0
   1073c:	5b6080e7          	jalr	1462(ra) # 10cee <_ZN6tflite21MicroInterpreterGraph22SetSubgraphAllocationsEPNS_19SubgraphAllocationsE>
   10740:	8522                	mv	a0,s0
   10742:	00000097          	auipc	ra,0x0
   10746:	ca2080e7          	jalr	-862(ra) # 103e4 <_ZN6tflite16MicroInterpreter44PrepareNodeAndRegistrationDataFromFlatbufferEv>
   1074a:	84aa                	mv	s1,a0
   1074c:	f569                	bnez	a0,10716 <_ZN6tflite16MicroInterpreter15AllocateTensorsEv+0x3e>
   1074e:	0a840993          	addi	s3,s0,168
   10752:	4581                	li	a1,0
   10754:	854e                	mv	a0,s3
   10756:	00000097          	auipc	ra,0x0
   1075a:	264080e7          	jalr	612(ra) # 109ba <_ZN6tflite23MicroInterpreterContext19SetInterpreterStateENS0_16InterpreterStateE>
   1075e:	854a                	mv	a0,s2
   10760:	00000097          	auipc	ra,0x0
   10764:	25e080e7          	jalr	606(ra) # 109be <_ZN6tflite21MicroInterpreterGraph13InitSubgraphsEv>
   10768:	84aa                	mv	s1,a0
   1076a:	f555                	bnez	a0,10716 <_ZN6tflite16MicroInterpreter15AllocateTensorsEv+0x3e>
   1076c:	4585                	li	a1,1
   1076e:	854e                	mv	a0,s3
   10770:	00000097          	auipc	ra,0x0
   10774:	24a080e7          	jalr	586(ra) # 109ba <_ZN6tflite23MicroInterpreterContext19SetInterpreterStateENS0_16InterpreterStateE>
   10778:	854a                	mv	a0,s2
   1077a:	00000097          	auipc	ra,0x0
   1077e:	38a080e7          	jalr	906(ra) # 10b04 <_ZN6tflite21MicroInterpreterGraph16PrepareSubgraphsEv>
   10782:	84aa                	mv	s1,a0
   10784:	f949                	bnez	a0,10716 <_ZN6tflite16MicroInterpreter15AllocateTensorsEv+0x3e>
   10786:	4589                	li	a1,2
   10788:	854e                	mv	a0,s3
   1078a:	00000097          	auipc	ra,0x0
   1078e:	230080e7          	jalr	560(ra) # 109ba <_ZN6tflite23MicroInterpreterContext19SetInterpreterStateENS0_16InterpreterStateE>
   10792:	08042603          	lw	a2,128(s0)
   10796:	400c                	lw	a1,0(s0)
   10798:	5468                	lw	a0,108(s0)
   1079a:	09c40693          	addi	a3,s0,156
   1079e:	00001097          	auipc	ra,0x1
   107a2:	a6e080e7          	jalr	-1426(ra) # 1120c <_ZN6tflite14MicroAllocator21FinishModelAllocationEPKNS_5ModelEPNS_19SubgraphAllocationsEPPNS_19ScratchBufferHandleE>
   107a6:	84aa                	mv	s1,a0
   107a8:	f53d                	bnez	a0,10716 <_ZN6tflite16MicroInterpreter15AllocateTensorsEv+0x3e>
   107aa:	09c42583          	lw	a1,156(s0)
   107ae:	854e                	mv	a0,s3
   107b0:	00000097          	auipc	ra,0x0
   107b4:	206080e7          	jalr	518(ra) # 109b6 <_ZN6tflite23MicroInterpreterContext23SetScratchBufferHandlesEPNS_19ScratchBufferHandleE>
   107b8:	06c42903          	lw	s2,108(s0)
   107bc:	4008                	lw	a0,0(s0)
   107be:	00092783          	lw	a5,0(s2)
   107c2:	01c7aa03          	lw	s4,28(a5)
   107c6:	00000097          	auipc	ra,0x0
   107ca:	b8c080e7          	jalr	-1140(ra) # 10352 <_ZNK6tflite16MicroInterpreter11inputs_sizeEv.isra.0>
   107ce:	00251593          	slli	a1,a0,0x2
   107d2:	854a                	mv	a0,s2
   107d4:	9a02                	jalr	s4
   107d6:	0aa42023          	sw	a0,160(s0)
   107da:	4901                	li	s2,0
   107dc:	e159                	bnez	a0,10862 <_ZN6tflite16MicroInterpreter15AllocateTensorsEv+0x18a>
   107de:	4008                	lw	a0,0(s0)
   107e0:	00000097          	auipc	ra,0x0
   107e4:	b72080e7          	jalr	-1166(ra) # 10352 <_ZNK6tflite16MicroInterpreter11inputs_sizeEv.isra.0>
   107e8:	00251593          	slli	a1,a0,0x2
   107ec:	0000c517          	auipc	a0,0xc
   107f0:	d2450513          	addi	a0,a0,-732 # 1c510 <__extenddftf2+0x5ac>
   107f4:	00000097          	auipc	ra,0x0
   107f8:	698080e7          	jalr	1688(ra) # 10e8c <_Z11MicroPrintfPKcz>
   107fc:	bf21                	j	10714 <_ZN6tflite16MicroInterpreter15AllocateTensorsEv+0x3c>
   107fe:	08042603          	lw	a2,128(s0)
   10802:	8556                	mv	a0,s5
   10804:	0007ac03          	lw	s8,0(a5)
   10808:	c632                	sw	a2,12(sp)
   1080a:	00000097          	auipc	ra,0x0
   1080e:	a8c080e7          	jalr	-1396(ra) # 10296 <_ZNK6tflite5Model9subgraphsEv>
   10812:	4581                	li	a1,0
   10814:	00000097          	auipc	ra,0x0
   10818:	ae0080e7          	jalr	-1312(ra) # 102f4 <_ZNK11flatbuffers6VectorINS_6OffsetIN6tflite8SubGraphEEEmE3GetEm>
   1081c:	4599                	li	a1,6
   1081e:	00000097          	auipc	ra,0x0
   10822:	b10080e7          	jalr	-1264(ra) # 1032e <_ZN11flatbuffers5Table10GetPointerIPKNS_6VectorIlmEEmEET_t>
   10826:	85ca                	mv	a1,s2
   10828:	00000097          	auipc	ra,0x0
   1082c:	a94080e7          	jalr	-1388(ra) # 102bc <_ZNK11flatbuffers6VectorIlmE3GetEm>
   10830:	4632                	lw	a2,12(sp)
   10832:	86aa                	mv	a3,a0
   10834:	4701                	li	a4,0
   10836:	85d6                	mv	a1,s5
   10838:	8552                	mv	a0,s4
   1083a:	0a042b83          	lw	s7,160(s0)
   1083e:	9c02                	jalr	s8
   10840:	0a042783          	lw	a5,160(s0)
   10844:	00291b13          	slli	s6,s2,0x2
   10848:	9bda                	add	s7,s7,s6
   1084a:	00aba023          	sw	a0,0(s7)
   1084e:	97da                	add	a5,a5,s6
   10850:	439c                	lw	a5,0(a5)
   10852:	e799                	bnez	a5,10860 <_ZN6tflite16MicroInterpreter15AllocateTensorsEv+0x188>
   10854:	0000c517          	auipc	a0,0xc
   10858:	85ca                	mv	a1,s2
   1085a:	d0850513          	addi	a0,a0,-760 # 1c55c <__extenddftf2+0x5f8>
   1085e:	bf59                	j	107f4 <_ZN6tflite16MicroInterpreter15AllocateTensorsEv+0x11c>
   10860:	0905                	addi	s2,s2,1
   10862:	00042a83          	lw	s5,0(s0)
   10866:	8556                	mv	a0,s5
   10868:	00000097          	auipc	ra,0x0
   1086c:	aea080e7          	jalr	-1302(ra) # 10352 <_ZNK6tflite16MicroInterpreter11inputs_sizeEv.isra.0>
   10870:	06c42a03          	lw	s4,108(s0)
   10874:	000a2783          	lw	a5,0(s4)
   10878:	f8a963e3          	bltu	s2,a0,107fe <_ZN6tflite16MicroInterpreter15AllocateTensorsEv+0x126>
   1087c:	01c7a903          	lw	s2,28(a5)
   10880:	8556                	mv	a0,s5
   10882:	00000097          	auipc	ra,0x0
   10886:	af8080e7          	jalr	-1288(ra) # 1037a <_ZNK6tflite16MicroInterpreter12outputs_sizeEv.isra.0>
   1088a:	00251593          	slli	a1,a0,0x2
   1088e:	8552                	mv	a0,s4
   10890:	9902                	jalr	s2
   10892:	0aa42223          	sw	a0,164(s0)
   10896:	e159                	bnez	a0,1091c <_ZN6tflite16MicroInterpreter15AllocateTensorsEv+0x244>
   10898:	4008                	lw	a0,0(s0)
   1089a:	00000097          	auipc	ra,0x0
   1089e:	ae0080e7          	jalr	-1312(ra) # 1037a <_ZNK6tflite16MicroInterpreter12outputs_sizeEv.isra.0>
   108a2:	00251593          	slli	a1,a0,0x2
   108a6:	0000c517          	auipc	a0,0xc
   108aa:	cde50513          	addi	a0,a0,-802 # 1c584 <__extenddftf2+0x620>
   108ae:	b799                	j	107f4 <_ZN6tflite16MicroInterpreter15AllocateTensorsEv+0x11c>
   108b0:	06c42b83          	lw	s7,108(s0)
   108b4:	08042603          	lw	a2,128(s0)
   108b8:	8552                	mv	a0,s4
   108ba:	000ba783          	lw	a5,0(s7)
   108be:	c632                	sw	a2,12(sp)
   108c0:	00249913          	slli	s2,s1,0x2
   108c4:	0007ac03          	lw	s8,0(a5)
   108c8:	00000097          	auipc	ra,0x0
   108cc:	9ce080e7          	jalr	-1586(ra) # 10296 <_ZNK6tflite5Model9subgraphsEv>
   108d0:	4581                	li	a1,0
   108d2:	00000097          	auipc	ra,0x0
   108d6:	a22080e7          	jalr	-1502(ra) # 102f4 <_ZNK11flatbuffers6VectorINS_6OffsetIN6tflite8SubGraphEEEmE3GetEm>
   108da:	45a1                	li	a1,8
   108dc:	00000097          	auipc	ra,0x0
   108e0:	a52080e7          	jalr	-1454(ra) # 1032e <_ZN11flatbuffers5Table10GetPointerIPKNS_6VectorIlmEEmEET_t>
   108e4:	85a6                	mv	a1,s1
   108e6:	00000097          	auipc	ra,0x0
   108ea:	9d6080e7          	jalr	-1578(ra) # 102bc <_ZNK11flatbuffers6VectorIlmE3GetEm>
   108ee:	4632                	lw	a2,12(sp)
   108f0:	86aa                	mv	a3,a0
   108f2:	4701                	li	a4,0
   108f4:	85d2                	mv	a1,s4
   108f6:	855e                	mv	a0,s7
   108f8:	0a442b03          	lw	s6,164(s0)
   108fc:	9c02                	jalr	s8
   108fe:	0a442783          	lw	a5,164(s0)
   10902:	9b4a                	add	s6,s6,s2
   10904:	00ab2023          	sw	a0,0(s6)
   10908:	97ca                	add	a5,a5,s2
   1090a:	439c                	lw	a5,0(a5)
   1090c:	e799                	bnez	a5,1091a <_ZN6tflite16MicroInterpreter15AllocateTensorsEv+0x242>
   1090e:	0000c517          	auipc	a0,0xc
   10912:	85a6                	mv	a1,s1
   10914:	cc250513          	addi	a0,a0,-830 # 1c5d0 <__extenddftf2+0x66c>
   10918:	bdf1                	j	107f4 <_ZN6tflite16MicroInterpreter15AllocateTensorsEv+0x11c>
   1091a:	0485                	addi	s1,s1,1
   1091c:	00042a03          	lw	s4,0(s0)
   10920:	8552                	mv	a0,s4
   10922:	00000097          	auipc	ra,0x0
   10926:	a58080e7          	jalr	-1448(ra) # 1037a <_ZNK6tflite16MicroInterpreter12outputs_sizeEv.isra.0>
   1092a:	f8a4e3e3          	bltu	s1,a0,108b0 <_ZN6tflite16MicroInterpreter15AllocateTensorsEv+0x1d8>
   1092e:	8522                	mv	a0,s0
   10930:	00000097          	auipc	ra,0x0
   10934:	d7a080e7          	jalr	-646(ra) # 106aa <_ZN6tflite16MicroInterpreter5ResetEv>
   10938:	84aa                	mv	s1,a0
   1093a:	dc051ee3          	bnez	a0,10716 <_ZN6tflite16MicroInterpreter15AllocateTensorsEv+0x3e>
   1093e:	4785                	li	a5,1
   10940:	08f40a23          	sb	a5,148(s0)
   10944:	458d                	li	a1,3
   10946:	854e                	mv	a0,s3
   10948:	00000097          	auipc	ra,0x0
   1094c:	072080e7          	jalr	114(ra) # 109ba <_ZN6tflite23MicroInterpreterContext19SetInterpreterStateENS0_16InterpreterStateE>
   10950:	b3d9                	j	10716 <_ZN6tflite16MicroInterpreter15AllocateTensorsEv+0x3e>

00010952 <_ZN6tflite16MicroInterpreter6InvokeEv>:
   10952:	09852783          	lw	a5,152(a0)
   10956:	1141                	addi	sp,sp,-16
   10958:	c606                	sw	ra,12(sp)
   1095a:	c422                	sw	s0,8(sp)
   1095c:	cf91                	beqz	a5,10978 <_ZN6tflite16MicroInterpreter6InvokeEv+0x26>
   1095e:	0000c517          	auipc	a0,0xc
   10962:	c9a50513          	addi	a0,a0,-870 # 1c5f8 <__extenddftf2+0x694>
   10966:	00000097          	auipc	ra,0x0
   1096a:	526080e7          	jalr	1318(ra) # 10e8c <_Z11MicroPrintfPKcz>
   1096e:	4505                	li	a0,1
   10970:	40b2                	lw	ra,12(sp)
   10972:	4422                	lw	s0,8(sp)
   10974:	0141                	addi	sp,sp,16
   10976:	8082                	ret
   10978:	09454783          	lbu	a5,148(a0)
   1097c:	842a                	mv	s0,a0
   1097e:	cb99                	beqz	a5,10994 <_ZN6tflite16MicroInterpreter6InvokeEv+0x42>
   10980:	07040513          	addi	a0,s0,112
   10984:	4422                	lw	s0,8(sp)
   10986:	40b2                	lw	ra,12(sp)
   10988:	4581                	li	a1,0
   1098a:	0141                	addi	sp,sp,16
   1098c:	00000317          	auipc	t1,0x0
   10990:	25430067          	jr	596(t1) # 10be0 <_ZN6tflite21MicroInterpreterGraph14InvokeSubgraphEi>
   10994:	00000097          	auipc	ra,0x0
   10998:	d44080e7          	jalr	-700(ra) # 106d8 <_ZN6tflite16MicroInterpreter15AllocateTensorsEv>
   1099c:	d175                	beqz	a0,10980 <_ZN6tflite16MicroInterpreter6InvokeEv+0x2e>
   1099e:	bfc9                	j	10970 <_ZN6tflite16MicroInterpreter6InvokeEv+0x1e>

000109a0 <_Z9AbortImplv>:
   109a0:	0000c517          	auipc	a0,0xc
   109a4:	1141                	addi	sp,sp,-16
   109a6:	98c50513          	addi	a0,a0,-1652 # 1c32c <__extenddftf2+0x3c8>
   109aa:	c606                	sw	ra,12(sp)
   109ac:	00000097          	auipc	ra,0x0
   109b0:	4e0080e7          	jalr	1248(ra) # 10e8c <_Z11MicroPrintfPKcz>
   109b4:	a001                	j	109b4 <_Z9AbortImplv+0x14>

000109b6 <_ZN6tflite23MicroInterpreterContext23SetScratchBufferHandlesEPNS_19ScratchBufferHandleE>:
   109b6:	c94c                	sw	a1,20(a0)
   109b8:	8082                	ret

000109ba <_ZN6tflite23MicroInterpreterContext19SetInterpreterStateENS0_16InterpreterStateE>:
   109ba:	c90c                	sw	a1,16(a0)
   109bc:	8082                	ret

000109be <_ZN6tflite21MicroInterpreterGraph13InitSubgraphsEv>:
   109be:	7179                	addi	sp,sp,-48
   109c0:	cc52                	sw	s4,24(sp)
   109c2:	ca56                	sw	s5,20(sp)
   109c4:	01852a03          	lw	s4,24(a0)
   109c8:	01452a83          	lw	s5,20(a0)
   109cc:	d422                	sw	s0,40(sp)
   109ce:	d04a                	sw	s2,32(sp)
   109d0:	c85a                	sw	s6,16(sp)
   109d2:	d606                	sw	ra,44(sp)
   109d4:	d226                	sw	s1,36(sp)
   109d6:	ce4e                	sw	s3,28(sp)
   109d8:	c65e                	sw	s7,12(sp)
   109da:	842a                	mv	s0,a0
   109dc:	4901                	li	s2,0
   109de:	02000b13          	li	s6,32
   109e2:	501c                	lw	a5,32(s0)
   109e4:	439c                	lw	a5,0(a5)
   109e6:	02f96263          	bltu	s2,a5,10a0a <_ZN6tflite21MicroInterpreterGraph13InitSubgraphsEv+0x4c>
   109ea:	01542a23          	sw	s5,20(s0)
   109ee:	01442c23          	sw	s4,24(s0)
   109f2:	50b2                	lw	ra,44(sp)
   109f4:	5422                	lw	s0,40(sp)
   109f6:	5492                	lw	s1,36(sp)
   109f8:	5902                	lw	s2,32(sp)
   109fa:	49f2                	lw	s3,28(sp)
   109fc:	4a62                	lw	s4,24(sp)
   109fe:	4ad2                	lw	s5,20(sp)
   10a00:	4b42                	lw	s6,16(sp)
   10a02:	4bb2                	lw	s7,12(sp)
   10a04:	4501                	li	a0,0
   10a06:	6145                	addi	sp,sp,48
   10a08:	8082                	ret
   10a0a:	4408                	lw	a0,8(s0)
   10a0c:	01242a23          	sw	s2,20(s0)
   10a10:	85ca                	mv	a1,s2
   10a12:	00000097          	auipc	ra,0x0
   10a16:	6c4080e7          	jalr	1732(ra) # 110d6 <_ZN6tflite20NumSubgraphOperatorsEPKNS_5ModelEi>
   10a1a:	89aa                	mv	s3,a0
   10a1c:	00391b93          	slli	s7,s2,0x3
   10a20:	4781                	li	a5,0
   10a22:	cc1c                	sw	a5,24(s0)
   10a24:	0137e463          	bltu	a5,s3,10a2c <_ZN6tflite21MicroInterpreterGraph13InitSubgraphsEv+0x6e>
   10a28:	0905                	addi	s2,s2,1
   10a2a:	bf65                	j	109e2 <_ZN6tflite21MicroInterpreterGraph13InitSubgraphsEv+0x24>
   10a2c:	4818                	lw	a4,16(s0)
   10a2e:	0796                	slli	a5,a5,0x5
   10a30:	975e                	add	a4,a4,s7
   10a32:	4304                	lw	s1,0(a4)
   10a34:	94be                	add	s1,s1,a5
   10a36:	4cdc                	lw	a5,28(s1)
   10a38:	4bd8                	lw	a4,20(a5)
   10a3a:	01671c63          	bne	a4,s6,10a52 <_ZN6tflite21MicroInterpreterGraph13InitSubgraphsEv+0x94>
   10a3e:	48cc                	lw	a1,20(s1)
   10a40:	4c90                	lw	a2,24(s1)
   10a42:	439c                	lw	a5,0(a5)
   10a44:	c781                	beqz	a5,10a4c <_ZN6tflite21MicroInterpreterGraph13InitSubgraphsEv+0x8e>
   10a46:	4048                	lw	a0,4(s0)
   10a48:	9782                	jalr	a5
   10a4a:	c4c8                	sw	a0,12(s1)
   10a4c:	4c1c                	lw	a5,24(s0)
   10a4e:	0785                	addi	a5,a5,1
   10a50:	bfc9                	j	10a22 <_ZN6tflite21MicroInterpreterGraph13InitSubgraphsEv+0x64>
   10a52:	488c                	lw	a1,16(s1)
   10a54:	4601                	li	a2,0
   10a56:	b7f5                	j	10a42 <_ZN6tflite21MicroInterpreterGraph13InitSubgraphsEv+0x84>

00010a58 <_ZN6tflite21MicroInterpreterGraph14ResetSubgraphsEv>:
   10a58:	1101                	addi	sp,sp,-32
   10a5a:	c64e                	sw	s3,12(sp)
   10a5c:	c452                	sw	s4,8(sp)
   10a5e:	01852983          	lw	s3,24(a0)
   10a62:	01452a03          	lw	s4,20(a0)
   10a66:	cc22                	sw	s0,24(sp)
   10a68:	ca26                	sw	s1,20(sp)
   10a6a:	ce06                	sw	ra,28(sp)
   10a6c:	c84a                	sw	s2,16(sp)
   10a6e:	c256                	sw	s5,4(sp)
   10a70:	842a                	mv	s0,a0
   10a72:	4481                	li	s1,0
   10a74:	501c                	lw	a5,32(s0)
   10a76:	439c                	lw	a5,0(a5)
   10a78:	02f4e063          	bltu	s1,a5,10a98 <_ZN6tflite21MicroInterpreterGraph14ResetSubgraphsEv+0x40>
   10a7c:	01442a23          	sw	s4,20(s0)
   10a80:	01342c23          	sw	s3,24(s0)
   10a84:	40f2                	lw	ra,28(sp)
   10a86:	4462                	lw	s0,24(sp)
   10a88:	44d2                	lw	s1,20(sp)
   10a8a:	4942                	lw	s2,16(sp)
   10a8c:	49b2                	lw	s3,12(sp)
   10a8e:	4a22                	lw	s4,8(sp)
   10a90:	4a92                	lw	s5,4(sp)
   10a92:	4501                	li	a0,0
   10a94:	6105                	addi	sp,sp,32
   10a96:	8082                	ret
   10a98:	4408                	lw	a0,8(s0)
   10a9a:	c844                	sw	s1,20(s0)
   10a9c:	85a6                	mv	a1,s1
   10a9e:	00000097          	auipc	ra,0x0
   10aa2:	638080e7          	jalr	1592(ra) # 110d6 <_ZN6tflite20NumSubgraphOperatorsEPKNS_5ModelEi>
   10aa6:	892a                	mv	s2,a0
   10aa8:	00349a93          	slli	s5,s1,0x3
   10aac:	4781                	li	a5,0
   10aae:	cc1c                	sw	a5,24(s0)
   10ab0:	0127e463          	bltu	a5,s2,10ab8 <_ZN6tflite21MicroInterpreterGraph14ResetSubgraphsEv+0x60>
   10ab4:	0485                	addi	s1,s1,1
   10ab6:	bf7d                	j	10a74 <_ZN6tflite21MicroInterpreterGraph14ResetSubgraphsEv+0x1c>
   10ab8:	4818                	lw	a4,16(s0)
   10aba:	0796                	slli	a5,a5,0x5
   10abc:	9756                	add	a4,a4,s5
   10abe:	4318                	lw	a4,0(a4)
   10ac0:	97ba                	add	a5,a5,a4
   10ac2:	4fd8                	lw	a4,28(a5)
   10ac4:	c711                	beqz	a4,10ad0 <_ZN6tflite21MicroInterpreterGraph14ResetSubgraphsEv+0x78>
   10ac6:	4b18                	lw	a4,16(a4)
   10ac8:	c701                	beqz	a4,10ad0 <_ZN6tflite21MicroInterpreterGraph14ResetSubgraphsEv+0x78>
   10aca:	47cc                	lw	a1,12(a5)
   10acc:	4048                	lw	a0,4(s0)
   10ace:	9702                	jalr	a4
   10ad0:	4c1c                	lw	a5,24(s0)
   10ad2:	0785                	addi	a5,a5,1
   10ad4:	bfe9                	j	10aae <_ZN6tflite21MicroInterpreterGraph14ResetSubgraphsEv+0x56>

00010ad6 <_ZN6tflite12_GLOBAL__N_122OpNameFromRegistrationEPK16TFLMRegistration>:
   10ad6:	495c                	lw	a5,20(a0)
   10ad8:	02000713          	li	a4,32
   10adc:	00e79463          	bne	a5,a4,10ae4 <_ZN6tflite12_GLOBAL__N_122OpNameFromRegistrationEPK16TFLMRegistration+0xe>
   10ae0:	4d08                	lw	a0,24(a0)
   10ae2:	8082                	ret
   10ae4:	0000c517          	auipc	a0,0xc
   10ae8:	0ce00713          	li	a4,206
   10aec:	99c50513          	addi	a0,a0,-1636 # 1c480 <__extenddftf2+0x51c>
   10af0:	00f76963          	bltu	a4,a5,10b02 <_ZN6tflite12_GLOBAL__N_122OpNameFromRegistrationEPK16TFLMRegistration+0x2c>
   10af4:	0000d717          	auipc	a4,0xd
   10af8:	078a                	slli	a5,a5,0x2
   10afa:	a3070713          	addi	a4,a4,-1488 # 1d524 <_ZZN6tflite24EnumNamesBuiltinOperatorEvE5names>
   10afe:	97ba                	add	a5,a5,a4
   10b00:	4388                	lw	a0,0(a5)
   10b02:	8082                	ret

00010b04 <_ZN6tflite21MicroInterpreterGraph16PrepareSubgraphsEv>:
   10b04:	7179                	addi	sp,sp,-48
   10b06:	ce4e                	sw	s3,28(sp)
   10b08:	cc52                	sw	s4,24(sp)
   10b0a:	01852983          	lw	s3,24(a0)
   10b0e:	01452a03          	lw	s4,20(a0)
   10b12:	d422                	sw	s0,40(sp)
   10b14:	d226                	sw	s1,36(sp)
   10b16:	d606                	sw	ra,44(sp)
   10b18:	d04a                	sw	s2,32(sp)
   10b1a:	ca56                	sw	s5,20(sp)
   10b1c:	c85a                	sw	s6,16(sp)
   10b1e:	842a                	mv	s0,a0
   10b20:	4481                	li	s1,0
   10b22:	501c                	lw	a5,32(s0)
   10b24:	439c                	lw	a5,0(a5)
   10b26:	00f4e863          	bltu	s1,a5,10b36 <_ZN6tflite21MicroInterpreterGraph16PrepareSubgraphsEv+0x32>
   10b2a:	01442a23          	sw	s4,20(s0)
   10b2e:	01342c23          	sw	s3,24(s0)
   10b32:	4501                	li	a0,0
   10b34:	a085                	j	10b94 <_ZN6tflite21MicroInterpreterGraph16PrepareSubgraphsEv+0x90>
   10b36:	4408                	lw	a0,8(s0)
   10b38:	85a6                	mv	a1,s1
   10b3a:	c844                	sw	s1,20(s0)
   10b3c:	00000097          	auipc	ra,0x0
   10b40:	59a080e7          	jalr	1434(ra) # 110d6 <_ZN6tflite20NumSubgraphOperatorsEPKNS_5ModelEi>
   10b44:	892a                	mv	s2,a0
   10b46:	00349a93          	slli	s5,s1,0x3
   10b4a:	4581                	li	a1,0
   10b4c:	cc0c                	sw	a1,24(s0)
   10b4e:	0125e463          	bltu	a1,s2,10b56 <_ZN6tflite21MicroInterpreterGraph16PrepareSubgraphsEv+0x52>
   10b52:	0485                	addi	s1,s1,1
   10b54:	b7f9                	j	10b22 <_ZN6tflite21MicroInterpreterGraph16PrepareSubgraphsEv+0x1e>
   10b56:	481c                	lw	a5,16(s0)
   10b58:	0596                	slli	a1,a1,0x5
   10b5a:	97d6                	add	a5,a5,s5
   10b5c:	439c                	lw	a5,0(a5)
   10b5e:	95be                	add	a1,a1,a5
   10b60:	01c5ab03          	lw	s6,28(a1)
   10b64:	008b2783          	lw	a5,8(s6)
   10b68:	c3a1                	beqz	a5,10ba8 <_ZN6tflite21MicroInterpreterGraph16PrepareSubgraphsEv+0xa4>
   10b6a:	4048                	lw	a0,4(s0)
   10b6c:	9782                	jalr	a5
   10b6e:	cd0d                	beqz	a0,10ba8 <_ZN6tflite21MicroInterpreterGraph16PrepareSubgraphsEv+0xa4>
   10b70:	c62a                	sw	a0,12(sp)
   10b72:	855a                	mv	a0,s6
   10b74:	00000097          	auipc	ra,0x0
   10b78:	f62080e7          	jalr	-158(ra) # 10ad6 <_ZN6tflite12_GLOBAL__N_122OpNameFromRegistrationEPK16TFLMRegistration>
   10b7c:	46b2                	lw	a3,12(sp)
   10b7e:	4c10                	lw	a2,24(s0)
   10b80:	85aa                	mv	a1,a0
   10b82:	0000c517          	auipc	a0,0xc
   10b86:	5a250513          	addi	a0,a0,1442 # 1d124 <__extenddftf2+0x11c0>
   10b8a:	00000097          	auipc	ra,0x0
   10b8e:	302080e7          	jalr	770(ra) # 10e8c <_Z11MicroPrintfPKcz>
   10b92:	4505                	li	a0,1
   10b94:	50b2                	lw	ra,44(sp)
   10b96:	5422                	lw	s0,40(sp)
   10b98:	5492                	lw	s1,36(sp)
   10b9a:	5902                	lw	s2,32(sp)
   10b9c:	49f2                	lw	s3,28(sp)
   10b9e:	4a62                	lw	s4,24(sp)
   10ba0:	4ad2                	lw	s5,20(sp)
   10ba2:	4b42                	lw	s6,16(sp)
   10ba4:	6145                	addi	sp,sp,48
   10ba6:	8082                	ret
   10ba8:	4c0c                	lw	a1,24(s0)
   10baa:	4448                	lw	a0,12(s0)
   10bac:	00000097          	auipc	ra,0x0
   10bb0:	7a6080e7          	jalr	1958(ra) # 11352 <_ZN6tflite14MicroAllocator28FinishPrepareNodeAllocationsEi>
   10bb4:	4c0c                	lw	a1,24(s0)
   10bb6:	0585                	addi	a1,a1,1
   10bb8:	bf51                	j	10b4c <_ZN6tflite21MicroInterpreterGraph16PrepareSubgraphsEv+0x48>

00010bba <_ZN6tflite21MicroInterpreterGraph12NumSubgraphsEv>:
   10bba:	4508                	lw	a0,8(a0)
   10bbc:	1141                	addi	sp,sp,-16
   10bbe:	c606                	sw	ra,12(sp)
   10bc0:	fffff097          	auipc	ra,0xfffff
   10bc4:	6d6080e7          	jalr	1750(ra) # 10296 <_ZNK6tflite5Model9subgraphsEv>
   10bc8:	40b2                	lw	ra,12(sp)
   10bca:	4108                	lw	a0,0(a0)
   10bcc:	0141                	addi	sp,sp,16
   10bce:	8082                	ret

00010bd0 <_ZN6tflite19ScopedMicroProfilerD1Ev>:
   10bd0:	87aa                	mv	a5,a0
   10bd2:	4148                	lw	a0,4(a0)
   10bd4:	c509                	beqz	a0,10bde <_ZN6tflite19ScopedMicroProfilerD1Ev+0xe>
   10bd6:	4118                	lw	a4,0(a0)
   10bd8:	438c                	lw	a1,0(a5)
   10bda:	4758                	lw	a4,12(a4)
   10bdc:	8702                	jr	a4
   10bde:	8082                	ret

00010be0 <_ZN6tflite21MicroInterpreterGraph14InvokeSubgraphEi>:
   10be0:	511c                	lw	a5,32(a0)
   10be2:	7139                	addi	sp,sp,-64
   10be4:	dc22                	sw	s0,56(sp)
   10be6:	4390                	lw	a2,0(a5)
   10be8:	d452                	sw	s4,40(sp)
   10bea:	d256                	sw	s5,36(sp)
   10bec:	de06                	sw	ra,60(sp)
   10bee:	da26                	sw	s1,52(sp)
   10bf0:	d84a                	sw	s2,48(sp)
   10bf2:	d64e                	sw	s3,44(sp)
   10bf4:	d05a                	sw	s6,32(sp)
   10bf6:	ce5e                	sw	s7,28(sp)
   10bf8:	01452a83          	lw	s5,20(a0)
   10bfc:	c94c                	sw	a1,20(a0)
   10bfe:	01852a03          	lw	s4,24(a0)
   10c02:	842a                	mv	s0,a0
   10c04:	02c5e763          	bltu	a1,a2,10c32 <_ZN6tflite21MicroInterpreterGraph14InvokeSubgraphEi+0x52>
   10c08:	0000c517          	auipc	a0,0xc
   10c0c:	55450513          	addi	a0,a0,1364 # 1d15c <__extenddftf2+0x11f8>
   10c10:	00000097          	auipc	ra,0x0
   10c14:	27c080e7          	jalr	636(ra) # 10e8c <_Z11MicroPrintfPKcz>
   10c18:	4485                	li	s1,1
   10c1a:	50f2                	lw	ra,60(sp)
   10c1c:	5462                	lw	s0,56(sp)
   10c1e:	5942                	lw	s2,48(sp)
   10c20:	59b2                	lw	s3,44(sp)
   10c22:	5a22                	lw	s4,40(sp)
   10c24:	5a92                	lw	s5,36(sp)
   10c26:	5b02                	lw	s6,32(sp)
   10c28:	4bf2                	lw	s7,28(sp)
   10c2a:	8526                	mv	a0,s1
   10c2c:	54d2                	lw	s1,52(sp)
   10c2e:	6121                	addi	sp,sp,64
   10c30:	8082                	ret
   10c32:	4508                	lw	a0,8(a0)
   10c34:	892e                	mv	s2,a1
   10c36:	090e                	slli	s2,s2,0x3
   10c38:	00000097          	auipc	ra,0x0
   10c3c:	49e080e7          	jalr	1182(ra) # 110d6 <_ZN6tflite20NumSubgraphOperatorsEPKNS_5ModelEi>
   10c40:	89aa                	mv	s3,a0
   10c42:	4781                	li	a5,0
   10c44:	4b05                	li	s6,1
   10c46:	cc1c                	sw	a5,24(s0)
   10c48:	0137e863          	bltu	a5,s3,10c58 <_ZN6tflite21MicroInterpreterGraph14InvokeSubgraphEi+0x78>
   10c4c:	01542a23          	sw	s5,20(s0)
   10c50:	01442c23          	sw	s4,24(s0)
   10c54:	4481                	li	s1,0
   10c56:	b7d1                	j	10c1a <_ZN6tflite21MicroInterpreterGraph14InvokeSubgraphEi+0x3a>
   10c58:	4818                	lw	a4,16(s0)
   10c5a:	0796                	slli	a5,a5,0x5
   10c5c:	974a                	add	a4,a4,s2
   10c5e:	4304                	lw	s1,0(a4)
   10c60:	94be                	add	s1,s1,a5
   10c62:	01c4ab83          	lw	s7,28(s1)
   10c66:	855e                	mv	a0,s7
   10c68:	00000097          	auipc	ra,0x0
   10c6c:	e6e080e7          	jalr	-402(ra) # 10ad6 <_ZN6tflite12_GLOBAL__N_122OpNameFromRegistrationEPK16TFLMRegistration>
   10c70:	405c                	lw	a5,4(s0)
   10c72:	85aa                	mv	a1,a0
   10c74:	c402                	sw	zero,8(sp)
   10c76:	5bc8                	lw	a0,52(a5)
   10c78:	c62a                	sw	a0,12(sp)
   10c7a:	c509                	beqz	a0,10c84 <_ZN6tflite21MicroInterpreterGraph14InvokeSubgraphEi+0xa4>
   10c7c:	411c                	lw	a5,0(a0)
   10c7e:	479c                	lw	a5,8(a5)
   10c80:	9782                	jalr	a5
   10c82:	c42a                	sw	a0,8(sp)
   10c84:	00cba783          	lw	a5,12(s7)
   10c88:	eb91                	bnez	a5,10c9c <_ZN6tflite21MicroInterpreterGraph14InvokeSubgraphEi+0xbc>
   10c8a:	0000b517          	auipc	a0,0xb
   10c8e:	6a250513          	addi	a0,a0,1698 # 1c32c <__extenddftf2+0x3c8>
   10c92:	00000097          	auipc	ra,0x0
   10c96:	1fa080e7          	jalr	506(ra) # 10e8c <_Z11MicroPrintfPKcz>
   10c9a:	a001                	j	10c9a <_ZN6tflite21MicroInterpreterGraph14InvokeSubgraphEi+0xba>
   10c9c:	4048                	lw	a0,4(s0)
   10c9e:	85a6                	mv	a1,s1
   10ca0:	9782                	jalr	a5
   10ca2:	84aa                	mv	s1,a0
   10ca4:	4448                	lw	a0,12(s0)
   10ca6:	411c                	lw	a5,0(a0)
   10ca8:	4bdc                	lw	a5,20(a5)
   10caa:	9782                	jalr	a5
   10cac:	03649863          	bne	s1,s6,10cdc <_ZN6tflite21MicroInterpreterGraph14InvokeSubgraphEi+0xfc>
   10cb0:	855e                	mv	a0,s7
   10cb2:	00000097          	auipc	ra,0x0
   10cb6:	e24080e7          	jalr	-476(ra) # 10ad6 <_ZN6tflite12_GLOBAL__N_122OpNameFromRegistrationEPK16TFLMRegistration>
   10cba:	4c10                	lw	a2,24(s0)
   10cbc:	85aa                	mv	a1,a0
   10cbe:	0000c517          	auipc	a0,0xc
   10cc2:	4685                	li	a3,1
   10cc4:	4d250513          	addi	a0,a0,1234 # 1d190 <__extenddftf2+0x122c>
   10cc8:	00000097          	auipc	ra,0x0
   10ccc:	1c4080e7          	jalr	452(ra) # 10e8c <_Z11MicroPrintfPKcz>
   10cd0:	0028                	addi	a0,sp,8
   10cd2:	00000097          	auipc	ra,0x0
   10cd6:	efe080e7          	jalr	-258(ra) # 10bd0 <_ZN6tflite19ScopedMicroProfilerD1Ev>
   10cda:	b781                	j	10c1a <_ZN6tflite21MicroInterpreterGraph14InvokeSubgraphEi+0x3a>
   10cdc:	f8f5                	bnez	s1,10cd0 <_ZN6tflite21MicroInterpreterGraph14InvokeSubgraphEi+0xf0>
   10cde:	0028                	addi	a0,sp,8
   10ce0:	00000097          	auipc	ra,0x0
   10ce4:	ef0080e7          	jalr	-272(ra) # 10bd0 <_ZN6tflite19ScopedMicroProfilerD1Ev>
   10ce8:	4c1c                	lw	a5,24(s0)
   10cea:	0785                	addi	a5,a5,1
   10cec:	bfa9                	j	10c46 <_ZN6tflite21MicroInterpreterGraph14InvokeSubgraphEi+0x66>

00010cee <_ZN6tflite21MicroInterpreterGraph22SetSubgraphAllocationsEPNS_19SubgraphAllocationsE>:
   10cee:	c90c                	sw	a1,16(a0)
   10cf0:	8082                	ret

00010cf2 <_ZN6tflite21MicroInterpreterGraph20ResetVariableTensorsEv>:
   10cf2:	7139                	addi	sp,sp,-64
   10cf4:	da26                	sw	s1,52(sp)
   10cf6:	d84a                	sw	s2,48(sp)
   10cf8:	d05a                	sw	s6,32(sp)
   10cfa:	ce5e                	sw	s7,28(sp)
   10cfc:	de06                	sw	ra,60(sp)
   10cfe:	dc22                	sw	s0,56(sp)
   10d00:	d64e                	sw	s3,44(sp)
   10d02:	d452                	sw	s4,40(sp)
   10d04:	d256                	sw	s5,36(sp)
   10d06:	cc62                	sw	s8,24(sp)
   10d08:	ca66                	sw	s9,20(sp)
   10d0a:	84aa                	mv	s1,a0
   10d0c:	4901                	li	s2,0
   10d0e:	4b31                	li	s6,12
   10d10:	4ba5                	li	s7,9
   10d12:	5088                	lw	a0,32(s1)
   10d14:	411c                	lw	a5,0(a0)
   10d16:	02f96363          	bltu	s2,a5,10d3c <_ZN6tflite21MicroInterpreterGraph20ResetVariableTensorsEv+0x4a>
   10d1a:	4cc8                	lw	a0,28(s1)
   10d1c:	10051d63          	bnez	a0,10e36 <_ZN6tflite21MicroInterpreterGraph20ResetVariableTensorsEv+0x144>
   10d20:	4501                	li	a0,0
   10d22:	50f2                	lw	ra,60(sp)
   10d24:	5462                	lw	s0,56(sp)
   10d26:	54d2                	lw	s1,52(sp)
   10d28:	5942                	lw	s2,48(sp)
   10d2a:	59b2                	lw	s3,44(sp)
   10d2c:	5a22                	lw	s4,40(sp)
   10d2e:	5a92                	lw	s5,36(sp)
   10d30:	5b02                	lw	s6,32(sp)
   10d32:	4bf2                	lw	s7,28(sp)
   10d34:	4c62                	lw	s8,24(sp)
   10d36:	4cd2                	lw	s9,20(sp)
   10d38:	6121                	addi	sp,sp,64
   10d3a:	8082                	ret
   10d3c:	85ca                	mv	a1,s2
   10d3e:	fffff097          	auipc	ra,0xfffff
   10d42:	5b6080e7          	jalr	1462(ra) # 102f4 <_ZNK11flatbuffers6VectorINS_6OffsetIN6tflite8SubGraphEEEmE3GetEm>
   10d46:	8a2a                	mv	s4,a0
   10d48:	00391a93          	slli	s5,s2,0x3
   10d4c:	4981                	li	s3,0
   10d4e:	4591                	li	a1,4
   10d50:	8552                	mv	a0,s4
   10d52:	fffff097          	auipc	ra,0xfffff
   10d56:	50a080e7          	jalr	1290(ra) # 1025c <_ZNK11flatbuffers5Table22GetOptionalFieldOffsetEt>
   10d5a:	4401                	li	s0,0
   10d5c:	c501                	beqz	a0,10d64 <_ZN6tflite21MicroInterpreterGraph20ResetVariableTensorsEv+0x72>
   10d5e:	9552                	add	a0,a0,s4
   10d60:	4100                	lw	s0,0(a0)
   10d62:	942a                	add	s0,s0,a0
   10d64:	401c                	lw	a5,0(s0)
   10d66:	00f9e463          	bltu	s3,a5,10d6e <_ZN6tflite21MicroInterpreterGraph20ResetVariableTensorsEv+0x7c>
   10d6a:	0905                	addi	s2,s2,1
   10d6c:	b75d                	j	10d12 <_ZN6tflite21MicroInterpreterGraph20ResetVariableTensorsEv+0x20>
   10d6e:	0985                	addi	s3,s3,1
   10d70:	00299793          	slli	a5,s3,0x2
   10d74:	943e                	add	s0,s0,a5
   10d76:	401c                	lw	a5,0(s0)
   10d78:	45b9                	li	a1,14
   10d7a:	943e                	add	s0,s0,a5
   10d7c:	8522                	mv	a0,s0
   10d7e:	fffff097          	auipc	ra,0xfffff
   10d82:	4de080e7          	jalr	1246(ra) # 1025c <_ZNK11flatbuffers5Table22GetOptionalFieldOffsetEt>
   10d86:	d561                	beqz	a0,10d4e <_ZN6tflite21MicroInterpreterGraph20ResetVariableTensorsEv+0x5c>
   10d88:	9522                	add	a0,a0,s0
   10d8a:	00054783          	lbu	a5,0(a0)
   10d8e:	d3e1                	beqz	a5,10d4e <_ZN6tflite21MicroInterpreterGraph20ResetVariableTensorsEv+0x5c>
   10d90:	03698cb3          	mul	s9,s3,s6
   10d94:	489c                	lw	a5,16(s1)
   10d96:	006c                	addi	a1,sp,12
   10d98:	97d6                	add	a5,a5,s5
   10d9a:	43c8                	lw	a0,4(a5)
   10d9c:	1cd1                	addi	s9,s9,-12
   10d9e:	9566                	add	a0,a0,s9
   10da0:	00000097          	auipc	ra,0x0
   10da4:	406080e7          	jalr	1030(ra) # 111a6 <_ZN6tflite26TfLiteEvalTensorByteLengthEPK16TfLiteEvalTensorPj>
   10da8:	fd2d                	bnez	a0,10d22 <_ZN6tflite21MicroInterpreterGraph20ResetVariableTensorsEv+0x30>
   10daa:	4599                	li	a1,6
   10dac:	8522                	mv	a0,s0
   10dae:	fffff097          	auipc	ra,0xfffff
   10db2:	4ae080e7          	jalr	1198(ra) # 1025c <_ZNK11flatbuffers5Table22GetOptionalFieldOffsetEt>
   10db6:	cd35                	beqz	a0,10e32 <_ZN6tflite21MicroInterpreterGraph20ResetVariableTensorsEv+0x140>
   10db8:	9522                	add	a0,a0,s0
   10dba:	00050783          	lb	a5,0(a0)
   10dbe:	07779a63          	bne	a5,s7,10e32 <_ZN6tflite21MicroInterpreterGraph20ResetVariableTensorsEv+0x140>
   10dc2:	45b1                	li	a1,12
   10dc4:	8522                	mv	a0,s0
   10dc6:	fffff097          	auipc	ra,0xfffff
   10dca:	496080e7          	jalr	1174(ra) # 1025c <_ZNK11flatbuffers5Table22GetOptionalFieldOffsetEt>
   10dce:	4c01                	li	s8,0
   10dd0:	c509                	beqz	a0,10dda <_ZN6tflite21MicroInterpreterGraph20ResetVariableTensorsEv+0xe8>
   10dd2:	942a                	add	s0,s0,a0
   10dd4:	00042c03          	lw	s8,0(s0)
   10dd8:	9c22                	add	s8,s8,s0
   10dda:	45a9                	li	a1,10
   10ddc:	8562                	mv	a0,s8
   10dde:	fffff097          	auipc	ra,0xfffff
   10de2:	47e080e7          	jalr	1150(ra) # 1025c <_ZNK11flatbuffers5Table22GetOptionalFieldOffsetEt>
   10de6:	4781                	li	a5,0
   10de8:	c509                	beqz	a0,10df2 <_ZN6tflite21MicroInterpreterGraph20ResetVariableTensorsEv+0x100>
   10dea:	9c2a                	add	s8,s8,a0
   10dec:	000c2783          	lw	a5,0(s8)
   10df0:	97e2                	add	a5,a5,s8
   10df2:	4398                	lw	a4,0(a5)
   10df4:	e31d                	bnez	a4,10e1a <_ZN6tflite21MicroInterpreterGraph20ResetVariableTensorsEv+0x128>
   10df6:	0000b697          	auipc	a3,0xb
   10dfa:	0000c617          	auipc	a2,0xc
   10dfe:	0000b517          	auipc	a0,0xb
   10e02:	33668693          	addi	a3,a3,822 # 1c12c <__extenddftf2+0x1c8>
   10e06:	3ca60613          	addi	a2,a2,970 # 1d1c4 <__extenddftf2+0x1260>
   10e0a:	0b000593          	li	a1,176
   10e0e:	3de50513          	addi	a0,a0,990 # 1c1dc <__extenddftf2+0x278>
   10e12:	00002097          	auipc	ra,0x2
   10e16:	e2a080e7          	jalr	-470(ra) # 12c3c <__assert_func>
   10e1a:	43cc                	lw	a1,4(a5)
   10e1c:	489c                	lw	a5,16(s1)
   10e1e:	4632                	lw	a2,12(sp)
   10e20:	97d6                	add	a5,a5,s5
   10e22:	43dc                	lw	a5,4(a5)
   10e24:	97e6                	add	a5,a5,s9
   10e26:	4388                	lw	a0,0(a5)
   10e28:	00005097          	auipc	ra,0x5
   10e2c:	6fe080e7          	jalr	1790(ra) # 16526 <memset>
   10e30:	bf39                	j	10d4e <_ZN6tflite21MicroInterpreterGraph20ResetVariableTensorsEv+0x5c>
   10e32:	4581                	li	a1,0
   10e34:	b7e5                	j	10e1c <_ZN6tflite21MicroInterpreterGraph20ResetVariableTensorsEv+0x12a>
   10e36:	00000097          	auipc	ra,0x0
   10e3a:	14e080e7          	jalr	334(ra) # 10f84 <_ZN6tflite22MicroResourceVariables8ResetAllEv>
   10e3e:	b5cd                	j	10d20 <_ZN6tflite21MicroInterpreterGraph20ResetVariableTensorsEv+0x2e>

00010e40 <_ZN12_GLOBAL__N_19VDebugLogEPKcz.constprop.0>:
   10e40:	7139                	addi	sp,sp,-64
   10e42:	0000c517          	auipc	a0,0xc
   10e46:	d22e                	sw	a1,36(sp)
   10e48:	42e50513          	addi	a0,a0,1070 # 1d270 <__extenddftf2+0x130c>
   10e4c:	104c                	addi	a1,sp,36
   10e4e:	ce06                	sw	ra,28(sp)
   10e50:	d432                	sw	a2,40(sp)
   10e52:	d636                	sw	a3,44(sp)
   10e54:	d83a                	sw	a4,48(sp)
   10e56:	da3e                	sw	a5,52(sp)
   10e58:	dc42                	sw	a6,56(sp)
   10e5a:	de46                	sw	a7,60(sp)
   10e5c:	c62e                	sw	a1,12(sp)
   10e5e:	00000097          	auipc	ra,0x0
   10e62:	238080e7          	jalr	568(ra) # 11096 <DebugLog>
   10e66:	40f2                	lw	ra,28(sp)
   10e68:	6121                	addi	sp,sp,64
   10e6a:	8082                	ret

00010e6c <_Z12VMicroPrintfPKcPv>:
   10e6c:	1141                	addi	sp,sp,-16
   10e6e:	c606                	sw	ra,12(sp)
   10e70:	00000097          	auipc	ra,0x0
   10e74:	226080e7          	jalr	550(ra) # 11096 <DebugLog>
   10e78:	40b2                	lw	ra,12(sp)
   10e7a:	0000c517          	auipc	a0,0xc
   10e7e:	3f650513          	addi	a0,a0,1014 # 1d270 <__extenddftf2+0x130c>
   10e82:	0141                	addi	sp,sp,16
   10e84:	00000317          	auipc	t1,0x0
   10e88:	fbc30067          	jr	-68(t1) # 10e40 <_ZN12_GLOBAL__N_19VDebugLogEPKcz.constprop.0>

00010e8c <_Z11MicroPrintfPKcz>:
   10e8c:	7139                	addi	sp,sp,-64
   10e8e:	d22e                	sw	a1,36(sp)
   10e90:	104c                	addi	a1,sp,36
   10e92:	ce06                	sw	ra,28(sp)
   10e94:	d432                	sw	a2,40(sp)
   10e96:	d636                	sw	a3,44(sp)
   10e98:	d83a                	sw	a4,48(sp)
   10e9a:	da3e                	sw	a5,52(sp)
   10e9c:	dc42                	sw	a6,56(sp)
   10e9e:	de46                	sw	a7,60(sp)
   10ea0:	c62e                	sw	a1,12(sp)
   10ea2:	00000097          	auipc	ra,0x0
   10ea6:	fca080e7          	jalr	-54(ra) # 10e6c <_Z12VMicroPrintfPKcPv>
   10eaa:	40f2                	lw	ra,28(sp)
   10eac:	6121                	addi	sp,sp,64
   10eae:	8082                	ret

00010eb0 <_ZN6tflite25GetRegistrationFromOpCodeEPKNS_12OperatorCodeERKNS_15MicroOpResolverEPPK16TFLMRegistration>:
   10eb0:	1101                	addi	sp,sp,-32
   10eb2:	00062023          	sw	zero,0(a2)
   10eb6:	cc22                	sw	s0,24(sp)
   10eb8:	ca26                	sw	s1,20(sp)
   10eba:	c84a                	sw	s2,16(sp)
   10ebc:	c64e                	sw	s3,12(sp)
   10ebe:	ce06                	sw	ra,28(sp)
   10ec0:	84aa                	mv	s1,a0
   10ec2:	892e                	mv	s2,a1
   10ec4:	89b2                	mv	s3,a2
   10ec6:	00000097          	auipc	ra,0x0
   10eca:	178080e7          	jalr	376(ra) # 1103e <_ZN6tflite14GetBuiltinCodeEPKNS_12OperatorCodeE>
   10ece:	0ce00793          	li	a5,206
   10ed2:	842a                	mv	s0,a0
   10ed4:	02a7d363          	bge	a5,a0,10efa <_ZN6tflite25GetRegistrationFromOpCodeEPKNS_12OperatorCodeERKNS_15MicroOpResolverEPPK16TFLMRegistration+0x4a>
   10ed8:	85aa                	mv	a1,a0
   10eda:	0000c517          	auipc	a0,0xc
   10ede:	39a50513          	addi	a0,a0,922 # 1d274 <__extenddftf2+0x1310>
   10ee2:	00000097          	auipc	ra,0x0
   10ee6:	faa080e7          	jalr	-86(ra) # 10e8c <_Z11MicroPrintfPKcz>
   10eea:	4505                	li	a0,1
   10eec:	40f2                	lw	ra,28(sp)
   10eee:	4462                	lw	s0,24(sp)
   10ef0:	44d2                	lw	s1,20(sp)
   10ef2:	4942                	lw	s2,16(sp)
   10ef4:	49b2                	lw	s3,12(sp)
   10ef6:	6105                	addi	sp,sp,32
   10ef8:	8082                	ret
   10efa:	02000793          	li	a5,32
   10efe:	02f50f63          	beq	a0,a5,10f3c <_ZN6tflite25GetRegistrationFromOpCodeEPKNS_12OperatorCodeERKNS_15MicroOpResolverEPPK16TFLMRegistration+0x8c>
   10f02:	00092783          	lw	a5,0(s2)
   10f06:	85aa                	mv	a1,a0
   10f08:	854a                	mv	a0,s2
   10f0a:	439c                	lw	a5,0(a5)
   10f0c:	9782                	jalr	a5
   10f0e:	87aa                	mv	a5,a0
   10f10:	00a9a023          	sw	a0,0(s3)
   10f14:	4501                	li	a0,0
   10f16:	fbf9                	bnez	a5,10eec <_ZN6tflite25GetRegistrationFromOpCodeEPKNS_12OperatorCodeERKNS_15MicroOpResolverEPPK16TFLMRegistration+0x3c>
   10f18:	0000b597          	auipc	a1,0xb
   10f1c:	56858593          	addi	a1,a1,1384 # 1c480 <__extenddftf2+0x51c>
   10f20:	00044963          	bltz	s0,10f32 <_ZN6tflite25GetRegistrationFromOpCodeEPKNS_12OperatorCodeERKNS_15MicroOpResolverEPPK16TFLMRegistration+0x82>
   10f24:	0000c797          	auipc	a5,0xc
   10f28:	040a                	slli	s0,s0,0x2
   10f2a:	60078793          	addi	a5,a5,1536 # 1d524 <_ZZN6tflite24EnumNamesBuiltinOperatorEvE5names>
   10f2e:	943e                	add	s0,s0,a5
   10f30:	400c                	lw	a1,0(s0)
   10f32:	0000c517          	auipc	a0,0xc
   10f36:	36650513          	addi	a0,a0,870 # 1d298 <__extenddftf2+0x1334>
   10f3a:	b765                	j	10ee2 <_ZN6tflite25GetRegistrationFromOpCodeEPKNS_12OperatorCodeERKNS_15MicroOpResolverEPPK16TFLMRegistration+0x32>
   10f3c:	409c                	lw	a5,0(s1)
   10f3e:	4719                	li	a4,6
   10f40:	40f487b3          	sub	a5,s1,a5
   10f44:	0007d683          	lhu	a3,0(a5)
   10f48:	00d77963          	bgeu	a4,a3,10f5a <_ZN6tflite25GetRegistrationFromOpCodeEPKNS_12OperatorCodeERKNS_15MicroOpResolverEPPK16TFLMRegistration+0xaa>
   10f4c:	0067d783          	lhu	a5,6(a5)
   10f50:	94be                	add	s1,s1,a5
   10f52:	c781                	beqz	a5,10f5a <_ZN6tflite25GetRegistrationFromOpCodeEPKNS_12OperatorCodeERKNS_15MicroOpResolverEPPK16TFLMRegistration+0xaa>
   10f54:	409c                	lw	a5,0(s1)
   10f56:	94be                	add	s1,s1,a5
   10f58:	e891                	bnez	s1,10f6c <_ZN6tflite25GetRegistrationFromOpCodeEPKNS_12OperatorCodeERKNS_15MicroOpResolverEPPK16TFLMRegistration+0xbc>
   10f5a:	0000c517          	auipc	a0,0xc
   10f5e:	36650513          	addi	a0,a0,870 # 1d2c0 <__extenddftf2+0x135c>
   10f62:	00000097          	auipc	ra,0x0
   10f66:	f2a080e7          	jalr	-214(ra) # 10e8c <_Z11MicroPrintfPKcz>
   10f6a:	b741                	j	10eea <_ZN6tflite25GetRegistrationFromOpCodeEPKNS_12OperatorCodeERKNS_15MicroOpResolverEPPK16TFLMRegistration+0x3a>
   10f6c:	00092783          	lw	a5,0(s2)
   10f70:	00448593          	addi	a1,s1,4
   10f74:	854a                	mv	a0,s2
   10f76:	43dc                	lw	a5,4(a5)
   10f78:	9782                	jalr	a5
   10f7a:	00a9a023          	sw	a0,0(s3)
   10f7e:	00153513          	seqz	a0,a0
   10f82:	b7ad                	j	10eec <_ZN6tflite25GetRegistrationFromOpCodeEPKNS_12OperatorCodeERKNS_15MicroOpResolverEPPK16TFLMRegistration+0x3c>

00010f84 <_ZN6tflite22MicroResourceVariables8ResetAllEv>:
   10f84:	1141                	addi	sp,sp,-16
   10f86:	c422                	sw	s0,8(sp)
   10f88:	c226                	sw	s1,4(sp)
   10f8a:	c04a                	sw	s2,0(sp)
   10f8c:	c606                	sw	ra,12(sp)
   10f8e:	84aa                	mv	s1,a0
   10f90:	4401                	li	s0,0
   10f92:	4951                	li	s2,20
   10f94:	449c                	lw	a5,8(s1)
   10f96:	00f44963          	blt	s0,a5,10fa8 <_ZN6tflite22MicroResourceVariables8ResetAllEv+0x24>
   10f9a:	40b2                	lw	ra,12(sp)
   10f9c:	4422                	lw	s0,8(sp)
   10f9e:	4492                	lw	s1,4(sp)
   10fa0:	4902                	lw	s2,0(sp)
   10fa2:	4501                	li	a0,0
   10fa4:	0141                	addi	sp,sp,16
   10fa6:	8082                	ret
   10fa8:	03240733          	mul	a4,s0,s2
   10fac:	409c                	lw	a5,0(s1)
   10fae:	0405                	addi	s0,s0,1
   10fb0:	97ba                	add	a5,a5,a4
   10fb2:	47d0                	lw	a2,12(a5)
   10fb4:	01078583          	lb	a1,16(a5)
   10fb8:	4788                	lw	a0,8(a5)
   10fba:	00005097          	auipc	ra,0x5
   10fbe:	56c080e7          	jalr	1388(ra) # 16526 <memset>
   10fc2:	bfc9                	j	10f94 <_ZN6tflite22MicroResourceVariables8ResetAllEv+0x10>

00010fc4 <_ZN6tflite24CallBuiltinParseFunctionEPF12TfLiteStatusPKNS_8OperatorEPNS_13ErrorReporterEPNS_20BuiltinDataAllocatorEPPvES3_S7_S9_>:
   10fc4:	1101                	addi	sp,sp,-32
   10fc6:	cc22                	sw	s0,24(sp)
   10fc8:	ca26                	sw	s1,20(sp)
   10fca:	ce06                	sw	ra,28(sp)
   10fcc:	84ae                	mv	s1,a1
   10fce:	842a                	mv	s0,a0
   10fd0:	c632                	sw	a2,12(sp)
   10fd2:	c436                	sw	a3,8(sp)
   10fd4:	00000097          	auipc	ra,0x0
   10fd8:	036080e7          	jalr	54(ra) # 1100a <_ZN6tflite21GetMicroErrorReporterEv>
   10fdc:	87a2                	mv	a5,s0
   10fde:	4462                	lw	s0,24(sp)
   10fe0:	46a2                	lw	a3,8(sp)
   10fe2:	4632                	lw	a2,12(sp)
   10fe4:	40f2                	lw	ra,28(sp)
   10fe6:	85aa                	mv	a1,a0
   10fe8:	8526                	mv	a0,s1
   10fea:	44d2                	lw	s1,20(sp)
   10fec:	6105                	addi	sp,sp,32
   10fee:	8782                	jr	a5

00010ff0 <_ZN6tflite18MicroErrorReporterD0Ev>:
   10ff0:	8082                	ret

00010ff2 <_ZN6tflite18MicroErrorReporter6ReportEPKcPv>:
   10ff2:	1141                	addi	sp,sp,-16
   10ff4:	852e                	mv	a0,a1
   10ff6:	85b2                	mv	a1,a2
   10ff8:	c606                	sw	ra,12(sp)
   10ffa:	00000097          	auipc	ra,0x0
   10ffe:	e72080e7          	jalr	-398(ra) # 10e6c <_Z12VMicroPrintfPKcPv>
   11002:	40b2                	lw	ra,12(sp)
   11004:	4501                	li	a0,0
   11006:	0141                	addi	sp,sp,16
   11008:	8082                	ret

0001100a <_ZN6tflite21GetMicroErrorReporterEv>:
   1100a:	0000d797          	auipc	a5,0xd
   1100e:	7227a783          	lw	a5,1826(a5) # 1e72c <_ZN12_GLOBAL__N_115error_reporter_E>
   11012:	e38d                	bnez	a5,11034 <_ZN6tflite21GetMicroErrorReporterEv+0x2a>
   11014:	0000d797          	auipc	a5,0xd
   11018:	85878793          	addi	a5,a5,-1960 # 1d86c <_ZTVN6tflite18MicroErrorReporterE+0x8>
   1101c:	0000d717          	auipc	a4,0xd
   11020:	70f72a23          	sw	a5,1812(a4) # 1e730 <_ZN12_GLOBAL__N_127micro_error_reporter_bufferE>
   11024:	0000d797          	auipc	a5,0xd
   11028:	70c78793          	addi	a5,a5,1804 # 1e730 <_ZN12_GLOBAL__N_127micro_error_reporter_bufferE>
   1102c:	0000d717          	auipc	a4,0xd
   11030:	70f72023          	sw	a5,1792(a4) # 1e72c <_ZN12_GLOBAL__N_115error_reporter_E>
   11034:	0000d797          	auipc	a5,0xd
   11038:	6f87a503          	lw	a0,1784(a5) # 1e72c <_ZN12_GLOBAL__N_115error_reporter_E>
   1103c:	8082                	ret

0001103e <_ZN6tflite14GetBuiltinCodeEPKNS_12OperatorCodeE>:
   1103e:	ed01                	bnez	a0,11056 <_ZN6tflite14GetBuiltinCodeEPKNS_12OperatorCodeE+0x18>
   11040:	0000b517          	auipc	a0,0xb
   11044:	1141                	addi	sp,sp,-16
   11046:	2ec50513          	addi	a0,a0,748 # 1c32c <__extenddftf2+0x3c8>
   1104a:	c606                	sw	ra,12(sp)
   1104c:	00000097          	auipc	ra,0x0
   11050:	e40080e7          	jalr	-448(ra) # 10e8c <_Z11MicroPrintfPKcz>
   11054:	a001                	j	11054 <_ZN6tflite14GetBuiltinCodeEPKNS_12OperatorCodeE+0x16>
   11056:	4118                	lw	a4,0(a0)
   11058:	47a9                	li	a5,10
   1105a:	40e50733          	sub	a4,a0,a4
   1105e:	00075603          	lhu	a2,0(a4)
   11062:	02c7f063          	bgeu	a5,a2,11082 <_ZN6tflite14GetBuiltinCodeEPKNS_12OperatorCodeE+0x44>
   11066:	00a75783          	lhu	a5,10(a4)
   1106a:	4681                	li	a3,0
   1106c:	c399                	beqz	a5,11072 <_ZN6tflite14GetBuiltinCodeEPKNS_12OperatorCodeE+0x34>
   1106e:	97aa                	add	a5,a5,a0
   11070:	4394                	lw	a3,0(a5)
   11072:	00475703          	lhu	a4,4(a4)
   11076:	4781                	li	a5,0
   11078:	cb11                	beqz	a4,1108c <_ZN6tflite14GetBuiltinCodeEPKNS_12OperatorCodeE+0x4e>
   1107a:	953a                	add	a0,a0,a4
   1107c:	00050783          	lb	a5,0(a0)
   11080:	a031                	j	1108c <_ZN6tflite14GetBuiltinCodeEPKNS_12OperatorCodeE+0x4e>
   11082:	4591                	li	a1,4
   11084:	4681                	li	a3,0
   11086:	4781                	li	a5,0
   11088:	fec5e5e3          	bltu	a1,a2,11072 <_ZN6tflite14GetBuiltinCodeEPKNS_12OperatorCodeE+0x34>
   1108c:	853e                	mv	a0,a5
   1108e:	00d7d363          	bge	a5,a3,11094 <_ZN6tflite14GetBuiltinCodeEPKNS_12OperatorCodeE+0x56>
   11092:	8536                	mv	a0,a3
   11094:	8082                	ret

00011096 <DebugLog>:
   11096:	0000d797          	auipc	a5,0xd
   1109a:	6827a783          	lw	a5,1666(a5) # 1e718 <_impure_ptr>
   1109e:	862e                	mv	a2,a1
   110a0:	85aa                	mv	a1,a0
   110a2:	47c8                	lw	a0,12(a5)
   110a4:	00004317          	auipc	t1,0x4
   110a8:	92630067          	jr	-1754(t1) # 149ca <vfprintf>

000110ac <_ZN6tflite20NumSubgraphOperatorsEPKNS_8SubGraphE>:
   110ac:	411c                	lw	a5,0(a0)
   110ae:	4729                	li	a4,10
   110b0:	40f507b3          	sub	a5,a0,a5
   110b4:	0007d683          	lhu	a3,0(a5)
   110b8:	00d77d63          	bgeu	a4,a3,110d2 <_ZN6tflite20NumSubgraphOperatorsEPKNS_8SubGraphE+0x26>
   110bc:	00a7d703          	lhu	a4,10(a5)
   110c0:	00e507b3          	add	a5,a0,a4
   110c4:	4501                	li	a0,0
   110c6:	c719                	beqz	a4,110d4 <_ZN6tflite20NumSubgraphOperatorsEPKNS_8SubGraphE+0x28>
   110c8:	4398                	lw	a4,0(a5)
   110ca:	97ba                	add	a5,a5,a4
   110cc:	c781                	beqz	a5,110d4 <_ZN6tflite20NumSubgraphOperatorsEPKNS_8SubGraphE+0x28>
   110ce:	4388                	lw	a0,0(a5)
   110d0:	8082                	ret
   110d2:	4501                	li	a0,0
   110d4:	8082                	ret

000110d6 <_ZN6tflite20NumSubgraphOperatorsEPKNS_5ModelEi>:
   110d6:	4118                	lw	a4,0(a0)
   110d8:	46a1                	li	a3,8
   110da:	4781                	li	a5,0
   110dc:	40e50733          	sub	a4,a0,a4
   110e0:	00075603          	lhu	a2,0(a4)
   110e4:	00c6f863          	bgeu	a3,a2,110f4 <_ZN6tflite20NumSubgraphOperatorsEPKNS_5ModelEi+0x1e>
   110e8:	00875703          	lhu	a4,8(a4)
   110ec:	953a                	add	a0,a0,a4
   110ee:	c319                	beqz	a4,110f4 <_ZN6tflite20NumSubgraphOperatorsEPKNS_5ModelEi+0x1e>
   110f0:	411c                	lw	a5,0(a0)
   110f2:	97aa                	add	a5,a5,a0
   110f4:	4398                	lw	a4,0(a5)
   110f6:	02e5e663          	bltu	a1,a4,11122 <_ZN6tflite20NumSubgraphOperatorsEPKNS_5ModelEi+0x4c>
   110fa:	0000b697          	auipc	a3,0xb
   110fe:	0000b617          	auipc	a2,0xb
   11102:	0000b517          	auipc	a0,0xb
   11106:	1141                	addi	sp,sp,-16
   11108:	03268693          	addi	a3,a3,50 # 1c12c <__extenddftf2+0x1c8>
   1110c:	13260613          	addi	a2,a2,306 # 1c230 <__extenddftf2+0x2cc>
   11110:	0b000593          	li	a1,176
   11114:	0da50513          	addi	a0,a0,218 # 1c1dc <__extenddftf2+0x278>
   11118:	c606                	sw	ra,12(sp)
   1111a:	00002097          	auipc	ra,0x2
   1111e:	b22080e7          	jalr	-1246(ra) # 12c3c <__assert_func>
   11122:	0585                	addi	a1,a1,1
   11124:	058a                	slli	a1,a1,0x2
   11126:	97ae                	add	a5,a5,a1
   11128:	4388                	lw	a0,0(a5)
   1112a:	953e                	add	a0,a0,a5
   1112c:	00000317          	auipc	t1,0x0
   11130:	f8030067          	jr	-128(t1) # 110ac <_ZN6tflite20NumSubgraphOperatorsEPKNS_8SubGraphE>

00011134 <_ZN6tflite33FlatBufferVectorToTfLiteTypeArrayEPKN11flatbuffers6VectorIlmEE>:
   11134:	8082                	ret

00011136 <_ZN6tflite14AlignPointerUpEPhj>:
   11136:	fff58793          	addi	a5,a1,-1
   1113a:	953e                	add	a0,a0,a5
   1113c:	02b55533          	divu	a0,a0,a1
   11140:	02b50533          	mul	a0,a0,a1
   11144:	8082                	ret

00011146 <_ZN6tflite16TfLiteTypeSizeOfE10TfLiteTypePj>:
   11146:	47cd                	li	a5,19
   11148:	00a7e963          	bltu	a5,a0,1115a <_ZN6tflite16TfLiteTypeSizeOfE10TfLiteTypePj+0x14>
   1114c:	47a5                	li	a5,9
   1114e:	00a7e863          	bltu	a5,a0,1115e <_ZN6tflite16TfLiteTypeSizeOfE10TfLiteTypePj+0x18>
   11152:	4789                	li	a5,2
   11154:	02a7eb63          	bltu	a5,a0,1118a <_ZN6tflite16TfLiteTypeSizeOfE10TfLiteTypePj+0x44>
   11158:	e129                	bnez	a0,1119a <_ZN6tflite16TfLiteTypeSizeOfE10TfLiteTypePj+0x54>
   1115a:	4505                	li	a0,1
   1115c:	8082                	ret
   1115e:	1559                	addi	a0,a0,-10
   11160:	fea7ede3          	bltu	a5,a0,1115a <_ZN6tflite16TfLiteTypeSizeOfE10TfLiteTypePj+0x14>
   11164:	0000c797          	auipc	a5,0xc
   11168:	71478793          	addi	a5,a5,1812 # 1d878 <_ZTVN6tflite18MicroErrorReporterE+0x14>
   1116c:	050a                	slli	a0,a0,0x2
   1116e:	953e                	add	a0,a0,a5
   11170:	4118                	lw	a4,0(a0)
   11172:	97ba                	add	a5,a5,a4
   11174:	8782                	jr	a5
   11176:	1107f793          	andi	a5,a5,272
   1117a:	e395                	bnez	a5,1119e <_ZN6tflite16TfLiteTypeSizeOfE10TfLiteTypePj+0x58>
   1117c:	479d                	li	a5,7
   1117e:	fcf51ee3          	bne	a0,a5,1115a <_ZN6tflite16TfLiteTypeSizeOfE10TfLiteTypePj+0x14>
   11182:	4789                	li	a5,2
   11184:	c19c                	sw	a5,0(a1)
   11186:	4501                	li	a0,0
   11188:	8082                	ret
   1118a:	4785                	li	a5,1
   1118c:	00a797b3          	sll	a5,a5,a0
   11190:	2487f713          	andi	a4,a5,584
   11194:	d36d                	beqz	a4,11176 <_ZN6tflite16TfLiteTypeSizeOfE10TfLiteTypePj+0x30>
   11196:	4785                	li	a5,1
   11198:	b7f5                	j	11184 <_ZN6tflite16TfLiteTypeSizeOfE10TfLiteTypePj+0x3e>
   1119a:	4791                	li	a5,4
   1119c:	b7e5                	j	11184 <_ZN6tflite16TfLiteTypeSizeOfE10TfLiteTypePj+0x3e>
   1119e:	47a1                	li	a5,8
   111a0:	b7d5                	j	11184 <_ZN6tflite16TfLiteTypeSizeOfE10TfLiteTypePj+0x3e>
   111a2:	47c1                	li	a5,16
   111a4:	b7c5                	j	11184 <_ZN6tflite16TfLiteTypeSizeOfE10TfLiteTypePj+0x3e>

000111a6 <_ZN6tflite26TfLiteEvalTensorByteLengthEPK16TfLiteEvalTensorPj>:
   111a6:	1101                	addi	sp,sp,-32
   111a8:	ce06                	sw	ra,28(sp)
   111aa:	cc22                	sw	s0,24(sp)
   111ac:	ca26                	sw	s1,20(sp)
   111ae:	e991                	bnez	a1,111c2 <_ZN6tflite26TfLiteEvalTensorByteLengthEPK16TfLiteEvalTensorPj+0x1c>
   111b0:	0000b517          	auipc	a0,0xb
   111b4:	17c50513          	addi	a0,a0,380 # 1c32c <__extenddftf2+0x3c8>
   111b8:	00000097          	auipc	ra,0x0
   111bc:	cd4080e7          	jalr	-812(ra) # 10e8c <_Z11MicroPrintfPKcz>
   111c0:	a001                	j	111c0 <_ZN6tflite26TfLiteEvalTensorByteLengthEPK16TfLiteEvalTensorPj+0x1a>
   111c2:	415c                	lw	a5,4(a0)
   111c4:	842e                	mv	s0,a1
   111c6:	4485                	li	s1,1
   111c8:	c791                	beqz	a5,111d4 <_ZN6tflite26TfLiteEvalTensorByteLengthEPK16TfLiteEvalTensorPj+0x2e>
   111ca:	4394                	lw	a3,0(a5)
   111cc:	4701                	li	a4,0
   111ce:	0791                	addi	a5,a5,4
   111d0:	02d74263          	blt	a4,a3,111f4 <_ZN6tflite26TfLiteEvalTensorByteLengthEPK16TfLiteEvalTensorPj+0x4e>
   111d4:	4508                	lw	a0,8(a0)
   111d6:	006c                	addi	a1,sp,12
   111d8:	00000097          	auipc	ra,0x0
   111dc:	f6e080e7          	jalr	-146(ra) # 11146 <_ZN6tflite16TfLiteTypeSizeOfE10TfLiteTypePj>
   111e0:	e509                	bnez	a0,111ea <_ZN6tflite26TfLiteEvalTensorByteLengthEPK16TfLiteEvalTensorPj+0x44>
   111e2:	47b2                	lw	a5,12(sp)
   111e4:	029787b3          	mul	a5,a5,s1
   111e8:	c01c                	sw	a5,0(s0)
   111ea:	40f2                	lw	ra,28(sp)
   111ec:	4462                	lw	s0,24(sp)
   111ee:	44d2                	lw	s1,20(sp)
   111f0:	6105                	addi	sp,sp,32
   111f2:	8082                	ret
   111f4:	4390                	lw	a2,0(a5)
   111f6:	0705                	addi	a4,a4,1
   111f8:	0791                	addi	a5,a5,4
   111fa:	02c484b3          	mul	s1,s1,a2
   111fe:	bfc9                	j	111d0 <_ZN6tflite26TfLiteEvalTensorByteLengthEPK16TfLiteEvalTensorPj+0x2a>

00011200 <_ZN6tflite12_GLOBAL__N_125MicroBuiltinDataAllocator8AllocateEjj>:
   11200:	4148                	lw	a0,4(a0)
   11202:	411c                	lw	a5,0(a0)
   11204:	479c                	lw	a5,8(a5)
   11206:	8782                	jr	a5

00011208 <_ZN6tflite12_GLOBAL__N_125MicroBuiltinDataAllocator10DeallocateEPv>:
   11208:	8082                	ret

0001120a <_ZN6tflite12_GLOBAL__N_125MicroBuiltinDataAllocatorD0Ev>:
   1120a:	8082                	ret

0001120c <_ZN6tflite14MicroAllocator21FinishModelAllocationEPKNS_5ModelEPNS_19SubgraphAllocationsEPPNS_19ScratchBufferHandleE>:
   1120c:	01454783          	lbu	a5,20(a0)
   11210:	1101                	addi	sp,sp,-32
   11212:	ce06                	sw	ra,28(sp)
   11214:	cc22                	sw	s0,24(sp)
   11216:	ca26                	sw	s1,20(sp)
   11218:	c84a                	sw	s2,16(sp)
   1121a:	c64e                	sw	s3,12(sp)
   1121c:	e38d                	bnez	a5,1123e <_ZN6tflite14MicroAllocator21FinishModelAllocationEPKNS_5ModelEPNS_19SubgraphAllocationsEPPNS_19ScratchBufferHandleE+0x32>
   1121e:	0000c517          	auipc	a0,0xc
   11222:	0da50513          	addi	a0,a0,218 # 1d2f8 <__extenddftf2+0x1394>
   11226:	00000097          	auipc	ra,0x0
   1122a:	c66080e7          	jalr	-922(ra) # 10e8c <_Z11MicroPrintfPKcz>
   1122e:	4505                	li	a0,1
   11230:	40f2                	lw	ra,28(sp)
   11232:	4462                	lw	s0,24(sp)
   11234:	44d2                	lw	s1,20(sp)
   11236:	4942                	lw	s2,16(sp)
   11238:	49b2                	lw	s3,12(sp)
   1123a:	6105                	addi	sp,sp,32
   1123c:	8082                	ret
   1123e:	411c                	lw	a5,0(a0)
   11240:	89b2                	mv	s3,a2
   11242:	4d10                	lw	a2,24(a0)
   11244:	43bc                	lw	a5,64(a5)
   11246:	892e                	mv	s2,a1
   11248:	85b6                	mv	a1,a3
   1124a:	842a                	mv	s0,a0
   1124c:	84b6                	mv	s1,a3
   1124e:	9782                	jalr	a5
   11250:	f165                	bnez	a0,11230 <_ZN6tflite14MicroAllocator21FinishModelAllocationEPKNS_5ModelEPNS_19SubgraphAllocationsEPPNS_19ScratchBufferHandleE+0x24>
   11252:	401c                	lw	a5,0(s0)
   11254:	4094                	lw	a3,0(s1)
   11256:	864e                	mv	a2,s3
   11258:	5fdc                	lw	a5,60(a5)
   1125a:	85ca                	mv	a1,s2
   1125c:	8522                	mv	a0,s0
   1125e:	9782                	jalr	a5
   11260:	f961                	bnez	a0,11230 <_ZN6tflite14MicroAllocator21FinishModelAllocationEPKNS_5ModelEPNS_19SubgraphAllocationsEPPNS_19ScratchBufferHandleE+0x24>
   11262:	00040a23          	sb	zero,20(s0)
   11266:	b7e9                	j	11230 <_ZN6tflite14MicroAllocator21FinishModelAllocationEPKNS_5ModelEPNS_19SubgraphAllocationsEPPNS_19ScratchBufferHandleE+0x24>

00011268 <_ZN6tflite14MicroAllocator21InitScratchBufferDataEv>:
   11268:	1141                	addi	sp,sp,-16
   1126a:	c422                	sw	s0,8(sp)
   1126c:	c606                	sw	ra,12(sp)
   1126e:	842a                	mv	s0,a0
   11270:	00052c23          	sw	zero,24(a0)
   11274:	4148                	lw	a0,4(a0)
   11276:	4611                	li	a2,4
   11278:	09000593          	li	a1,144
   1127c:	411c                	lw	a5,0(a0)
   1127e:	4f9c                	lw	a5,24(a5)
   11280:	9782                	jalr	a5
   11282:	cc48                	sw	a0,28(s0)
   11284:	40b2                	lw	ra,12(sp)
   11286:	4422                	lw	s0,8(sp)
   11288:	00153513          	seqz	a0,a0
   1128c:	0141                	addi	sp,sp,16
   1128e:	8082                	ret

00011290 <_ZN6tflite14MicroAllocator20StartModelAllocationEPKNS_5ModelE>:
   11290:	1101                	addi	sp,sp,-32
   11292:	ce06                	sw	ra,28(sp)
   11294:	cc22                	sw	s0,24(sp)
   11296:	ca26                	sw	s1,20(sp)
   11298:	c84a                	sw	s2,16(sp)
   1129a:	c64e                	sw	s3,12(sp)
   1129c:	e589                	bnez	a1,112a6 <_ZN6tflite14MicroAllocator20StartModelAllocationEPKNS_5ModelE+0x16>
   1129e:	fffff097          	auipc	ra,0xfffff
   112a2:	702080e7          	jalr	1794(ra) # 109a0 <_Z9AbortImplv>
   112a6:	01454783          	lbu	a5,20(a0)
   112aa:	842a                	mv	s0,a0
   112ac:	0000c517          	auipc	a0,0xc
   112b0:	09850513          	addi	a0,a0,152 # 1d344 <__extenddftf2+0x13e0>
   112b4:	efa9                	bnez	a5,1130e <_ZN6tflite14MicroAllocator20StartModelAllocationEPKNS_5ModelE+0x7e>
   112b6:	4408                	lw	a0,8(s0)
   112b8:	4785                	li	a5,1
   112ba:	00f40a23          	sb	a5,20(s0)
   112be:	411c                	lw	a5,0(a0)
   112c0:	892e                	mv	s2,a1
   112c2:	4611                	li	a2,4
   112c4:	479c                	lw	a5,8(a5)
   112c6:	45a1                	li	a1,8
   112c8:	9782                	jalr	a5
   112ca:	4418                	lw	a4,8(s0)
   112cc:	0000c797          	auipc	a5,0xc
   112d0:	5dc78793          	addi	a5,a5,1500 # 1d8a8 <_ZTVN6tflite12_GLOBAL__N_125MicroBuiltinDataAllocatorE+0x8>
   112d4:	c11c                	sw	a5,0(a0)
   112d6:	c158                	sw	a4,4(a0)
   112d8:	c448                	sw	a0,12(s0)
   112da:	8522                	mv	a0,s0
   112dc:	00000097          	auipc	ra,0x0
   112e0:	f8c080e7          	jalr	-116(ra) # 11268 <_ZN6tflite14MicroAllocator21InitScratchBufferDataEv>
   112e4:	e90d                	bnez	a0,11316 <_ZN6tflite14MicroAllocator20StartModelAllocationEPKNS_5ModelE+0x86>
   112e6:	4404                	lw	s1,8(s0)
   112e8:	854a                	mv	a0,s2
   112ea:	409c                	lw	a5,0(s1)
   112ec:	0087a983          	lw	s3,8(a5)
   112f0:	fffff097          	auipc	ra,0xfffff
   112f4:	fa6080e7          	jalr	-90(ra) # 10296 <_ZNK6tflite5Model9subgraphsEv>
   112f8:	410c                	lw	a1,0(a0)
   112fa:	4611                	li	a2,4
   112fc:	8526                	mv	a0,s1
   112fe:	058e                	slli	a1,a1,0x3
   11300:	9982                	jalr	s3
   11302:	84aa                	mv	s1,a0
   11304:	e115                	bnez	a0,11328 <_ZN6tflite14MicroAllocator20StartModelAllocationEPKNS_5ModelE+0x98>
   11306:	0000c517          	auipc	a0,0xc
   1130a:	09650513          	addi	a0,a0,150 # 1d39c <__extenddftf2+0x1438>
   1130e:	00000097          	auipc	ra,0x0
   11312:	b7e080e7          	jalr	-1154(ra) # 10e8c <_Z11MicroPrintfPKcz>
   11316:	4481                	li	s1,0
   11318:	40f2                	lw	ra,28(sp)
   1131a:	4462                	lw	s0,24(sp)
   1131c:	4942                	lw	s2,16(sp)
   1131e:	49b2                	lw	s3,12(sp)
   11320:	8526                	mv	a0,s1
   11322:	44d2                	lw	s1,20(sp)
   11324:	6105                	addi	sp,sp,32
   11326:	8082                	ret
   11328:	401c                	lw	a5,0(s0)
   1132a:	862a                	mv	a2,a0
   1132c:	85ca                	mv	a1,s2
   1132e:	57dc                	lw	a5,44(a5)
   11330:	8522                	mv	a0,s0
   11332:	9782                	jalr	a5
   11334:	f16d                	bnez	a0,11316 <_ZN6tflite14MicroAllocator20StartModelAllocationEPKNS_5ModelE+0x86>
   11336:	401c                	lw	a5,0(s0)
   11338:	8626                	mv	a2,s1
   1133a:	85ca                	mv	a1,s2
   1133c:	579c                	lw	a5,40(a5)
   1133e:	8522                	mv	a0,s0
   11340:	9782                	jalr	a5
   11342:	d979                	beqz	a0,11318 <_ZN6tflite14MicroAllocator20StartModelAllocationEPKNS_5ModelE+0x88>
   11344:	bfc9                	j	11316 <_ZN6tflite14MicroAllocator20StartModelAllocationEPKNS_5ModelE+0x86>

00011346 <_ZN6tflite14MicroAllocator24GetScratchBufferRequestsEv>:
   11346:	4d48                	lw	a0,28(a0)
   11348:	4591                	li	a1,4
   1134a:	00000317          	auipc	t1,0x0
   1134e:	dec30067          	jr	-532(t1) # 11136 <_ZN6tflite14AlignPointerUpEPhj>

00011352 <_ZN6tflite14MicroAllocator28FinishPrepareNodeAllocationsEi>:
   11352:	411c                	lw	a5,0(a0)
   11354:	1141                	addi	sp,sp,-16
   11356:	c422                	sw	s0,8(sp)
   11358:	4bdc                	lw	a5,20(a5)
   1135a:	c226                	sw	s1,4(sp)
   1135c:	c606                	sw	ra,12(sp)
   1135e:	842a                	mv	s0,a0
   11360:	84ae                	mv	s1,a1
   11362:	9782                	jalr	a5
   11364:	e129                	bnez	a0,113a6 <_ZN6tflite14MicroAllocator28FinishPrepareNodeAllocationsEi+0x54>
   11366:	8522                	mv	a0,s0
   11368:	00000097          	auipc	ra,0x0
   1136c:	fde080e7          	jalr	-34(ra) # 11346 <_ZN6tflite14MicroAllocator24GetScratchBufferRequestsEv>
   11370:	4c1c                	lw	a5,24(s0)
   11372:	4631                	li	a2,12
   11374:	577d                	li	a4,-1
   11376:	02f60633          	mul	a2,a2,a5
   1137a:	00c507b3          	add	a5,a0,a2
   1137e:	00f51e63          	bne	a0,a5,1139a <_ZN6tflite14MicroAllocator28FinishPrepareNodeAllocationsEi+0x48>
   11382:	4048                	lw	a0,4(s0)
   11384:	4c4c                	lw	a1,28(s0)
   11386:	4422                	lw	s0,8(sp)
   11388:	411c                	lw	a5,0(a0)
   1138a:	40b2                	lw	ra,12(sp)
   1138c:	4492                	lw	s1,4(sp)
   1138e:	4fdc                	lw	a5,28(a5)
   11390:	4691                	li	a3,4
   11392:	09060613          	addi	a2,a2,144
   11396:	0141                	addi	sp,sp,16
   11398:	8782                	jr	a5
   1139a:	4154                	lw	a3,4(a0)
   1139c:	00e69363          	bne	a3,a4,113a2 <_ZN6tflite14MicroAllocator28FinishPrepareNodeAllocationsEi+0x50>
   113a0:	c144                	sw	s1,4(a0)
   113a2:	0531                	addi	a0,a0,12
   113a4:	bfe9                	j	1137e <_ZN6tflite14MicroAllocator28FinishPrepareNodeAllocationsEi+0x2c>
   113a6:	40b2                	lw	ra,12(sp)
   113a8:	4422                	lw	s0,8(sp)
   113aa:	4492                	lw	s1,4(sp)
   113ac:	0141                	addi	sp,sp,16
   113ae:	8082                	ret

000113b0 <_ZN6tflite14MicroAllocator23GetBuiltinDataAllocatorEv>:
   113b0:	4548                	lw	a0,12(a0)
   113b2:	8082                	ret

000113b4 <__clzsi2>:
   113b4:	67c1                	lui	a5,0x10
   113b6:	02f57663          	bgeu	a0,a5,113e2 <__clzsi2+0x2e>
   113ba:	10053793          	sltiu	a5,a0,256
   113be:	0017b793          	seqz	a5,a5
   113c2:	078e                	slli	a5,a5,0x3
   113c4:	0001e737          	lui	a4,0x1e
   113c8:	02000693          	li	a3,32
   113cc:	8e9d                	sub	a3,a3,a5
   113ce:	00f55533          	srl	a0,a0,a5
   113d2:	8f470793          	addi	a5,a4,-1804 # 1d8f4 <__clz_tab>
   113d6:	97aa                	add	a5,a5,a0
   113d8:	0007c503          	lbu	a0,0(a5) # 10000 <exit-0x94>
   113dc:	40a68533          	sub	a0,a3,a0
   113e0:	8082                	ret
   113e2:	01000737          	lui	a4,0x1000
   113e6:	47e1                	li	a5,24
   113e8:	fce57ee3          	bgeu	a0,a4,113c4 <__clzsi2+0x10>
   113ec:	47c1                	li	a5,16
   113ee:	bfd9                	j	113c4 <__clzsi2+0x10>

000113f0 <__adddf3>:
   113f0:	00100837          	lui	a6,0x100
   113f4:	187d                	addi	a6,a6,-1 # fffff <__BSS_END__+0xe15a3>
   113f6:	1101                	addi	sp,sp,-32
   113f8:	00b878b3          	and	a7,a6,a1
   113fc:	0145d713          	srli	a4,a1,0x14
   11400:	01d55793          	srli	a5,a0,0x1d
   11404:	00d87833          	and	a6,a6,a3
   11408:	ca26                	sw	s1,20(sp)
   1140a:	7ff77493          	andi	s1,a4,2047
   1140e:	00389713          	slli	a4,a7,0x3
   11412:	0146d893          	srli	a7,a3,0x14
   11416:	080e                	slli	a6,a6,0x3
   11418:	c84a                	sw	s2,16(sp)
   1141a:	8fd9                	or	a5,a5,a4
   1141c:	7ff8f893          	andi	a7,a7,2047
   11420:	01d65713          	srli	a4,a2,0x1d
   11424:	ce06                	sw	ra,28(sp)
   11426:	cc22                	sw	s0,24(sp)
   11428:	c64e                	sw	s3,12(sp)
   1142a:	01f5d913          	srli	s2,a1,0x1f
   1142e:	82fd                	srli	a3,a3,0x1f
   11430:	01076733          	or	a4,a4,a6
   11434:	050e                	slli	a0,a0,0x3
   11436:	060e                	slli	a2,a2,0x3
   11438:	41148833          	sub	a6,s1,a7
   1143c:	22d91963          	bne	s2,a3,1166e <__adddf3+0x27e>
   11440:	0f005563          	blez	a6,1152a <__adddf3+0x13a>
   11444:	02089963          	bnez	a7,11476 <__adddf3+0x86>
   11448:	00c766b3          	or	a3,a4,a2
   1144c:	52068263          	beqz	a3,11970 <__adddf3+0x580>
   11450:	fff80593          	addi	a1,a6,-1
   11454:	e991                	bnez	a1,11468 <__adddf3+0x78>
   11456:	962a                	add	a2,a2,a0
   11458:	00a636b3          	sltu	a3,a2,a0
   1145c:	973e                	add	a4,a4,a5
   1145e:	8532                	mv	a0,a2
   11460:	00d707b3          	add	a5,a4,a3
   11464:	4485                	li	s1,1
   11466:	a8b9                	j	114c4 <__adddf3+0xd4>
   11468:	7ff00693          	li	a3,2047
   1146c:	00d81d63          	bne	a6,a3,11486 <__adddf3+0x96>
   11470:	7ff00493          	li	s1,2047
   11474:	a24d                	j	11616 <__adddf3+0x226>
   11476:	7ff00693          	li	a3,2047
   1147a:	18d48e63          	beq	s1,a3,11616 <__adddf3+0x226>
   1147e:	008006b7          	lui	a3,0x800
   11482:	8f55                	or	a4,a4,a3
   11484:	85c2                	mv	a1,a6
   11486:	03800693          	li	a3,56
   1148a:	08b6cb63          	blt	a3,a1,11520 <__adddf3+0x130>
   1148e:	46fd                	li	a3,31
   11490:	06b6c163          	blt	a3,a1,114f2 <__adddf3+0x102>
   11494:	02000813          	li	a6,32
   11498:	40b80833          	sub	a6,a6,a1
   1149c:	010716b3          	sll	a3,a4,a6
   114a0:	00b658b3          	srl	a7,a2,a1
   114a4:	01061833          	sll	a6,a2,a6
   114a8:	0116e6b3          	or	a3,a3,a7
   114ac:	01003833          	snez	a6,a6
   114b0:	0106e6b3          	or	a3,a3,a6
   114b4:	00b755b3          	srl	a1,a4,a1
   114b8:	9536                	add	a0,a0,a3
   114ba:	95be                	add	a1,a1,a5
   114bc:	00d536b3          	sltu	a3,a0,a3
   114c0:	00d587b3          	add	a5,a1,a3
   114c4:	00879713          	slli	a4,a5,0x8
   114c8:	14075763          	bgez	a4,11616 <__adddf3+0x226>
   114cc:	0485                	addi	s1,s1,1
   114ce:	7ff00713          	li	a4,2047
   114d2:	48e48c63          	beq	s1,a4,1196a <__adddf3+0x57a>
   114d6:	ff800737          	lui	a4,0xff800
   114da:	177d                	addi	a4,a4,-1 # ff7fffff <__BSS_END__+0xff7e15a3>
   114dc:	8f7d                	and	a4,a4,a5
   114de:	00155793          	srli	a5,a0,0x1
   114e2:	8905                	andi	a0,a0,1
   114e4:	8fc9                	or	a5,a5,a0
   114e6:	01f71513          	slli	a0,a4,0x1f
   114ea:	8d5d                	or	a0,a0,a5
   114ec:	00175793          	srli	a5,a4,0x1
   114f0:	a21d                	j	11616 <__adddf3+0x226>
   114f2:	fe058693          	addi	a3,a1,-32
   114f6:	02000893          	li	a7,32
   114fa:	00d756b3          	srl	a3,a4,a3
   114fe:	4801                	li	a6,0
   11500:	01158863          	beq	a1,a7,11510 <__adddf3+0x120>
   11504:	04000813          	li	a6,64
   11508:	40b80833          	sub	a6,a6,a1
   1150c:	01071833          	sll	a6,a4,a6
   11510:	00c86833          	or	a6,a6,a2
   11514:	01003833          	snez	a6,a6
   11518:	0106e6b3          	or	a3,a3,a6
   1151c:	4581                	li	a1,0
   1151e:	bf69                	j	114b8 <__adddf3+0xc8>
   11520:	00c766b3          	or	a3,a4,a2
   11524:	00d036b3          	snez	a3,a3
   11528:	bfd5                	j	1151c <__adddf3+0x12c>
   1152a:	0a080963          	beqz	a6,115dc <__adddf3+0x1ec>
   1152e:	409886b3          	sub	a3,a7,s1
   11532:	ec99                	bnez	s1,11550 <__adddf3+0x160>
   11534:	00a7e5b3          	or	a1,a5,a0
   11538:	42058163          	beqz	a1,1195a <__adddf3+0x56a>
   1153c:	fff68593          	addi	a1,a3,-1 # 7fffff <__BSS_END__+0x7e15a3>
   11540:	d999                	beqz	a1,11456 <__adddf3+0x66>
   11542:	7ff00813          	li	a6,2047
   11546:	01069d63          	bne	a3,a6,11560 <__adddf3+0x170>
   1154a:	87ba                	mv	a5,a4
   1154c:	8532                	mv	a0,a2
   1154e:	b70d                	j	11470 <__adddf3+0x80>
   11550:	7ff00593          	li	a1,2047
   11554:	feb88be3          	beq	a7,a1,1154a <__adddf3+0x15a>
   11558:	008005b7          	lui	a1,0x800
   1155c:	8fcd                	or	a5,a5,a1
   1155e:	85b6                	mv	a1,a3
   11560:	03800693          	li	a3,56
   11564:	06b6c763          	blt	a3,a1,115d2 <__adddf3+0x1e2>
   11568:	46fd                	li	a3,31
   1156a:	02b6cd63          	blt	a3,a1,115a4 <__adddf3+0x1b4>
   1156e:	02000813          	li	a6,32
   11572:	40b80833          	sub	a6,a6,a1
   11576:	010796b3          	sll	a3,a5,a6
   1157a:	00b55333          	srl	t1,a0,a1
   1157e:	01051833          	sll	a6,a0,a6
   11582:	0066e6b3          	or	a3,a3,t1
   11586:	01003833          	snez	a6,a6
   1158a:	0106e6b3          	or	a3,a3,a6
   1158e:	00b7d5b3          	srl	a1,a5,a1
   11592:	9636                	add	a2,a2,a3
   11594:	95ba                	add	a1,a1,a4
   11596:	00d636b3          	sltu	a3,a2,a3
   1159a:	8532                	mv	a0,a2
   1159c:	00d587b3          	add	a5,a1,a3
   115a0:	84c6                	mv	s1,a7
   115a2:	b70d                	j	114c4 <__adddf3+0xd4>
   115a4:	fe058693          	addi	a3,a1,-32 # 7fffe0 <__BSS_END__+0x7e1584>
   115a8:	02000313          	li	t1,32
   115ac:	00d7d6b3          	srl	a3,a5,a3
   115b0:	4801                	li	a6,0
   115b2:	00658863          	beq	a1,t1,115c2 <__adddf3+0x1d2>
   115b6:	04000813          	li	a6,64
   115ba:	40b80833          	sub	a6,a6,a1
   115be:	01079833          	sll	a6,a5,a6
   115c2:	00a86833          	or	a6,a6,a0
   115c6:	01003833          	snez	a6,a6
   115ca:	0106e6b3          	or	a3,a3,a6
   115ce:	4581                	li	a1,0
   115d0:	b7c9                	j	11592 <__adddf3+0x1a2>
   115d2:	00a7e6b3          	or	a3,a5,a0
   115d6:	00d036b3          	snez	a3,a3
   115da:	bfd5                	j	115ce <__adddf3+0x1de>
   115dc:	00148693          	addi	a3,s1,1
   115e0:	7fe6f593          	andi	a1,a3,2046
   115e4:	e5a5                	bnez	a1,1164c <__adddf3+0x25c>
   115e6:	00a7e6b3          	or	a3,a5,a0
   115ea:	e4b1                	bnez	s1,11636 <__adddf3+0x246>
   115ec:	36068a63          	beqz	a3,11960 <__adddf3+0x570>
   115f0:	00c766b3          	or	a3,a4,a2
   115f4:	c28d                	beqz	a3,11616 <__adddf3+0x226>
   115f6:	962a                	add	a2,a2,a0
   115f8:	00a636b3          	sltu	a3,a2,a0
   115fc:	973e                	add	a4,a4,a5
   115fe:	00d707b3          	add	a5,a4,a3
   11602:	00879713          	slli	a4,a5,0x8
   11606:	8532                	mv	a0,a2
   11608:	00075763          	bgez	a4,11616 <__adddf3+0x226>
   1160c:	ff800737          	lui	a4,0xff800
   11610:	177d                	addi	a4,a4,-1 # ff7fffff <__BSS_END__+0xff7e15a3>
   11612:	8ff9                	and	a5,a5,a4
   11614:	4485                	li	s1,1
   11616:	00757713          	andi	a4,a0,7
   1161a:	36070363          	beqz	a4,11980 <__adddf3+0x590>
   1161e:	00f57713          	andi	a4,a0,15
   11622:	4691                	li	a3,4
   11624:	34d70e63          	beq	a4,a3,11980 <__adddf3+0x590>
   11628:	00450713          	addi	a4,a0,4
   1162c:	00a736b3          	sltu	a3,a4,a0
   11630:	97b6                	add	a5,a5,a3
   11632:	853a                	mv	a0,a4
   11634:	a6b1                	j	11980 <__adddf3+0x590>
   11636:	da91                	beqz	a3,1154a <__adddf3+0x15a>
   11638:	8e59                	or	a2,a2,a4
   1163a:	e2060be3          	beqz	a2,11470 <__adddf3+0x80>
   1163e:	4901                	li	s2,0
   11640:	004007b7          	lui	a5,0x400
   11644:	4501                	li	a0,0
   11646:	7ff00493          	li	s1,2047
   1164a:	ae1d                	j	11980 <__adddf3+0x590>
   1164c:	7ff00593          	li	a1,2047
   11650:	30b68b63          	beq	a3,a1,11966 <__adddf3+0x576>
   11654:	962a                	add	a2,a2,a0
   11656:	00a63533          	sltu	a0,a2,a0
   1165a:	973e                	add	a4,a4,a5
   1165c:	972a                	add	a4,a4,a0
   1165e:	01f71513          	slli	a0,a4,0x1f
   11662:	8205                	srli	a2,a2,0x1
   11664:	8d51                	or	a0,a0,a2
   11666:	00175793          	srli	a5,a4,0x1
   1166a:	84b6                	mv	s1,a3
   1166c:	b76d                	j	11616 <__adddf3+0x226>
   1166e:	0d005a63          	blez	a6,11742 <__adddf3+0x352>
   11672:	08089463          	bnez	a7,116fa <__adddf3+0x30a>
   11676:	00c766b3          	or	a3,a4,a2
   1167a:	2e068b63          	beqz	a3,11970 <__adddf3+0x580>
   1167e:	fff80693          	addi	a3,a6,-1
   11682:	ee81                	bnez	a3,1169a <__adddf3+0x2aa>
   11684:	40c50633          	sub	a2,a0,a2
   11688:	00c536b3          	sltu	a3,a0,a2
   1168c:	40e78733          	sub	a4,a5,a4
   11690:	8532                	mv	a0,a2
   11692:	40d707b3          	sub	a5,a4,a3
   11696:	4485                	li	s1,1
   11698:	a0b9                	j	116e6 <__adddf3+0x2f6>
   1169a:	7ff00593          	li	a1,2047
   1169e:	dcb809e3          	beq	a6,a1,11470 <__adddf3+0x80>
   116a2:	03800593          	li	a1,56
   116a6:	08d5ca63          	blt	a1,a3,1173a <__adddf3+0x34a>
   116aa:	45fd                	li	a1,31
   116ac:	06d5c063          	blt	a1,a3,1170c <__adddf3+0x31c>
   116b0:	02000813          	li	a6,32
   116b4:	40d80833          	sub	a6,a6,a3
   116b8:	00d658b3          	srl	a7,a2,a3
   116bc:	010715b3          	sll	a1,a4,a6
   116c0:	01061833          	sll	a6,a2,a6
   116c4:	0115e5b3          	or	a1,a1,a7
   116c8:	01003833          	snez	a6,a6
   116cc:	0105e633          	or	a2,a1,a6
   116d0:	00d756b3          	srl	a3,a4,a3
   116d4:	40c50633          	sub	a2,a0,a2
   116d8:	00c53733          	sltu	a4,a0,a2
   116dc:	40d786b3          	sub	a3,a5,a3
   116e0:	8532                	mv	a0,a2
   116e2:	40e687b3          	sub	a5,a3,a4
   116e6:	00879713          	slli	a4,a5,0x8
   116ea:	f20756e3          	bgez	a4,11616 <__adddf3+0x226>
   116ee:	00800437          	lui	s0,0x800
   116f2:	147d                	addi	s0,s0,-1 # 7fffff <__BSS_END__+0x7e15a3>
   116f4:	8c7d                	and	s0,s0,a5
   116f6:	89aa                	mv	s3,a0
   116f8:	aa45                	j	118a8 <__adddf3+0x4b8>
   116fa:	7ff00693          	li	a3,2047
   116fe:	f0d48ce3          	beq	s1,a3,11616 <__adddf3+0x226>
   11702:	008006b7          	lui	a3,0x800
   11706:	8f55                	or	a4,a4,a3
   11708:	86c2                	mv	a3,a6
   1170a:	bf61                	j	116a2 <__adddf3+0x2b2>
   1170c:	fe068593          	addi	a1,a3,-32 # 7fffe0 <__BSS_END__+0x7e1584>
   11710:	02000893          	li	a7,32
   11714:	00b755b3          	srl	a1,a4,a1
   11718:	4801                	li	a6,0
   1171a:	01168863          	beq	a3,a7,1172a <__adddf3+0x33a>
   1171e:	04000813          	li	a6,64
   11722:	40d80833          	sub	a6,a6,a3
   11726:	01071833          	sll	a6,a4,a6
   1172a:	00c86833          	or	a6,a6,a2
   1172e:	01003833          	snez	a6,a6
   11732:	0105e633          	or	a2,a1,a6
   11736:	4681                	li	a3,0
   11738:	bf71                	j	116d4 <__adddf3+0x2e4>
   1173a:	8e59                	or	a2,a2,a4
   1173c:	00c03633          	snez	a2,a2
   11740:	bfdd                	j	11736 <__adddf3+0x346>
   11742:	0c080563          	beqz	a6,1180c <__adddf3+0x41c>
   11746:	40988833          	sub	a6,a7,s1
   1174a:	e895                	bnez	s1,1177e <__adddf3+0x38e>
   1174c:	00a7e5b3          	or	a1,a5,a0
   11750:	22058263          	beqz	a1,11974 <__adddf3+0x584>
   11754:	fff80593          	addi	a1,a6,-1
   11758:	e991                	bnez	a1,1176c <__adddf3+0x37c>
   1175a:	40a60533          	sub	a0,a2,a0
   1175e:	8f1d                	sub	a4,a4,a5
   11760:	00a63633          	sltu	a2,a2,a0
   11764:	40c707b3          	sub	a5,a4,a2
   11768:	8936                	mv	s2,a3
   1176a:	b735                	j	11696 <__adddf3+0x2a6>
   1176c:	7ff00313          	li	t1,2047
   11770:	00681f63          	bne	a6,t1,1178e <__adddf3+0x39e>
   11774:	87ba                	mv	a5,a4
   11776:	8532                	mv	a0,a2
   11778:	7ff00493          	li	s1,2047
   1177c:	a07d                	j	1182a <__adddf3+0x43a>
   1177e:	7ff00593          	li	a1,2047
   11782:	feb889e3          	beq	a7,a1,11774 <__adddf3+0x384>
   11786:	008005b7          	lui	a1,0x800
   1178a:	8fcd                	or	a5,a5,a1
   1178c:	85c2                	mv	a1,a6
   1178e:	03800813          	li	a6,56
   11792:	06b84963          	blt	a6,a1,11804 <__adddf3+0x414>
   11796:	487d                	li	a6,31
   11798:	02b84f63          	blt	a6,a1,117d6 <__adddf3+0x3e6>
   1179c:	02000313          	li	t1,32
   117a0:	40b30333          	sub	t1,t1,a1
   117a4:	00b55e33          	srl	t3,a0,a1
   117a8:	00679833          	sll	a6,a5,t1
   117ac:	00651333          	sll	t1,a0,t1
   117b0:	01c86833          	or	a6,a6,t3
   117b4:	00603333          	snez	t1,t1
   117b8:	00686533          	or	a0,a6,t1
   117bc:	00b7d5b3          	srl	a1,a5,a1
   117c0:	40a60533          	sub	a0,a2,a0
   117c4:	40b705b3          	sub	a1,a4,a1
   117c8:	00a63633          	sltu	a2,a2,a0
   117cc:	40c587b3          	sub	a5,a1,a2
   117d0:	84c6                	mv	s1,a7
   117d2:	8936                	mv	s2,a3
   117d4:	bf09                	j	116e6 <__adddf3+0x2f6>
   117d6:	fe058813          	addi	a6,a1,-32 # 7fffe0 <__BSS_END__+0x7e1584>
   117da:	02000e13          	li	t3,32
   117de:	0107d833          	srl	a6,a5,a6
   117e2:	4301                	li	t1,0
   117e4:	01c58863          	beq	a1,t3,117f4 <__adddf3+0x404>
   117e8:	04000313          	li	t1,64
   117ec:	40b30333          	sub	t1,t1,a1
   117f0:	00679333          	sll	t1,a5,t1
   117f4:	00a36333          	or	t1,t1,a0
   117f8:	00603333          	snez	t1,t1
   117fc:	00686533          	or	a0,a6,t1
   11800:	4581                	li	a1,0
   11802:	bf7d                	j	117c0 <__adddf3+0x3d0>
   11804:	8d5d                	or	a0,a0,a5
   11806:	00a03533          	snez	a0,a0
   1180a:	bfdd                	j	11800 <__adddf3+0x410>
   1180c:	00148593          	addi	a1,s1,1
   11810:	7fe5f593          	andi	a1,a1,2046
   11814:	e5ad                	bnez	a1,1187e <__adddf3+0x48e>
   11816:	00a7e833          	or	a6,a5,a0
   1181a:	00c765b3          	or	a1,a4,a2
   1181e:	e4a9                	bnez	s1,11868 <__adddf3+0x478>
   11820:	00081763          	bnez	a6,1182e <__adddf3+0x43e>
   11824:	c1e5                	beqz	a1,11904 <__adddf3+0x514>
   11826:	87ba                	mv	a5,a4
   11828:	8532                	mv	a0,a2
   1182a:	8936                	mv	s2,a3
   1182c:	b3ed                	j	11616 <__adddf3+0x226>
   1182e:	de0584e3          	beqz	a1,11616 <__adddf3+0x226>
   11832:	40c50833          	sub	a6,a0,a2
   11836:	010538b3          	sltu	a7,a0,a6
   1183a:	40e785b3          	sub	a1,a5,a4
   1183e:	411585b3          	sub	a1,a1,a7
   11842:	00859893          	slli	a7,a1,0x8
   11846:	0008da63          	bgez	a7,1185a <__adddf3+0x46a>
   1184a:	40a60533          	sub	a0,a2,a0
   1184e:	8f1d                	sub	a4,a4,a5
   11850:	00a63633          	sltu	a2,a2,a0
   11854:	40c707b3          	sub	a5,a4,a2
   11858:	bfc9                	j	1182a <__adddf3+0x43a>
   1185a:	00b86533          	or	a0,a6,a1
   1185e:	10050f63          	beqz	a0,1197c <__adddf3+0x58c>
   11862:	87ae                	mv	a5,a1
   11864:	8542                	mv	a0,a6
   11866:	bb45                	j	11616 <__adddf3+0x226>
   11868:	00081863          	bnez	a6,11878 <__adddf3+0x488>
   1186c:	dc0589e3          	beqz	a1,1163e <__adddf3+0x24e>
   11870:	87ba                	mv	a5,a4
   11872:	8532                	mv	a0,a2
   11874:	8936                	mv	s2,a3
   11876:	beed                	j	11470 <__adddf3+0x80>
   11878:	be058ce3          	beqz	a1,11470 <__adddf3+0x80>
   1187c:	b3c9                	j	1163e <__adddf3+0x24e>
   1187e:	40c505b3          	sub	a1,a0,a2
   11882:	00b53833          	sltu	a6,a0,a1
   11886:	40e78433          	sub	s0,a5,a4
   1188a:	41040433          	sub	s0,s0,a6
   1188e:	00841813          	slli	a6,s0,0x8
   11892:	89ae                	mv	s3,a1
   11894:	06085563          	bgez	a6,118fe <__adddf3+0x50e>
   11898:	40a609b3          	sub	s3,a2,a0
   1189c:	40f70433          	sub	s0,a4,a5
   118a0:	01363633          	sltu	a2,a2,s3
   118a4:	8c11                	sub	s0,s0,a2
   118a6:	8936                	mv	s2,a3
   118a8:	c025                	beqz	s0,11908 <__adddf3+0x518>
   118aa:	8522                	mv	a0,s0
   118ac:	00000097          	auipc	ra,0x0
   118b0:	b08080e7          	jalr	-1272(ra) # 113b4 <__clzsi2>
   118b4:	ff850693          	addi	a3,a0,-8
   118b8:	02000793          	li	a5,32
   118bc:	8f95                	sub	a5,a5,a3
   118be:	00d41433          	sll	s0,s0,a3
   118c2:	00f9d7b3          	srl	a5,s3,a5
   118c6:	8fc1                	or	a5,a5,s0
   118c8:	00d99433          	sll	s0,s3,a3
   118cc:	0896c063          	blt	a3,s1,1194c <__adddf3+0x55c>
   118d0:	8e85                	sub	a3,a3,s1
   118d2:	00168613          	addi	a2,a3,1
   118d6:	477d                	li	a4,31
   118d8:	04c74763          	blt	a4,a2,11926 <__adddf3+0x536>
   118dc:	02000713          	li	a4,32
   118e0:	8f11                	sub	a4,a4,a2
   118e2:	00e79533          	sll	a0,a5,a4
   118e6:	00c456b3          	srl	a3,s0,a2
   118ea:	00e41733          	sll	a4,s0,a4
   118ee:	8d55                	or	a0,a0,a3
   118f0:	00e03733          	snez	a4,a4
   118f4:	8d59                	or	a0,a0,a4
   118f6:	00c7d7b3          	srl	a5,a5,a2
   118fa:	4481                	li	s1,0
   118fc:	bb29                	j	11616 <__adddf3+0x226>
   118fe:	8dc1                	or	a1,a1,s0
   11900:	f5c5                	bnez	a1,118a8 <__adddf3+0x4b8>
   11902:	4481                	li	s1,0
   11904:	4901                	li	s2,0
   11906:	a095                	j	1196a <__adddf3+0x57a>
   11908:	854e                	mv	a0,s3
   1190a:	00000097          	auipc	ra,0x0
   1190e:	aaa080e7          	jalr	-1366(ra) # 113b4 <__clzsi2>
   11912:	01850693          	addi	a3,a0,24
   11916:	47fd                	li	a5,31
   11918:	fad7d0e3          	bge	a5,a3,118b8 <__adddf3+0x4c8>
   1191c:	ff850793          	addi	a5,a0,-8
   11920:	00f997b3          	sll	a5,s3,a5
   11924:	b765                	j	118cc <__adddf3+0x4dc>
   11926:	1685                	addi	a3,a3,-31
   11928:	00d7d533          	srl	a0,a5,a3
   1192c:	02000693          	li	a3,32
   11930:	4701                	li	a4,0
   11932:	00d60763          	beq	a2,a3,11940 <__adddf3+0x550>
   11936:	04000713          	li	a4,64
   1193a:	8f11                	sub	a4,a4,a2
   1193c:	00e79733          	sll	a4,a5,a4
   11940:	8f41                	or	a4,a4,s0
   11942:	00e03733          	snez	a4,a4
   11946:	8d59                	or	a0,a0,a4
   11948:	4781                	li	a5,0
   1194a:	bf45                	j	118fa <__adddf3+0x50a>
   1194c:	ff800737          	lui	a4,0xff800
   11950:	177d                	addi	a4,a4,-1 # ff7fffff <__BSS_END__+0xff7e15a3>
   11952:	8c95                	sub	s1,s1,a3
   11954:	8ff9                	and	a5,a5,a4
   11956:	8522                	mv	a0,s0
   11958:	b97d                	j	11616 <__adddf3+0x226>
   1195a:	87ba                	mv	a5,a4
   1195c:	8532                	mv	a0,a2
   1195e:	b331                	j	1166a <__adddf3+0x27a>
   11960:	87ba                	mv	a5,a4
   11962:	8532                	mv	a0,a2
   11964:	b94d                	j	11616 <__adddf3+0x226>
   11966:	7ff00493          	li	s1,2047
   1196a:	4781                	li	a5,0
   1196c:	4501                	li	a0,0
   1196e:	a809                	j	11980 <__adddf3+0x590>
   11970:	84c2                	mv	s1,a6
   11972:	b155                	j	11616 <__adddf3+0x226>
   11974:	87ba                	mv	a5,a4
   11976:	8532                	mv	a0,a2
   11978:	84c2                	mv	s1,a6
   1197a:	bd45                	j	1182a <__adddf3+0x43a>
   1197c:	4781                	li	a5,0
   1197e:	4901                	li	s2,0
   11980:	00879713          	slli	a4,a5,0x8
   11984:	00075b63          	bgez	a4,1199a <__adddf3+0x5aa>
   11988:	0485                	addi	s1,s1,1
   1198a:	7ff00713          	li	a4,2047
   1198e:	04e48b63          	beq	s1,a4,119e4 <__adddf3+0x5f4>
   11992:	ff800737          	lui	a4,0xff800
   11996:	177d                	addi	a4,a4,-1 # ff7fffff <__BSS_END__+0xff7e15a3>
   11998:	8ff9                	and	a5,a5,a4
   1199a:	01d79693          	slli	a3,a5,0x1d
   1199e:	810d                	srli	a0,a0,0x3
   119a0:	7ff00713          	li	a4,2047
   119a4:	8ec9                	or	a3,a3,a0
   119a6:	838d                	srli	a5,a5,0x3
   119a8:	00e49963          	bne	s1,a4,119ba <__adddf3+0x5ca>
   119ac:	8edd                	or	a3,a3,a5
   119ae:	4781                	li	a5,0
   119b0:	c689                	beqz	a3,119ba <__adddf3+0x5ca>
   119b2:	000807b7          	lui	a5,0x80
   119b6:	4681                	li	a3,0
   119b8:	4901                	li	s2,0
   119ba:	01449713          	slli	a4,s1,0x14
   119be:	7ff00637          	lui	a2,0x7ff00
   119c2:	07b2                	slli	a5,a5,0xc
   119c4:	8f71                	and	a4,a4,a2
   119c6:	40f2                	lw	ra,28(sp)
   119c8:	4462                	lw	s0,24(sp)
   119ca:	83b1                	srli	a5,a5,0xc
   119cc:	8fd9                	or	a5,a5,a4
   119ce:	01f91713          	slli	a4,s2,0x1f
   119d2:	00e7e633          	or	a2,a5,a4
   119d6:	44d2                	lw	s1,20(sp)
   119d8:	4942                	lw	s2,16(sp)
   119da:	49b2                	lw	s3,12(sp)
   119dc:	8536                	mv	a0,a3
   119de:	85b2                	mv	a1,a2
   119e0:	6105                	addi	sp,sp,32
   119e2:	8082                	ret
   119e4:	4781                	li	a5,0
   119e6:	4501                	li	a0,0
   119e8:	bf4d                	j	1199a <__adddf3+0x5aa>

000119ea <__divdf3>:
   119ea:	7179                	addi	sp,sp,-48
   119ec:	0145d813          	srli	a6,a1,0x14
   119f0:	d226                	sw	s1,36(sp)
   119f2:	d04a                	sw	s2,32(sp)
   119f4:	ce4e                	sw	s3,28(sp)
   119f6:	c85a                	sw	s6,16(sp)
   119f8:	c65e                	sw	s7,12(sp)
   119fa:	00c59493          	slli	s1,a1,0xc
   119fe:	d606                	sw	ra,44(sp)
   11a00:	d422                	sw	s0,40(sp)
   11a02:	cc52                	sw	s4,24(sp)
   11a04:	ca56                	sw	s5,20(sp)
   11a06:	7ff87813          	andi	a6,a6,2047
   11a0a:	8b2a                	mv	s6,a0
   11a0c:	8bb2                	mv	s7,a2
   11a0e:	8936                	mv	s2,a3
   11a10:	80b1                	srli	s1,s1,0xc
   11a12:	01f5d993          	srli	s3,a1,0x1f
   11a16:	08080163          	beqz	a6,11a98 <__divdf3+0xae>
   11a1a:	7ff00793          	li	a5,2047
   11a1e:	0cf80c63          	beq	a6,a5,11af6 <__divdf3+0x10c>
   11a22:	01d55a13          	srli	s4,a0,0x1d
   11a26:	048e                	slli	s1,s1,0x3
   11a28:	009a6a33          	or	s4,s4,s1
   11a2c:	008007b7          	lui	a5,0x800
   11a30:	00fa6a33          	or	s4,s4,a5
   11a34:	00351413          	slli	s0,a0,0x3
   11a38:	c0180a93          	addi	s5,a6,-1023
   11a3c:	4b01                	li	s6,0
   11a3e:	01495713          	srli	a4,s2,0x14
   11a42:	00c91493          	slli	s1,s2,0xc
   11a46:	7ff77713          	andi	a4,a4,2047
   11a4a:	80b1                	srli	s1,s1,0xc
   11a4c:	01f95913          	srli	s2,s2,0x1f
   11a50:	c771                	beqz	a4,11b1c <__divdf3+0x132>
   11a52:	7ff00793          	li	a5,2047
   11a56:	12f70163          	beq	a4,a5,11b78 <__divdf3+0x18e>
   11a5a:	048e                	slli	s1,s1,0x3
   11a5c:	01dbd793          	srli	a5,s7,0x1d
   11a60:	8fc5                	or	a5,a5,s1
   11a62:	008004b7          	lui	s1,0x800
   11a66:	8cdd                	or	s1,s1,a5
   11a68:	003b9f13          	slli	t5,s7,0x3
   11a6c:	c0170713          	addi	a4,a4,-1023
   11a70:	4781                	li	a5,0
   11a72:	40ea8833          	sub	a6,s5,a4
   11a76:	002b1713          	slli	a4,s6,0x2
   11a7a:	8f5d                	or	a4,a4,a5
   11a7c:	177d                	addi	a4,a4,-1
   11a7e:	46b9                	li	a3,14
   11a80:	0129c633          	xor	a2,s3,s2
   11a84:	10e6ec63          	bltu	a3,a4,11b9c <__divdf3+0x1b2>
   11a88:	0001e6b7          	lui	a3,0x1e
   11a8c:	070a                	slli	a4,a4,0x2
   11a8e:	8b868693          	addi	a3,a3,-1864 # 1d8b8 <_ZTVN6tflite12_GLOBAL__N_125MicroBuiltinDataAllocatorE+0x18>
   11a92:	9736                	add	a4,a4,a3
   11a94:	4318                	lw	a4,0(a4)
   11a96:	8702                	jr	a4
   11a98:	00a4ea33          	or	s4,s1,a0
   11a9c:	060a0663          	beqz	s4,11b08 <__divdf3+0x11e>
   11aa0:	c89d                	beqz	s1,11ad6 <__divdf3+0xec>
   11aa2:	8526                	mv	a0,s1
   11aa4:	00000097          	auipc	ra,0x0
   11aa8:	910080e7          	jalr	-1776(ra) # 113b4 <__clzsi2>
   11aac:	ff550793          	addi	a5,a0,-11
   11ab0:	4a75                	li	s4,29
   11ab2:	ff850713          	addi	a4,a0,-8
   11ab6:	40fa0a33          	sub	s4,s4,a5
   11aba:	00e494b3          	sll	s1,s1,a4
   11abe:	014b5a33          	srl	s4,s6,s4
   11ac2:	009a6a33          	or	s4,s4,s1
   11ac6:	00eb14b3          	sll	s1,s6,a4
   11aca:	c0d00813          	li	a6,-1011
   11ace:	40a80ab3          	sub	s5,a6,a0
   11ad2:	8426                	mv	s0,s1
   11ad4:	b7a5                	j	11a3c <__divdf3+0x52>
   11ad6:	00000097          	auipc	ra,0x0
   11ada:	8de080e7          	jalr	-1826(ra) # 113b4 <__clzsi2>
   11ade:	8a2a                	mv	s4,a0
   11ae0:	015a0793          	addi	a5,s4,21
   11ae4:	4771                	li	a4,28
   11ae6:	02050513          	addi	a0,a0,32
   11aea:	fcf753e3          	bge	a4,a5,11ab0 <__divdf3+0xc6>
   11aee:	1a61                	addi	s4,s4,-8
   11af0:	014b1a33          	sll	s4,s6,s4
   11af4:	bfd9                	j	11aca <__divdf3+0xe0>
   11af6:	00a4ea33          	or	s4,s1,a0
   11afa:	000a1b63          	bnez	s4,11b10 <__divdf3+0x126>
   11afe:	4401                	li	s0,0
   11b00:	7ff00a93          	li	s5,2047
   11b04:	4b09                	li	s6,2
   11b06:	bf25                	j	11a3e <__divdf3+0x54>
   11b08:	4401                	li	s0,0
   11b0a:	4a81                	li	s5,0
   11b0c:	4b05                	li	s6,1
   11b0e:	bf05                	j	11a3e <__divdf3+0x54>
   11b10:	842a                	mv	s0,a0
   11b12:	8a26                	mv	s4,s1
   11b14:	7ff00a93          	li	s5,2047
   11b18:	4b0d                	li	s6,3
   11b1a:	b715                	j	11a3e <__divdf3+0x54>
   11b1c:	0174ef33          	or	t5,s1,s7
   11b20:	060f0563          	beqz	t5,11b8a <__divdf3+0x1a0>
   11b24:	c88d                	beqz	s1,11b56 <__divdf3+0x16c>
   11b26:	8526                	mv	a0,s1
   11b28:	00000097          	auipc	ra,0x0
   11b2c:	88c080e7          	jalr	-1908(ra) # 113b4 <__clzsi2>
   11b30:	ff550713          	addi	a4,a0,-11
   11b34:	47f5                	li	a5,29
   11b36:	ff850693          	addi	a3,a0,-8
   11b3a:	8f99                	sub	a5,a5,a4
   11b3c:	00d494b3          	sll	s1,s1,a3
   11b40:	00fbd7b3          	srl	a5,s7,a5
   11b44:	8fc5                	or	a5,a5,s1
   11b46:	00db94b3          	sll	s1,s7,a3
   11b4a:	c0d00713          	li	a4,-1011
   11b4e:	8f26                	mv	t5,s1
   11b50:	8f09                	sub	a4,a4,a0
   11b52:	84be                	mv	s1,a5
   11b54:	bf31                	j	11a70 <__divdf3+0x86>
   11b56:	855e                	mv	a0,s7
   11b58:	00000097          	auipc	ra,0x0
   11b5c:	85c080e7          	jalr	-1956(ra) # 113b4 <__clzsi2>
   11b60:	87aa                	mv	a5,a0
   11b62:	01578713          	addi	a4,a5,21 # 800015 <__BSS_END__+0x7e15b9>
   11b66:	46f1                	li	a3,28
   11b68:	02050513          	addi	a0,a0,32
   11b6c:	fce6d4e3          	bge	a3,a4,11b34 <__divdf3+0x14a>
   11b70:	17e1                	addi	a5,a5,-8
   11b72:	00fb97b3          	sll	a5,s7,a5
   11b76:	bfd1                	j	11b4a <__divdf3+0x160>
   11b78:	0174ef33          	or	t5,s1,s7
   11b7c:	000f1b63          	bnez	t5,11b92 <__divdf3+0x1a8>
   11b80:	4481                	li	s1,0
   11b82:	7ff00713          	li	a4,2047
   11b86:	4789                	li	a5,2
   11b88:	b5ed                	j	11a72 <__divdf3+0x88>
   11b8a:	4481                	li	s1,0
   11b8c:	4701                	li	a4,0
   11b8e:	4785                	li	a5,1
   11b90:	b5cd                	j	11a72 <__divdf3+0x88>
   11b92:	8f5e                	mv	t5,s7
   11b94:	7ff00713          	li	a4,2047
   11b98:	478d                	li	a5,3
   11b9a:	bde1                	j	11a72 <__divdf3+0x88>
   11b9c:	0144e663          	bltu	s1,s4,11ba8 <__divdf3+0x1be>
   11ba0:	2a9a1a63          	bne	s4,s1,11e54 <__divdf3+0x46a>
   11ba4:	2be46863          	bltu	s0,t5,11e54 <__divdf3+0x46a>
   11ba8:	01fa1693          	slli	a3,s4,0x1f
   11bac:	00145793          	srli	a5,s0,0x1
   11bb0:	01f41713          	slli	a4,s0,0x1f
   11bb4:	001a5a13          	srli	s4,s4,0x1
   11bb8:	00f6e433          	or	s0,a3,a5
   11bbc:	00849893          	slli	a7,s1,0x8
   11bc0:	018f5593          	srli	a1,t5,0x18
   11bc4:	0115e5b3          	or	a1,a1,a7
   11bc8:	0108d893          	srli	a7,a7,0x10
   11bcc:	031a5eb3          	divu	t4,s4,a7
   11bd0:	01059313          	slli	t1,a1,0x10
   11bd4:	01035313          	srli	t1,t1,0x10
   11bd8:	01045793          	srli	a5,s0,0x10
   11bdc:	008f1513          	slli	a0,t5,0x8
   11be0:	031a7a33          	remu	s4,s4,a7
   11be4:	86f6                	mv	a3,t4
   11be6:	03d30e33          	mul	t3,t1,t4
   11bea:	0a42                	slli	s4,s4,0x10
   11bec:	0147e7b3          	or	a5,a5,s4
   11bf0:	01c7fc63          	bgeu	a5,t3,11c08 <__divdf3+0x21e>
   11bf4:	97ae                	add	a5,a5,a1
   11bf6:	fffe8693          	addi	a3,t4,-1
   11bfa:	00b7e763          	bltu	a5,a1,11c08 <__divdf3+0x21e>
   11bfe:	01c7f563          	bgeu	a5,t3,11c08 <__divdf3+0x21e>
   11c02:	ffee8693          	addi	a3,t4,-2
   11c06:	97ae                	add	a5,a5,a1
   11c08:	41c787b3          	sub	a5,a5,t3
   11c0c:	0317df33          	divu	t5,a5,a7
   11c10:	0442                	slli	s0,s0,0x10
   11c12:	8041                	srli	s0,s0,0x10
   11c14:	0317f7b3          	remu	a5,a5,a7
   11c18:	8e7a                	mv	t3,t5
   11c1a:	03e30eb3          	mul	t4,t1,t5
   11c1e:	07c2                	slli	a5,a5,0x10
   11c20:	8fc1                	or	a5,a5,s0
   11c22:	01d7fc63          	bgeu	a5,t4,11c3a <__divdf3+0x250>
   11c26:	97ae                	add	a5,a5,a1
   11c28:	ffff0e13          	addi	t3,t5,-1
   11c2c:	00b7e763          	bltu	a5,a1,11c3a <__divdf3+0x250>
   11c30:	01d7f563          	bgeu	a5,t4,11c3a <__divdf3+0x250>
   11c34:	ffef0e13          	addi	t3,t5,-2
   11c38:	97ae                	add	a5,a5,a1
   11c3a:	06c2                	slli	a3,a3,0x10
   11c3c:	6441                	lui	s0,0x10
   11c3e:	01c6e2b3          	or	t0,a3,t3
   11c42:	fff40e13          	addi	t3,s0,-1 # ffff <exit-0x95>
   11c46:	01c2f6b3          	and	a3,t0,t3
   11c4a:	0102df93          	srli	t6,t0,0x10
   11c4e:	01c57e33          	and	t3,a0,t3
   11c52:	41d787b3          	sub	a5,a5,t4
   11c56:	01055e93          	srli	t4,a0,0x10
   11c5a:	02de03b3          	mul	t2,t3,a3
   11c5e:	03cf84b3          	mul	s1,t6,t3
   11c62:	02de86b3          	mul	a3,t4,a3
   11c66:	00968f33          	add	t5,a3,s1
   11c6a:	0103d693          	srli	a3,t2,0x10
   11c6e:	96fa                	add	a3,a3,t5
   11c70:	03df8fb3          	mul	t6,t6,t4
   11c74:	0096f363          	bgeu	a3,s1,11c7a <__divdf3+0x290>
   11c78:	9fa2                	add	t6,t6,s0
   11c7a:	0106df13          	srli	t5,a3,0x10
   11c7e:	9f7e                	add	t5,t5,t6
   11c80:	6fc1                	lui	t6,0x10
   11c82:	1ffd                	addi	t6,t6,-1 # ffff <exit-0x95>
   11c84:	01f6f6b3          	and	a3,a3,t6
   11c88:	06c2                	slli	a3,a3,0x10
   11c8a:	01f3f3b3          	and	t2,t2,t6
   11c8e:	969e                	add	a3,a3,t2
   11c90:	01e7e763          	bltu	a5,t5,11c9e <__divdf3+0x2b4>
   11c94:	8496                	mv	s1,t0
   11c96:	05e79263          	bne	a5,t5,11cda <__divdf3+0x2f0>
   11c9a:	04d77063          	bgeu	a4,a3,11cda <__divdf3+0x2f0>
   11c9e:	00a70fb3          	add	t6,a4,a0
   11ca2:	00efb3b3          	sltu	t2,t6,a4
   11ca6:	00b38433          	add	s0,t2,a1
   11caa:	97a2                	add	a5,a5,s0
   11cac:	fff28493          	addi	s1,t0,-1
   11cb0:	877e                	mv	a4,t6
   11cb2:	00f5e663          	bltu	a1,a5,11cbe <__divdf3+0x2d4>
   11cb6:	02f59263          	bne	a1,a5,11cda <__divdf3+0x2f0>
   11cba:	02039063          	bnez	t2,11cda <__divdf3+0x2f0>
   11cbe:	01e7e663          	bltu	a5,t5,11cca <__divdf3+0x2e0>
   11cc2:	00ff1c63          	bne	t5,a5,11cda <__divdf3+0x2f0>
   11cc6:	00dffa63          	bgeu	t6,a3,11cda <__divdf3+0x2f0>
   11cca:	9faa                	add	t6,t6,a0
   11ccc:	877e                	mv	a4,t6
   11cce:	00afbfb3          	sltu	t6,t6,a0
   11cd2:	9fae                	add	t6,t6,a1
   11cd4:	ffe28493          	addi	s1,t0,-2
   11cd8:	97fe                	add	a5,a5,t6
   11cda:	40d706b3          	sub	a3,a4,a3
   11cde:	41e787b3          	sub	a5,a5,t5
   11ce2:	00d73733          	sltu	a4,a4,a3
   11ce6:	8f99                	sub	a5,a5,a4
   11ce8:	5f7d                	li	t5,-1
   11cea:	0ef58963          	beq	a1,a5,11ddc <__divdf3+0x3f2>
   11cee:	0317dfb3          	divu	t6,a5,a7
   11cf2:	0106d713          	srli	a4,a3,0x10
   11cf6:	0317f7b3          	remu	a5,a5,a7
   11cfa:	03f30f33          	mul	t5,t1,t6
   11cfe:	07c2                	slli	a5,a5,0x10
   11d00:	8fd9                	or	a5,a5,a4
   11d02:	877e                	mv	a4,t6
   11d04:	01e7fc63          	bgeu	a5,t5,11d1c <__divdf3+0x332>
   11d08:	97ae                	add	a5,a5,a1
   11d0a:	ffff8713          	addi	a4,t6,-1
   11d0e:	00b7e763          	bltu	a5,a1,11d1c <__divdf3+0x332>
   11d12:	01e7f563          	bgeu	a5,t5,11d1c <__divdf3+0x332>
   11d16:	ffef8713          	addi	a4,t6,-2
   11d1a:	97ae                	add	a5,a5,a1
   11d1c:	41e787b3          	sub	a5,a5,t5
   11d20:	0317df33          	divu	t5,a5,a7
   11d24:	06c2                	slli	a3,a3,0x10
   11d26:	82c1                	srli	a3,a3,0x10
   11d28:	0317f7b3          	remu	a5,a5,a7
   11d2c:	88fa                	mv	a7,t5
   11d2e:	03e30333          	mul	t1,t1,t5
   11d32:	07c2                	slli	a5,a5,0x10
   11d34:	8fd5                	or	a5,a5,a3
   11d36:	0067fc63          	bgeu	a5,t1,11d4e <__divdf3+0x364>
   11d3a:	97ae                	add	a5,a5,a1
   11d3c:	ffff0893          	addi	a7,t5,-1
   11d40:	00b7e763          	bltu	a5,a1,11d4e <__divdf3+0x364>
   11d44:	0067f563          	bgeu	a5,t1,11d4e <__divdf3+0x364>
   11d48:	ffef0893          	addi	a7,t5,-2
   11d4c:	97ae                	add	a5,a5,a1
   11d4e:	01071693          	slli	a3,a4,0x10
   11d52:	0116e6b3          	or	a3,a3,a7
   11d56:	01069713          	slli	a4,a3,0x10
   11d5a:	8341                	srli	a4,a4,0x10
   11d5c:	406787b3          	sub	a5,a5,t1
   11d60:	0106d313          	srli	t1,a3,0x10
   11d64:	03c70f33          	mul	t5,a4,t3
   11d68:	03c30e33          	mul	t3,t1,t3
   11d6c:	026e8333          	mul	t1,t4,t1
   11d70:	02ee8eb3          	mul	t4,t4,a4
   11d74:	010f5713          	srli	a4,t5,0x10
   11d78:	9ef2                	add	t4,t4,t3
   11d7a:	9776                	add	a4,a4,t4
   11d7c:	01c77463          	bgeu	a4,t3,11d84 <__divdf3+0x39a>
   11d80:	68c1                	lui	a7,0x10
   11d82:	9346                	add	t1,t1,a7
   11d84:	01075893          	srli	a7,a4,0x10
   11d88:	989a                	add	a7,a7,t1
   11d8a:	6341                	lui	t1,0x10
   11d8c:	137d                	addi	t1,t1,-1 # ffff <exit-0x95>
   11d8e:	00677733          	and	a4,a4,t1
   11d92:	0742                	slli	a4,a4,0x10
   11d94:	006f7f33          	and	t5,t5,t1
   11d98:	977a                	add	a4,a4,t5
   11d9a:	0117e663          	bltu	a5,a7,11da6 <__divdf3+0x3bc>
   11d9e:	19179d63          	bne	a5,a7,11f38 <__divdf3+0x54e>
   11da2:	8f36                	mv	t5,a3
   11da4:	cf05                	beqz	a4,11ddc <__divdf3+0x3f2>
   11da6:	97ae                	add	a5,a5,a1
   11da8:	fff68f13          	addi	t5,a3,-1
   11dac:	833e                	mv	t1,a5
   11dae:	02b7e163          	bltu	a5,a1,11dd0 <__divdf3+0x3e6>
   11db2:	0117e663          	bltu	a5,a7,11dbe <__divdf3+0x3d4>
   11db6:	19179063          	bne	a5,a7,11f36 <__divdf3+0x54c>
   11dba:	00e57d63          	bgeu	a0,a4,11dd4 <__divdf3+0x3ea>
   11dbe:	ffe68f13          	addi	t5,a3,-2
   11dc2:	00151693          	slli	a3,a0,0x1
   11dc6:	00a6b333          	sltu	t1,a3,a0
   11dca:	932e                	add	t1,t1,a1
   11dcc:	933e                	add	t1,t1,a5
   11dce:	8536                	mv	a0,a3
   11dd0:	01131463          	bne	t1,a7,11dd8 <__divdf3+0x3ee>
   11dd4:	00a70463          	beq	a4,a0,11ddc <__divdf3+0x3f2>
   11dd8:	001f6f13          	ori	t5,t5,1
   11ddc:	3ff80713          	addi	a4,a6,1023
   11de0:	0ae05763          	blez	a4,11e8e <__divdf3+0x4a4>
   11de4:	007f7793          	andi	a5,t5,7
   11de8:	cf81                	beqz	a5,11e00 <__divdf3+0x416>
   11dea:	00ff7793          	andi	a5,t5,15
   11dee:	4691                	li	a3,4
   11df0:	00d78863          	beq	a5,a3,11e00 <__divdf3+0x416>
   11df4:	004f0793          	addi	a5,t5,4
   11df8:	01e7b6b3          	sltu	a3,a5,t5
   11dfc:	94b6                	add	s1,s1,a3
   11dfe:	8f3e                	mv	t5,a5
   11e00:	00749793          	slli	a5,s1,0x7
   11e04:	0007d863          	bgez	a5,11e14 <__divdf3+0x42a>
   11e08:	ff0007b7          	lui	a5,0xff000
   11e0c:	17fd                	addi	a5,a5,-1 # feffffff <__BSS_END__+0xfefe15a3>
   11e0e:	8cfd                	and	s1,s1,a5
   11e10:	40080713          	addi	a4,a6,1024
   11e14:	7fe00793          	li	a5,2046
   11e18:	04e7ce63          	blt	a5,a4,11e74 <__divdf3+0x48a>
   11e1c:	003f5f13          	srli	t5,t5,0x3
   11e20:	01d49793          	slli	a5,s1,0x1d
   11e24:	01e7ef33          	or	t5,a5,t5
   11e28:	0034d513          	srli	a0,s1,0x3
   11e2c:	0532                	slli	a0,a0,0xc
   11e2e:	50b2                	lw	ra,44(sp)
   11e30:	5422                	lw	s0,40(sp)
   11e32:	8131                	srli	a0,a0,0xc
   11e34:	0752                	slli	a4,a4,0x14
   11e36:	8f49                	or	a4,a4,a0
   11e38:	067e                	slli	a2,a2,0x1f
   11e3a:	00c767b3          	or	a5,a4,a2
   11e3e:	5492                	lw	s1,36(sp)
   11e40:	5902                	lw	s2,32(sp)
   11e42:	49f2                	lw	s3,28(sp)
   11e44:	4a62                	lw	s4,24(sp)
   11e46:	4ad2                	lw	s5,20(sp)
   11e48:	4b42                	lw	s6,16(sp)
   11e4a:	4bb2                	lw	s7,12(sp)
   11e4c:	857a                	mv	a0,t5
   11e4e:	85be                	mv	a1,a5
   11e50:	6145                	addi	sp,sp,48
   11e52:	8082                	ret
   11e54:	187d                	addi	a6,a6,-1
   11e56:	4701                	li	a4,0
   11e58:	b395                	j	11bbc <__divdf3+0x1d2>
   11e5a:	864e                	mv	a2,s3
   11e5c:	84d2                	mv	s1,s4
   11e5e:	8f22                	mv	t5,s0
   11e60:	87da                	mv	a5,s6
   11e62:	470d                	li	a4,3
   11e64:	0ae78b63          	beq	a5,a4,11f1a <__divdf3+0x530>
   11e68:	4705                	li	a4,1
   11e6a:	0ae78f63          	beq	a5,a4,11f28 <__divdf3+0x53e>
   11e6e:	4709                	li	a4,2
   11e70:	f6e796e3          	bne	a5,a4,11ddc <__divdf3+0x3f2>
   11e74:	4501                	li	a0,0
   11e76:	4f01                	li	t5,0
   11e78:	7ff00713          	li	a4,2047
   11e7c:	bf45                	j	11e2c <__divdf3+0x442>
   11e7e:	864a                	mv	a2,s2
   11e80:	b7cd                	j	11e62 <__divdf3+0x478>
   11e82:	000804b7          	lui	s1,0x80
   11e86:	4f01                	li	t5,0
   11e88:	4601                	li	a2,0
   11e8a:	478d                	li	a5,3
   11e8c:	bfd9                	j	11e62 <__divdf3+0x478>
   11e8e:	4505                	li	a0,1
   11e90:	8d19                	sub	a0,a0,a4
   11e92:	03800793          	li	a5,56
   11e96:	08a7c963          	blt	a5,a0,11f28 <__divdf3+0x53e>
   11e9a:	47fd                	li	a5,31
   11e9c:	04a7cb63          	blt	a5,a0,11ef2 <__divdf3+0x508>
   11ea0:	41e80813          	addi	a6,a6,1054
   11ea4:	010497b3          	sll	a5,s1,a6
   11ea8:	00af5733          	srl	a4,t5,a0
   11eac:	010f1833          	sll	a6,t5,a6
   11eb0:	8fd9                	or	a5,a5,a4
   11eb2:	01003833          	snez	a6,a6
   11eb6:	0107e7b3          	or	a5,a5,a6
   11eba:	00a4d533          	srl	a0,s1,a0
   11ebe:	0077f713          	andi	a4,a5,7
   11ec2:	cf01                	beqz	a4,11eda <__divdf3+0x4f0>
   11ec4:	00f7f713          	andi	a4,a5,15
   11ec8:	4691                	li	a3,4
   11eca:	00d70863          	beq	a4,a3,11eda <__divdf3+0x4f0>
   11ece:	00478713          	addi	a4,a5,4
   11ed2:	00f736b3          	sltu	a3,a4,a5
   11ed6:	9536                	add	a0,a0,a3
   11ed8:	87ba                	mv	a5,a4
   11eda:	00851713          	slli	a4,a0,0x8
   11ede:	04074863          	bltz	a4,11f2e <__divdf3+0x544>
   11ee2:	01d51f13          	slli	t5,a0,0x1d
   11ee6:	838d                	srli	a5,a5,0x3
   11ee8:	00ff6f33          	or	t5,t5,a5
   11eec:	810d                	srli	a0,a0,0x3
   11eee:	4701                	li	a4,0
   11ef0:	bf35                	j	11e2c <__divdf3+0x442>
   11ef2:	5785                	li	a5,-31
   11ef4:	8f99                	sub	a5,a5,a4
   11ef6:	02000693          	li	a3,32
   11efa:	00f4d7b3          	srl	a5,s1,a5
   11efe:	4701                	li	a4,0
   11f00:	00d50663          	beq	a0,a3,11f0c <__divdf3+0x522>
   11f04:	43e80713          	addi	a4,a6,1086
   11f08:	00e49733          	sll	a4,s1,a4
   11f0c:	01e76733          	or	a4,a4,t5
   11f10:	00e03733          	snez	a4,a4
   11f14:	8fd9                	or	a5,a5,a4
   11f16:	4501                	li	a0,0
   11f18:	b75d                	j	11ebe <__divdf3+0x4d4>
   11f1a:	00080537          	lui	a0,0x80
   11f1e:	4f01                	li	t5,0
   11f20:	7ff00713          	li	a4,2047
   11f24:	4601                	li	a2,0
   11f26:	b719                	j	11e2c <__divdf3+0x442>
   11f28:	4501                	li	a0,0
   11f2a:	4f01                	li	t5,0
   11f2c:	b7c9                	j	11eee <__divdf3+0x504>
   11f2e:	4501                	li	a0,0
   11f30:	4f01                	li	t5,0
   11f32:	4705                	li	a4,1
   11f34:	bde5                	j	11e2c <__divdf3+0x442>
   11f36:	86fa                	mv	a3,t5
   11f38:	8f36                	mv	t5,a3
   11f3a:	bd79                	j	11dd8 <__divdf3+0x3ee>

00011f3c <__eqdf2>:
   11f3c:	0145d713          	srli	a4,a1,0x14
   11f40:	001007b7          	lui	a5,0x100
   11f44:	17fd                	addi	a5,a5,-1 # fffff <__BSS_END__+0xe15a3>
   11f46:	0146d813          	srli	a6,a3,0x14
   11f4a:	832a                	mv	t1,a0
   11f4c:	8eaa                	mv	t4,a0
   11f4e:	7ff77713          	andi	a4,a4,2047
   11f52:	7ff00513          	li	a0,2047
   11f56:	00b7f8b3          	and	a7,a5,a1
   11f5a:	8f32                	mv	t5,a2
   11f5c:	8ff5                	and	a5,a5,a3
   11f5e:	81fd                	srli	a1,a1,0x1f
   11f60:	7ff87813          	andi	a6,a6,2047
   11f64:	82fd                	srli	a3,a3,0x1f
   11f66:	00a71a63          	bne	a4,a0,11f7a <__eqdf2+0x3e>
   11f6a:	0068ee33          	or	t3,a7,t1
   11f6e:	4505                	li	a0,1
   11f70:	000e1463          	bnez	t3,11f78 <__eqdf2+0x3c>
   11f74:	00e80563          	beq	a6,a4,11f7e <__eqdf2+0x42>
   11f78:	8082                	ret
   11f7a:	00a81563          	bne	a6,a0,11f84 <__eqdf2+0x48>
   11f7e:	8e5d                	or	a2,a2,a5
   11f80:	4505                	li	a0,1
   11f82:	fa7d                	bnez	a2,11f78 <__eqdf2+0x3c>
   11f84:	4505                	li	a0,1
   11f86:	ff0719e3          	bne	a4,a6,11f78 <__eqdf2+0x3c>
   11f8a:	fef897e3          	bne	a7,a5,11f78 <__eqdf2+0x3c>
   11f8e:	ffee95e3          	bne	t4,t5,11f78 <__eqdf2+0x3c>
   11f92:	00d58863          	beq	a1,a3,11fa2 <__eqdf2+0x66>
   11f96:	f36d                	bnez	a4,11f78 <__eqdf2+0x3c>
   11f98:	0068e8b3          	or	a7,a7,t1
   11f9c:	01103533          	snez	a0,a7
   11fa0:	8082                	ret
   11fa2:	4501                	li	a0,0
   11fa4:	8082                	ret

00011fa6 <__gedf2>:
   11fa6:	0146d793          	srli	a5,a3,0x14
   11faa:	0145d893          	srli	a7,a1,0x14
   11fae:	00100737          	lui	a4,0x100
   11fb2:	177d                	addi	a4,a4,-1 # fffff <__BSS_END__+0xe15a3>
   11fb4:	882a                	mv	a6,a0
   11fb6:	8e2a                	mv	t3,a0
   11fb8:	7ff8f893          	andi	a7,a7,2047
   11fbc:	7ff7f513          	andi	a0,a5,2047
   11fc0:	7ff00793          	li	a5,2047
   11fc4:	00b77333          	and	t1,a4,a1
   11fc8:	8eb2                	mv	t4,a2
   11fca:	8f75                	and	a4,a4,a3
   11fcc:	81fd                	srli	a1,a1,0x1f
   11fce:	82fd                	srli	a3,a3,0x1f
   11fd0:	00f89563          	bne	a7,a5,11fda <__gedf2+0x34>
   11fd4:	010367b3          	or	a5,t1,a6
   11fd8:	eba9                	bnez	a5,1202a <__gedf2+0x84>
   11fda:	7ff00793          	li	a5,2047
   11fde:	00f51563          	bne	a0,a5,11fe8 <__gedf2+0x42>
   11fe2:	00c767b3          	or	a5,a4,a2
   11fe6:	e3b1                	bnez	a5,1202a <__gedf2+0x84>
   11fe8:	4781                	li	a5,0
   11fea:	00089663          	bnez	a7,11ff6 <__gedf2+0x50>
   11fee:	01036833          	or	a6,t1,a6
   11ff2:	00183793          	seqz	a5,a6
   11ff6:	ed05                	bnez	a0,1202e <__gedf2+0x88>
   11ff8:	8e59                	or	a2,a2,a4
   11ffa:	c791                	beqz	a5,12006 <__gedf2+0x60>
   11ffc:	ca01                	beqz	a2,1200c <__gedf2+0x66>
   11ffe:	4505                	li	a0,1
   12000:	e691                	bnez	a3,1200c <__gedf2+0x66>
   12002:	557d                	li	a0,-1
   12004:	8082                	ret
   12006:	e60d                	bnez	a2,12030 <__gedf2+0x8a>
   12008:	557d                	li	a0,-1
   1200a:	c98d                	beqz	a1,1203c <__gedf2+0x96>
   1200c:	8082                	ret
   1200e:	fea8c8e3          	blt	a7,a0,11ffe <__gedf2+0x58>
   12012:	fe676be3          	bltu	a4,t1,12008 <__gedf2+0x62>
   12016:	00e31763          	bne	t1,a4,12024 <__gedf2+0x7e>
   1201a:	ffcee7e3          	bltu	t4,t3,12008 <__gedf2+0x62>
   1201e:	4501                	li	a0,0
   12020:	ffde76e3          	bgeu	t3,t4,1200c <__gedf2+0x66>
   12024:	4505                	li	a0,1
   12026:	f1fd                	bnez	a1,1200c <__gedf2+0x66>
   12028:	bfe9                	j	12002 <__gedf2+0x5c>
   1202a:	5579                	li	a0,-2
   1202c:	8082                	ret
   1202e:	fbe1                	bnez	a5,11ffe <__gedf2+0x58>
   12030:	fcb69ce3          	bne	a3,a1,12008 <__gedf2+0x62>
   12034:	fd155de3          	bge	a0,a7,1200e <__gedf2+0x68>
   12038:	557d                	li	a0,-1
   1203a:	fae9                	bnez	a3,1200c <__gedf2+0x66>
   1203c:	4505                	li	a0,1
   1203e:	8082                	ret

00012040 <__ledf2>:
   12040:	0146d793          	srli	a5,a3,0x14
   12044:	0145d893          	srli	a7,a1,0x14
   12048:	00100737          	lui	a4,0x100
   1204c:	177d                	addi	a4,a4,-1 # fffff <__BSS_END__+0xe15a3>
   1204e:	882a                	mv	a6,a0
   12050:	8e2a                	mv	t3,a0
   12052:	7ff8f893          	andi	a7,a7,2047
   12056:	7ff7f513          	andi	a0,a5,2047
   1205a:	7ff00793          	li	a5,2047
   1205e:	00b77333          	and	t1,a4,a1
   12062:	8eb2                	mv	t4,a2
   12064:	8f75                	and	a4,a4,a3
   12066:	81fd                	srli	a1,a1,0x1f
   12068:	82fd                	srli	a3,a3,0x1f
   1206a:	00f89563          	bne	a7,a5,12074 <__ledf2+0x34>
   1206e:	010367b3          	or	a5,t1,a6
   12072:	eba9                	bnez	a5,120c4 <__ledf2+0x84>
   12074:	7ff00793          	li	a5,2047
   12078:	00f51563          	bne	a0,a5,12082 <__ledf2+0x42>
   1207c:	00c767b3          	or	a5,a4,a2
   12080:	e3b1                	bnez	a5,120c4 <__ledf2+0x84>
   12082:	4781                	li	a5,0
   12084:	00089663          	bnez	a7,12090 <__ledf2+0x50>
   12088:	01036833          	or	a6,t1,a6
   1208c:	00183793          	seqz	a5,a6
   12090:	ed05                	bnez	a0,120c8 <__ledf2+0x88>
   12092:	8e59                	or	a2,a2,a4
   12094:	c791                	beqz	a5,120a0 <__ledf2+0x60>
   12096:	ca01                	beqz	a2,120a6 <__ledf2+0x66>
   12098:	4505                	li	a0,1
   1209a:	e691                	bnez	a3,120a6 <__ledf2+0x66>
   1209c:	557d                	li	a0,-1
   1209e:	8082                	ret
   120a0:	e60d                	bnez	a2,120ca <__ledf2+0x8a>
   120a2:	557d                	li	a0,-1
   120a4:	c98d                	beqz	a1,120d6 <__ledf2+0x96>
   120a6:	8082                	ret
   120a8:	fea8c8e3          	blt	a7,a0,12098 <__ledf2+0x58>
   120ac:	fe676be3          	bltu	a4,t1,120a2 <__ledf2+0x62>
   120b0:	00e31763          	bne	t1,a4,120be <__ledf2+0x7e>
   120b4:	ffcee7e3          	bltu	t4,t3,120a2 <__ledf2+0x62>
   120b8:	4501                	li	a0,0
   120ba:	ffde76e3          	bgeu	t3,t4,120a6 <__ledf2+0x66>
   120be:	4505                	li	a0,1
   120c0:	f1fd                	bnez	a1,120a6 <__ledf2+0x66>
   120c2:	bfe9                	j	1209c <__ledf2+0x5c>
   120c4:	4509                	li	a0,2
   120c6:	8082                	ret
   120c8:	fbe1                	bnez	a5,12098 <__ledf2+0x58>
   120ca:	fcb69ce3          	bne	a3,a1,120a2 <__ledf2+0x62>
   120ce:	fd155de3          	bge	a0,a7,120a8 <__ledf2+0x68>
   120d2:	557d                	li	a0,-1
   120d4:	fae9                	bnez	a3,120a6 <__ledf2+0x66>
   120d6:	4505                	li	a0,1
   120d8:	8082                	ret

000120da <__muldf3>:
   120da:	7179                	addi	sp,sp,-48
   120dc:	ca56                	sw	s5,20(sp)
   120de:	0145da93          	srli	s5,a1,0x14
   120e2:	d422                	sw	s0,40(sp)
   120e4:	d226                	sw	s1,36(sp)
   120e6:	ce4e                	sw	s3,28(sp)
   120e8:	cc52                	sw	s4,24(sp)
   120ea:	c85a                	sw	s6,16(sp)
   120ec:	00c59493          	slli	s1,a1,0xc
   120f0:	d606                	sw	ra,44(sp)
   120f2:	d04a                	sw	s2,32(sp)
   120f4:	c65e                	sw	s7,12(sp)
   120f6:	7ffafa93          	andi	s5,s5,2047
   120fa:	842a                	mv	s0,a0
   120fc:	8b32                	mv	s6,a2
   120fe:	89b6                	mv	s3,a3
   12100:	80b1                	srli	s1,s1,0xc
   12102:	01f5da13          	srli	s4,a1,0x1f
   12106:	1e0a8163          	beqz	s5,122e8 <__muldf3+0x20e>
   1210a:	7ff00793          	li	a5,2047
   1210e:	22fa8b63          	beq	s5,a5,12344 <__muldf3+0x26a>
   12112:	048e                	slli	s1,s1,0x3
   12114:	01d55793          	srli	a5,a0,0x1d
   12118:	8fc5                	or	a5,a5,s1
   1211a:	008004b7          	lui	s1,0x800
   1211e:	8cdd                	or	s1,s1,a5
   12120:	00351913          	slli	s2,a0,0x3
   12124:	c01a8a93          	addi	s5,s5,-1023
   12128:	4b81                	li	s7,0
   1212a:	0149d713          	srli	a4,s3,0x14
   1212e:	00c99413          	slli	s0,s3,0xc
   12132:	7ff77713          	andi	a4,a4,2047
   12136:	8031                	srli	s0,s0,0xc
   12138:	01f9d993          	srli	s3,s3,0x1f
   1213c:	22070663          	beqz	a4,12368 <__muldf3+0x28e>
   12140:	7ff00793          	li	a5,2047
   12144:	26f70f63          	beq	a4,a5,123c2 <__muldf3+0x2e8>
   12148:	040e                	slli	s0,s0,0x3
   1214a:	01db5793          	srli	a5,s6,0x1d
   1214e:	8fc1                	or	a5,a5,s0
   12150:	00800437          	lui	s0,0x800
   12154:	8c5d                	or	s0,s0,a5
   12156:	c0170693          	addi	a3,a4,-1023
   1215a:	003b1793          	slli	a5,s6,0x3
   1215e:	4701                	li	a4,0
   12160:	9ab6                	add	s5,s5,a3
   12162:	002b9693          	slli	a3,s7,0x2
   12166:	8ed9                	or	a3,a3,a4
   12168:	4629                	li	a2,10
   1216a:	001a8513          	addi	a0,s5,1
   1216e:	30d64d63          	blt	a2,a3,12488 <__muldf3+0x3ae>
   12172:	4609                	li	a2,2
   12174:	013a45b3          	xor	a1,s4,s3
   12178:	26d64663          	blt	a2,a3,123e4 <__muldf3+0x30a>
   1217c:	16fd                	addi	a3,a3,-1
   1217e:	4605                	li	a2,1
   12180:	28d67163          	bgeu	a2,a3,12402 <__muldf3+0x328>
   12184:	6341                	lui	t1,0x10
   12186:	fff30e13          	addi	t3,t1,-1 # ffff <exit-0x95>
   1218a:	01095713          	srli	a4,s2,0x10
   1218e:	0107d893          	srli	a7,a5,0x10
   12192:	01c97933          	and	s2,s2,t3
   12196:	01c7ff33          	and	t5,a5,t3
   1219a:	03e907b3          	mul	a5,s2,t5
   1219e:	03e70eb3          	mul	t4,a4,t5
   121a2:	0107d813          	srli	a6,a5,0x10
   121a6:	03288633          	mul	a2,a7,s2
   121aa:	9676                	add	a2,a2,t4
   121ac:	9832                	add	a6,a6,a2
   121ae:	031706b3          	mul	a3,a4,a7
   121b2:	01d87363          	bgeu	a6,t4,121b8 <__muldf3+0xde>
   121b6:	969a                	add	a3,a3,t1
   121b8:	01085293          	srli	t0,a6,0x10
   121bc:	01c87833          	and	a6,a6,t3
   121c0:	01c7f7b3          	and	a5,a5,t3
   121c4:	01045613          	srli	a2,s0,0x10
   121c8:	01c47e33          	and	t3,s0,t3
   121cc:	0842                	slli	a6,a6,0x10
   121ce:	983e                	add	a6,a6,a5
   121d0:	03c90eb3          	mul	t4,s2,t3
   121d4:	03c707b3          	mul	a5,a4,t3
   121d8:	03260933          	mul	s2,a2,s2
   121dc:	02c70333          	mul	t1,a4,a2
   121e0:	993e                	add	s2,s2,a5
   121e2:	010ed713          	srli	a4,t4,0x10
   121e6:	974a                	add	a4,a4,s2
   121e8:	00f77463          	bgeu	a4,a5,121f0 <__muldf3+0x116>
   121ec:	67c1                	lui	a5,0x10
   121ee:	933e                	add	t1,t1,a5
   121f0:	6441                	lui	s0,0x10
   121f2:	01075793          	srli	a5,a4,0x10
   121f6:	fff40f93          	addi	t6,s0,-1 # ffff <exit-0x95>
   121fa:	933e                	add	t1,t1,a5
   121fc:	01f777b3          	and	a5,a4,t6
   12200:	01fefeb3          	and	t4,t4,t6
   12204:	07c2                	slli	a5,a5,0x10
   12206:	01f4ffb3          	and	t6,s1,t6
   1220a:	97f6                	add	a5,a5,t4
   1220c:	0104de93          	srli	t4,s1,0x10
   12210:	03ff03b3          	mul	t2,t5,t6
   12214:	92be                	add	t0,t0,a5
   12216:	03ee8f33          	mul	t5,t4,t5
   1221a:	0103d713          	srli	a4,t2,0x10
   1221e:	03d884b3          	mul	s1,a7,t4
   12222:	03f888b3          	mul	a7,a7,t6
   12226:	98fa                	add	a7,a7,t5
   12228:	9746                	add	a4,a4,a7
   1222a:	01e77363          	bgeu	a4,t5,12230 <__muldf3+0x156>
   1222e:	94a2                	add	s1,s1,s0
   12230:	01075f13          	srli	t5,a4,0x10
   12234:	9f26                	add	t5,t5,s1
   12236:	64c1                	lui	s1,0x10
   12238:	fff48413          	addi	s0,s1,-1 # ffff <exit-0x95>
   1223c:	8f61                	and	a4,a4,s0
   1223e:	0083f3b3          	and	t2,t2,s0
   12242:	0742                	slli	a4,a4,0x10
   12244:	007708b3          	add	a7,a4,t2
   12248:	03fe03b3          	mul	t2,t3,t6
   1224c:	03ce8e33          	mul	t3,t4,t3
   12250:	03d60eb3          	mul	t4,a2,t4
   12254:	03f60633          	mul	a2,a2,t6
   12258:	0103df93          	srli	t6,t2,0x10
   1225c:	9672                	add	a2,a2,t3
   1225e:	9fb2                	add	t6,t6,a2
   12260:	01cff363          	bgeu	t6,t3,12266 <__muldf3+0x18c>
   12264:	9ea6                	add	t4,t4,s1
   12266:	008ff733          	and	a4,t6,s0
   1226a:	0083f3b3          	and	t2,t2,s0
   1226e:	0742                	slli	a4,a4,0x10
   12270:	9696                	add	a3,a3,t0
   12272:	971e                	add	a4,a4,t2
   12274:	933a                	add	t1,t1,a4
   12276:	00f6b7b3          	sltu	a5,a3,a5
   1227a:	979a                	add	a5,a5,t1
   1227c:	00e33633          	sltu	a2,t1,a4
   12280:	98b6                	add	a7,a7,a3
   12282:	0067b333          	sltu	t1,a5,t1
   12286:	00666633          	or	a2,a2,t1
   1228a:	00d8b6b3          	sltu	a3,a7,a3
   1228e:	01e78333          	add	t1,a5,t5
   12292:	969a                	add	a3,a3,t1
   12294:	00f33733          	sltu	a4,t1,a5
   12298:	010fdf93          	srli	t6,t6,0x10
   1229c:	0066b333          	sltu	t1,a3,t1
   122a0:	00989793          	slli	a5,a7,0x9
   122a4:	967e                	add	a2,a2,t6
   122a6:	00676733          	or	a4,a4,t1
   122aa:	9732                	add	a4,a4,a2
   122ac:	0107e7b3          	or	a5,a5,a6
   122b0:	9776                	add	a4,a4,t4
   122b2:	00f037b3          	snez	a5,a5
   122b6:	0178d893          	srli	a7,a7,0x17
   122ba:	0726                	slli	a4,a4,0x9
   122bc:	0176d413          	srli	s0,a3,0x17
   122c0:	0117e7b3          	or	a5,a5,a7
   122c4:	06a6                	slli	a3,a3,0x9
   122c6:	8fd5                	or	a5,a5,a3
   122c8:	00771693          	slli	a3,a4,0x7
   122cc:	8c59                	or	s0,s0,a4
   122ce:	0006db63          	bgez	a3,122e4 <__muldf3+0x20a>
   122d2:	0017d713          	srli	a4,a5,0x1
   122d6:	8b85                	andi	a5,a5,1
   122d8:	8f5d                	or	a4,a4,a5
   122da:	01f41793          	slli	a5,s0,0x1f
   122de:	8fd9                	or	a5,a5,a4
   122e0:	8005                	srli	s0,s0,0x1
   122e2:	8aaa                	mv	s5,a0
   122e4:	8556                	mv	a0,s5
   122e6:	a23d                	j	12414 <__muldf3+0x33a>
   122e8:	00a4e933          	or	s2,s1,a0
   122ec:	06090563          	beqz	s2,12356 <__muldf3+0x27c>
   122f0:	c895                	beqz	s1,12324 <__muldf3+0x24a>
   122f2:	8526                	mv	a0,s1
   122f4:	fffff097          	auipc	ra,0xfffff
   122f8:	0c0080e7          	jalr	192(ra) # 113b4 <__clzsi2>
   122fc:	ff550713          	addi	a4,a0,-11 # 7fff5 <__BSS_END__+0x61599>
   12300:	47f5                	li	a5,29
   12302:	ff850693          	addi	a3,a0,-8
   12306:	8f99                	sub	a5,a5,a4
   12308:	00d494b3          	sll	s1,s1,a3
   1230c:	00f457b3          	srl	a5,s0,a5
   12310:	8fc5                	or	a5,a5,s1
   12312:	00d414b3          	sll	s1,s0,a3
   12316:	c0d00a93          	li	s5,-1011
   1231a:	8926                	mv	s2,s1
   1231c:	40aa8ab3          	sub	s5,s5,a0
   12320:	84be                	mv	s1,a5
   12322:	b519                	j	12128 <__muldf3+0x4e>
   12324:	fffff097          	auipc	ra,0xfffff
   12328:	090080e7          	jalr	144(ra) # 113b4 <__clzsi2>
   1232c:	87aa                	mv	a5,a0
   1232e:	01578713          	addi	a4,a5,21 # 10015 <exit-0x7f>
   12332:	46f1                	li	a3,28
   12334:	02050513          	addi	a0,a0,32
   12338:	fce6d4e3          	bge	a3,a4,12300 <__muldf3+0x226>
   1233c:	17e1                	addi	a5,a5,-8
   1233e:	00f417b3          	sll	a5,s0,a5
   12342:	bfd1                	j	12316 <__muldf3+0x23c>
   12344:	00a4e933          	or	s2,s1,a0
   12348:	00091b63          	bnez	s2,1235e <__muldf3+0x284>
   1234c:	4481                	li	s1,0
   1234e:	7ff00a93          	li	s5,2047
   12352:	4b89                	li	s7,2
   12354:	bbd9                	j	1212a <__muldf3+0x50>
   12356:	4481                	li	s1,0
   12358:	4a81                	li	s5,0
   1235a:	4b85                	li	s7,1
   1235c:	b3f9                	j	1212a <__muldf3+0x50>
   1235e:	892a                	mv	s2,a0
   12360:	7ff00a93          	li	s5,2047
   12364:	4b8d                	li	s7,3
   12366:	b3d1                	j	1212a <__muldf3+0x50>
   12368:	016467b3          	or	a5,s0,s6
   1236c:	c3bd                	beqz	a5,123d2 <__muldf3+0x2f8>
   1236e:	c80d                	beqz	s0,123a0 <__muldf3+0x2c6>
   12370:	8522                	mv	a0,s0
   12372:	fffff097          	auipc	ra,0xfffff
   12376:	042080e7          	jalr	66(ra) # 113b4 <__clzsi2>
   1237a:	ff550693          	addi	a3,a0,-11
   1237e:	4775                	li	a4,29
   12380:	ff850793          	addi	a5,a0,-8
   12384:	8f15                	sub	a4,a4,a3
   12386:	00f41433          	sll	s0,s0,a5
   1238a:	00eb5733          	srl	a4,s6,a4
   1238e:	8f41                	or	a4,a4,s0
   12390:	00fb1433          	sll	s0,s6,a5
   12394:	c0d00693          	li	a3,-1011
   12398:	87a2                	mv	a5,s0
   1239a:	8e89                	sub	a3,a3,a0
   1239c:	843a                	mv	s0,a4
   1239e:	b3c1                	j	1215e <__muldf3+0x84>
   123a0:	855a                	mv	a0,s6
   123a2:	fffff097          	auipc	ra,0xfffff
   123a6:	012080e7          	jalr	18(ra) # 113b4 <__clzsi2>
   123aa:	87aa                	mv	a5,a0
   123ac:	01578693          	addi	a3,a5,21
   123b0:	4771                	li	a4,28
   123b2:	02050513          	addi	a0,a0,32
   123b6:	fcd754e3          	bge	a4,a3,1237e <__muldf3+0x2a4>
   123ba:	17e1                	addi	a5,a5,-8
   123bc:	00fb1733          	sll	a4,s6,a5
   123c0:	bfd1                	j	12394 <__muldf3+0x2ba>
   123c2:	016467b3          	or	a5,s0,s6
   123c6:	eb91                	bnez	a5,123da <__muldf3+0x300>
   123c8:	4401                	li	s0,0
   123ca:	7ff00693          	li	a3,2047
   123ce:	4709                	li	a4,2
   123d0:	bb41                	j	12160 <__muldf3+0x86>
   123d2:	4401                	li	s0,0
   123d4:	4681                	li	a3,0
   123d6:	4705                	li	a4,1
   123d8:	b361                	j	12160 <__muldf3+0x86>
   123da:	87da                	mv	a5,s6
   123dc:	7ff00693          	li	a3,2047
   123e0:	470d                	li	a4,3
   123e2:	bbbd                	j	12160 <__muldf3+0x86>
   123e4:	4605                	li	a2,1
   123e6:	00d61633          	sll	a2,a2,a3
   123ea:	53067693          	andi	a3,a2,1328
   123ee:	e6c5                	bnez	a3,12496 <__muldf3+0x3bc>
   123f0:	24067813          	andi	a6,a2,576
   123f4:	12081f63          	bnez	a6,12532 <__muldf3+0x458>
   123f8:	08867613          	andi	a2,a2,136
   123fc:	d80604e3          	beqz	a2,12184 <__muldf3+0xaa>
   12400:	85ce                	mv	a1,s3
   12402:	4689                	li	a3,2
   12404:	12d70263          	beq	a4,a3,12528 <__muldf3+0x44e>
   12408:	468d                	li	a3,3
   1240a:	12d70a63          	beq	a4,a3,1253e <__muldf3+0x464>
   1240e:	4685                	li	a3,1
   12410:	12d70b63          	beq	a4,a3,12546 <__muldf3+0x46c>
   12414:	3ff50613          	addi	a2,a0,1023
   12418:	08c05363          	blez	a2,1249e <__muldf3+0x3c4>
   1241c:	0077f713          	andi	a4,a5,7
   12420:	cf01                	beqz	a4,12438 <__muldf3+0x35e>
   12422:	00f7f713          	andi	a4,a5,15
   12426:	4691                	li	a3,4
   12428:	00d70863          	beq	a4,a3,12438 <__muldf3+0x35e>
   1242c:	00478713          	addi	a4,a5,4
   12430:	00f736b3          	sltu	a3,a4,a5
   12434:	9436                	add	s0,s0,a3
   12436:	87ba                	mv	a5,a4
   12438:	00741713          	slli	a4,s0,0x7
   1243c:	00075863          	bgez	a4,1244c <__muldf3+0x372>
   12440:	ff000737          	lui	a4,0xff000
   12444:	177d                	addi	a4,a4,-1 # feffffff <__BSS_END__+0xfefe15a3>
   12446:	8c79                	and	s0,s0,a4
   12448:	40050613          	addi	a2,a0,1024
   1244c:	7fe00713          	li	a4,2046
   12450:	0cc74c63          	blt	a4,a2,12528 <__muldf3+0x44e>
   12454:	838d                	srli	a5,a5,0x3
   12456:	01d41693          	slli	a3,s0,0x1d
   1245a:	8edd                	or	a3,a3,a5
   1245c:	00345713          	srli	a4,s0,0x3
   12460:	0732                	slli	a4,a4,0xc
   12462:	50b2                	lw	ra,44(sp)
   12464:	5422                	lw	s0,40(sp)
   12466:	0652                	slli	a2,a2,0x14
   12468:	8331                	srli	a4,a4,0xc
   1246a:	05fe                	slli	a1,a1,0x1f
   1246c:	8e59                	or	a2,a2,a4
   1246e:	00b667b3          	or	a5,a2,a1
   12472:	5492                	lw	s1,36(sp)
   12474:	5902                	lw	s2,32(sp)
   12476:	49f2                	lw	s3,28(sp)
   12478:	4a62                	lw	s4,24(sp)
   1247a:	4ad2                	lw	s5,20(sp)
   1247c:	4b42                	lw	s6,16(sp)
   1247e:	4bb2                	lw	s7,12(sp)
   12480:	8536                	mv	a0,a3
   12482:	85be                	mv	a1,a5
   12484:	6145                	addi	sp,sp,48
   12486:	8082                	ret
   12488:	463d                	li	a2,15
   1248a:	0ac68a63          	beq	a3,a2,1253e <__muldf3+0x464>
   1248e:	462d                	li	a2,11
   12490:	85d2                	mv	a1,s4
   12492:	f6c687e3          	beq	a3,a2,12400 <__muldf3+0x326>
   12496:	8426                	mv	s0,s1
   12498:	87ca                	mv	a5,s2
   1249a:	875e                	mv	a4,s7
   1249c:	b79d                	j	12402 <__muldf3+0x328>
   1249e:	4705                	li	a4,1
   124a0:	8f11                	sub	a4,a4,a2
   124a2:	03800693          	li	a3,56
   124a6:	0ae6c063          	blt	a3,a4,12546 <__muldf3+0x46c>
   124aa:	46fd                	li	a3,31
   124ac:	04e6ca63          	blt	a3,a4,12500 <__muldf3+0x426>
   124b0:	41e50513          	addi	a0,a0,1054
   124b4:	00e7d633          	srl	a2,a5,a4
   124b8:	00a416b3          	sll	a3,s0,a0
   124bc:	00a79533          	sll	a0,a5,a0
   124c0:	8ed1                	or	a3,a3,a2
   124c2:	00a03533          	snez	a0,a0
   124c6:	00a6e7b3          	or	a5,a3,a0
   124ca:	00e45733          	srl	a4,s0,a4
   124ce:	0077f693          	andi	a3,a5,7
   124d2:	ce81                	beqz	a3,124ea <__muldf3+0x410>
   124d4:	00f7f693          	andi	a3,a5,15
   124d8:	4611                	li	a2,4
   124da:	00c68863          	beq	a3,a2,124ea <__muldf3+0x410>
   124de:	00478693          	addi	a3,a5,4
   124e2:	00f6b633          	sltu	a2,a3,a5
   124e6:	9732                	add	a4,a4,a2
   124e8:	87b6                	mv	a5,a3
   124ea:	00871693          	slli	a3,a4,0x8
   124ee:	0406cf63          	bltz	a3,1254c <__muldf3+0x472>
   124f2:	01d71693          	slli	a3,a4,0x1d
   124f6:	838d                	srli	a5,a5,0x3
   124f8:	8edd                	or	a3,a3,a5
   124fa:	830d                	srli	a4,a4,0x3
   124fc:	4601                	li	a2,0
   124fe:	b78d                	j	12460 <__muldf3+0x386>
   12500:	5685                	li	a3,-31
   12502:	8e91                	sub	a3,a3,a2
   12504:	02000813          	li	a6,32
   12508:	00d456b3          	srl	a3,s0,a3
   1250c:	4601                	li	a2,0
   1250e:	01070663          	beq	a4,a6,1251a <__muldf3+0x440>
   12512:	43e50613          	addi	a2,a0,1086
   12516:	00c41633          	sll	a2,s0,a2
   1251a:	8e5d                	or	a2,a2,a5
   1251c:	00c03633          	snez	a2,a2
   12520:	00c6e7b3          	or	a5,a3,a2
   12524:	4701                	li	a4,0
   12526:	b765                	j	124ce <__muldf3+0x3f4>
   12528:	4701                	li	a4,0
   1252a:	4681                	li	a3,0
   1252c:	7ff00613          	li	a2,2047
   12530:	bf05                	j	12460 <__muldf3+0x386>
   12532:	00080737          	lui	a4,0x80
   12536:	7ff00613          	li	a2,2047
   1253a:	4581                	li	a1,0
   1253c:	b715                	j	12460 <__muldf3+0x386>
   1253e:	00080737          	lui	a4,0x80
   12542:	4681                	li	a3,0
   12544:	bfcd                	j	12536 <__muldf3+0x45c>
   12546:	4701                	li	a4,0
   12548:	4681                	li	a3,0
   1254a:	bf4d                	j	124fc <__muldf3+0x422>
   1254c:	4701                	li	a4,0
   1254e:	4681                	li	a3,0
   12550:	4605                	li	a2,1
   12552:	b739                	j	12460 <__muldf3+0x386>

00012554 <__subdf3>:
   12554:	00100837          	lui	a6,0x100
   12558:	187d                	addi	a6,a6,-1 # fffff <__BSS_END__+0xe15a3>
   1255a:	1101                	addi	sp,sp,-32
   1255c:	00b878b3          	and	a7,a6,a1
   12560:	0145d713          	srli	a4,a1,0x14
   12564:	01d55793          	srli	a5,a0,0x1d
   12568:	00d87833          	and	a6,a6,a3
   1256c:	c84a                	sw	s2,16(sp)
   1256e:	7ff77913          	andi	s2,a4,2047
   12572:	00389713          	slli	a4,a7,0x3
   12576:	0146d893          	srli	a7,a3,0x14
   1257a:	ca26                	sw	s1,20(sp)
   1257c:	8fd9                	or	a5,a5,a4
   1257e:	01f5d493          	srli	s1,a1,0x1f
   12582:	01d65713          	srli	a4,a2,0x1d
   12586:	080e                	slli	a6,a6,0x3
   12588:	ce06                	sw	ra,28(sp)
   1258a:	cc22                	sw	s0,24(sp)
   1258c:	c64e                	sw	s3,12(sp)
   1258e:	7ff8f893          	andi	a7,a7,2047
   12592:	7ff00593          	li	a1,2047
   12596:	050e                	slli	a0,a0,0x3
   12598:	82fd                	srli	a3,a3,0x1f
   1259a:	01076733          	or	a4,a4,a6
   1259e:	060e                	slli	a2,a2,0x3
   125a0:	00b89563          	bne	a7,a1,125aa <__subdf3+0x56>
   125a4:	00c765b3          	or	a1,a4,a2
   125a8:	e199                	bnez	a1,125ae <__subdf3+0x5a>
   125aa:	0016c693          	xori	a3,a3,1
   125ae:	41190833          	sub	a6,s2,a7
   125b2:	22969b63          	bne	a3,s1,127e8 <__subdf3+0x294>
   125b6:	0f005563          	blez	a6,126a0 <__subdf3+0x14c>
   125ba:	02089963          	bnez	a7,125ec <__subdf3+0x98>
   125be:	00c766b3          	or	a3,a4,a2
   125c2:	52068863          	beqz	a3,12af2 <__subdf3+0x59e>
   125c6:	fff80593          	addi	a1,a6,-1
   125ca:	e991                	bnez	a1,125de <__subdf3+0x8a>
   125cc:	962a                	add	a2,a2,a0
   125ce:	00a636b3          	sltu	a3,a2,a0
   125d2:	973e                	add	a4,a4,a5
   125d4:	8532                	mv	a0,a2
   125d6:	00d707b3          	add	a5,a4,a3
   125da:	4905                	li	s2,1
   125dc:	a8b9                	j	1263a <__subdf3+0xe6>
   125de:	7ff00693          	li	a3,2047
   125e2:	00d81d63          	bne	a6,a3,125fc <__subdf3+0xa8>
   125e6:	7ff00913          	li	s2,2047
   125ea:	a25d                	j	12790 <__subdf3+0x23c>
   125ec:	7ff00693          	li	a3,2047
   125f0:	1ad90063          	beq	s2,a3,12790 <__subdf3+0x23c>
   125f4:	008006b7          	lui	a3,0x800
   125f8:	8f55                	or	a4,a4,a3
   125fa:	85c2                	mv	a1,a6
   125fc:	03800693          	li	a3,56
   12600:	08b6cb63          	blt	a3,a1,12696 <__subdf3+0x142>
   12604:	46fd                	li	a3,31
   12606:	06b6c163          	blt	a3,a1,12668 <__subdf3+0x114>
   1260a:	02000813          	li	a6,32
   1260e:	40b80833          	sub	a6,a6,a1
   12612:	010716b3          	sll	a3,a4,a6
   12616:	00b658b3          	srl	a7,a2,a1
   1261a:	01061833          	sll	a6,a2,a6
   1261e:	0116e6b3          	or	a3,a3,a7
   12622:	01003833          	snez	a6,a6
   12626:	0106e6b3          	or	a3,a3,a6
   1262a:	00b755b3          	srl	a1,a4,a1
   1262e:	9536                	add	a0,a0,a3
   12630:	95be                	add	a1,a1,a5
   12632:	00d536b3          	sltu	a3,a0,a3
   12636:	00d587b3          	add	a5,a1,a3
   1263a:	00879713          	slli	a4,a5,0x8
   1263e:	14075963          	bgez	a4,12790 <__subdf3+0x23c>
   12642:	0905                	addi	s2,s2,1
   12644:	7ff00713          	li	a4,2047
   12648:	4ae90263          	beq	s2,a4,12aec <__subdf3+0x598>
   1264c:	ff800737          	lui	a4,0xff800
   12650:	177d                	addi	a4,a4,-1 # ff7fffff <__BSS_END__+0xff7e15a3>
   12652:	8f7d                	and	a4,a4,a5
   12654:	00155793          	srli	a5,a0,0x1
   12658:	8905                	andi	a0,a0,1
   1265a:	8fc9                	or	a5,a5,a0
   1265c:	01f71513          	slli	a0,a4,0x1f
   12660:	8d5d                	or	a0,a0,a5
   12662:	00175793          	srli	a5,a4,0x1
   12666:	a22d                	j	12790 <__subdf3+0x23c>
   12668:	fe058693          	addi	a3,a1,-32
   1266c:	02000893          	li	a7,32
   12670:	00d756b3          	srl	a3,a4,a3
   12674:	4801                	li	a6,0
   12676:	01158863          	beq	a1,a7,12686 <__subdf3+0x132>
   1267a:	04000813          	li	a6,64
   1267e:	40b80833          	sub	a6,a6,a1
   12682:	01071833          	sll	a6,a4,a6
   12686:	00c86833          	or	a6,a6,a2
   1268a:	01003833          	snez	a6,a6
   1268e:	0106e6b3          	or	a3,a3,a6
   12692:	4581                	li	a1,0
   12694:	bf69                	j	1262e <__subdf3+0xda>
   12696:	00c766b3          	or	a3,a4,a2
   1269a:	00d036b3          	snez	a3,a3
   1269e:	bfd5                	j	12692 <__subdf3+0x13e>
   126a0:	0a080a63          	beqz	a6,12754 <__subdf3+0x200>
   126a4:	412886b3          	sub	a3,a7,s2
   126a8:	02091063          	bnez	s2,126c8 <__subdf3+0x174>
   126ac:	00a7e5b3          	or	a1,a5,a0
   126b0:	42058663          	beqz	a1,12adc <__subdf3+0x588>
   126b4:	fff68593          	addi	a1,a3,-1 # 7fffff <__BSS_END__+0x7e15a3>
   126b8:	d991                	beqz	a1,125cc <__subdf3+0x78>
   126ba:	7ff00813          	li	a6,2047
   126be:	01069d63          	bne	a3,a6,126d8 <__subdf3+0x184>
   126c2:	87ba                	mv	a5,a4
   126c4:	8532                	mv	a0,a2
   126c6:	b705                	j	125e6 <__subdf3+0x92>
   126c8:	7ff00593          	li	a1,2047
   126cc:	feb88be3          	beq	a7,a1,126c2 <__subdf3+0x16e>
   126d0:	008005b7          	lui	a1,0x800
   126d4:	8fcd                	or	a5,a5,a1
   126d6:	85b6                	mv	a1,a3
   126d8:	03800693          	li	a3,56
   126dc:	06b6c763          	blt	a3,a1,1274a <__subdf3+0x1f6>
   126e0:	46fd                	li	a3,31
   126e2:	02b6cd63          	blt	a3,a1,1271c <__subdf3+0x1c8>
   126e6:	02000813          	li	a6,32
   126ea:	40b80833          	sub	a6,a6,a1
   126ee:	010796b3          	sll	a3,a5,a6
   126f2:	00b55333          	srl	t1,a0,a1
   126f6:	01051833          	sll	a6,a0,a6
   126fa:	0066e6b3          	or	a3,a3,t1
   126fe:	01003833          	snez	a6,a6
   12702:	0106e6b3          	or	a3,a3,a6
   12706:	00b7d5b3          	srl	a1,a5,a1
   1270a:	9636                	add	a2,a2,a3
   1270c:	95ba                	add	a1,a1,a4
   1270e:	00d636b3          	sltu	a3,a2,a3
   12712:	8532                	mv	a0,a2
   12714:	00d587b3          	add	a5,a1,a3
   12718:	8946                	mv	s2,a7
   1271a:	b705                	j	1263a <__subdf3+0xe6>
   1271c:	fe058693          	addi	a3,a1,-32 # 7fffe0 <__BSS_END__+0x7e1584>
   12720:	02000313          	li	t1,32
   12724:	00d7d6b3          	srl	a3,a5,a3
   12728:	4801                	li	a6,0
   1272a:	00658863          	beq	a1,t1,1273a <__subdf3+0x1e6>
   1272e:	04000813          	li	a6,64
   12732:	40b80833          	sub	a6,a6,a1
   12736:	01079833          	sll	a6,a5,a6
   1273a:	00a86833          	or	a6,a6,a0
   1273e:	01003833          	snez	a6,a6
   12742:	0106e6b3          	or	a3,a3,a6
   12746:	4581                	li	a1,0
   12748:	b7c9                	j	1270a <__subdf3+0x1b6>
   1274a:	00a7e6b3          	or	a3,a5,a0
   1274e:	00d036b3          	snez	a3,a3
   12752:	bfd5                	j	12746 <__subdf3+0x1f2>
   12754:	00190693          	addi	a3,s2,1
   12758:	7fe6f593          	andi	a1,a3,2046
   1275c:	e5ad                	bnez	a1,127c6 <__subdf3+0x272>
   1275e:	00a7e6b3          	or	a3,a5,a0
   12762:	04091763          	bnez	s2,127b0 <__subdf3+0x25c>
   12766:	36068e63          	beqz	a3,12ae2 <__subdf3+0x58e>
   1276a:	00c766b3          	or	a3,a4,a2
   1276e:	c28d                	beqz	a3,12790 <__subdf3+0x23c>
   12770:	962a                	add	a2,a2,a0
   12772:	00a636b3          	sltu	a3,a2,a0
   12776:	973e                	add	a4,a4,a5
   12778:	00d707b3          	add	a5,a4,a3
   1277c:	00879713          	slli	a4,a5,0x8
   12780:	8532                	mv	a0,a2
   12782:	00075763          	bgez	a4,12790 <__subdf3+0x23c>
   12786:	ff800737          	lui	a4,0xff800
   1278a:	177d                	addi	a4,a4,-1 # ff7fffff <__BSS_END__+0xff7e15a3>
   1278c:	8ff9                	and	a5,a5,a4
   1278e:	4905                	li	s2,1
   12790:	00757713          	andi	a4,a0,7
   12794:	36070763          	beqz	a4,12b02 <__subdf3+0x5ae>
   12798:	00f57713          	andi	a4,a0,15
   1279c:	4691                	li	a3,4
   1279e:	36d70263          	beq	a4,a3,12b02 <__subdf3+0x5ae>
   127a2:	00450713          	addi	a4,a0,4
   127a6:	00a736b3          	sltu	a3,a4,a0
   127aa:	97b6                	add	a5,a5,a3
   127ac:	853a                	mv	a0,a4
   127ae:	ae91                	j	12b02 <__subdf3+0x5ae>
   127b0:	da89                	beqz	a3,126c2 <__subdf3+0x16e>
   127b2:	8e59                	or	a2,a2,a4
   127b4:	e20609e3          	beqz	a2,125e6 <__subdf3+0x92>
   127b8:	4481                	li	s1,0
   127ba:	004007b7          	lui	a5,0x400
   127be:	4501                	li	a0,0
   127c0:	7ff00913          	li	s2,2047
   127c4:	ae3d                	j	12b02 <__subdf3+0x5ae>
   127c6:	7ff00593          	li	a1,2047
   127ca:	30b68f63          	beq	a3,a1,12ae8 <__subdf3+0x594>
   127ce:	962a                	add	a2,a2,a0
   127d0:	00a63533          	sltu	a0,a2,a0
   127d4:	973e                	add	a4,a4,a5
   127d6:	972a                	add	a4,a4,a0
   127d8:	01f71513          	slli	a0,a4,0x1f
   127dc:	8205                	srli	a2,a2,0x1
   127de:	8d51                	or	a0,a0,a2
   127e0:	00175793          	srli	a5,a4,0x1
   127e4:	8936                	mv	s2,a3
   127e6:	b76d                	j	12790 <__subdf3+0x23c>
   127e8:	0d005a63          	blez	a6,128bc <__subdf3+0x368>
   127ec:	08089463          	bnez	a7,12874 <__subdf3+0x320>
   127f0:	00c766b3          	or	a3,a4,a2
   127f4:	2e068f63          	beqz	a3,12af2 <__subdf3+0x59e>
   127f8:	fff80693          	addi	a3,a6,-1
   127fc:	ee81                	bnez	a3,12814 <__subdf3+0x2c0>
   127fe:	40c50633          	sub	a2,a0,a2
   12802:	00c536b3          	sltu	a3,a0,a2
   12806:	40e78733          	sub	a4,a5,a4
   1280a:	8532                	mv	a0,a2
   1280c:	40d707b3          	sub	a5,a4,a3
   12810:	4905                	li	s2,1
   12812:	a0b9                	j	12860 <__subdf3+0x30c>
   12814:	7ff00593          	li	a1,2047
   12818:	dcb807e3          	beq	a6,a1,125e6 <__subdf3+0x92>
   1281c:	03800593          	li	a1,56
   12820:	08d5ca63          	blt	a1,a3,128b4 <__subdf3+0x360>
   12824:	45fd                	li	a1,31
   12826:	06d5c063          	blt	a1,a3,12886 <__subdf3+0x332>
   1282a:	02000813          	li	a6,32
   1282e:	40d80833          	sub	a6,a6,a3
   12832:	00d658b3          	srl	a7,a2,a3
   12836:	010715b3          	sll	a1,a4,a6
   1283a:	01061833          	sll	a6,a2,a6
   1283e:	0115e5b3          	or	a1,a1,a7
   12842:	01003833          	snez	a6,a6
   12846:	0105e633          	or	a2,a1,a6
   1284a:	00d756b3          	srl	a3,a4,a3
   1284e:	40c50633          	sub	a2,a0,a2
   12852:	00c53733          	sltu	a4,a0,a2
   12856:	40d786b3          	sub	a3,a5,a3
   1285a:	8532                	mv	a0,a2
   1285c:	40e687b3          	sub	a5,a3,a4
   12860:	00879713          	slli	a4,a5,0x8
   12864:	f20756e3          	bgez	a4,12790 <__subdf3+0x23c>
   12868:	00800437          	lui	s0,0x800
   1286c:	147d                	addi	s0,s0,-1 # 7fffff <__BSS_END__+0x7e15a3>
   1286e:	8c7d                	and	s0,s0,a5
   12870:	89aa                	mv	s3,a0
   12872:	aa55                	j	12a26 <__subdf3+0x4d2>
   12874:	7ff00693          	li	a3,2047
   12878:	f0d90ce3          	beq	s2,a3,12790 <__subdf3+0x23c>
   1287c:	008006b7          	lui	a3,0x800
   12880:	8f55                	or	a4,a4,a3
   12882:	86c2                	mv	a3,a6
   12884:	bf61                	j	1281c <__subdf3+0x2c8>
   12886:	fe068593          	addi	a1,a3,-32 # 7fffe0 <__BSS_END__+0x7e1584>
   1288a:	02000893          	li	a7,32
   1288e:	00b755b3          	srl	a1,a4,a1
   12892:	4801                	li	a6,0
   12894:	01168863          	beq	a3,a7,128a4 <__subdf3+0x350>
   12898:	04000813          	li	a6,64
   1289c:	40d80833          	sub	a6,a6,a3
   128a0:	01071833          	sll	a6,a4,a6
   128a4:	00c86833          	or	a6,a6,a2
   128a8:	01003833          	snez	a6,a6
   128ac:	0105e633          	or	a2,a1,a6
   128b0:	4681                	li	a3,0
   128b2:	bf71                	j	1284e <__subdf3+0x2fa>
   128b4:	8e59                	or	a2,a2,a4
   128b6:	00c03633          	snez	a2,a2
   128ba:	bfdd                	j	128b0 <__subdf3+0x35c>
   128bc:	0c080663          	beqz	a6,12988 <__subdf3+0x434>
   128c0:	41288833          	sub	a6,a7,s2
   128c4:	02091b63          	bnez	s2,128fa <__subdf3+0x3a6>
   128c8:	00a7e5b3          	or	a1,a5,a0
   128cc:	22058563          	beqz	a1,12af6 <__subdf3+0x5a2>
   128d0:	fff80593          	addi	a1,a6,-1
   128d4:	e991                	bnez	a1,128e8 <__subdf3+0x394>
   128d6:	40a60533          	sub	a0,a2,a0
   128da:	8f1d                	sub	a4,a4,a5
   128dc:	00a63633          	sltu	a2,a2,a0
   128e0:	40c707b3          	sub	a5,a4,a2
   128e4:	84b6                	mv	s1,a3
   128e6:	b72d                	j	12810 <__subdf3+0x2bc>
   128e8:	7ff00313          	li	t1,2047
   128ec:	00681f63          	bne	a6,t1,1290a <__subdf3+0x3b6>
   128f0:	87ba                	mv	a5,a4
   128f2:	8532                	mv	a0,a2
   128f4:	7ff00913          	li	s2,2047
   128f8:	a845                	j	129a8 <__subdf3+0x454>
   128fa:	7ff00593          	li	a1,2047
   128fe:	feb889e3          	beq	a7,a1,128f0 <__subdf3+0x39c>
   12902:	008005b7          	lui	a1,0x800
   12906:	8fcd                	or	a5,a5,a1
   12908:	85c2                	mv	a1,a6
   1290a:	03800813          	li	a6,56
   1290e:	06b84963          	blt	a6,a1,12980 <__subdf3+0x42c>
   12912:	487d                	li	a6,31
   12914:	02b84f63          	blt	a6,a1,12952 <__subdf3+0x3fe>
   12918:	02000313          	li	t1,32
   1291c:	40b30333          	sub	t1,t1,a1
   12920:	00b55e33          	srl	t3,a0,a1
   12924:	00679833          	sll	a6,a5,t1
   12928:	00651333          	sll	t1,a0,t1
   1292c:	01c86833          	or	a6,a6,t3
   12930:	00603333          	snez	t1,t1
   12934:	00686533          	or	a0,a6,t1
   12938:	00b7d5b3          	srl	a1,a5,a1
   1293c:	40a60533          	sub	a0,a2,a0
   12940:	40b705b3          	sub	a1,a4,a1
   12944:	00a63633          	sltu	a2,a2,a0
   12948:	40c587b3          	sub	a5,a1,a2
   1294c:	8946                	mv	s2,a7
   1294e:	84b6                	mv	s1,a3
   12950:	bf01                	j	12860 <__subdf3+0x30c>
   12952:	fe058813          	addi	a6,a1,-32 # 7fffe0 <__BSS_END__+0x7e1584>
   12956:	02000e13          	li	t3,32
   1295a:	0107d833          	srl	a6,a5,a6
   1295e:	4301                	li	t1,0
   12960:	01c58863          	beq	a1,t3,12970 <__subdf3+0x41c>
   12964:	04000313          	li	t1,64
   12968:	40b30333          	sub	t1,t1,a1
   1296c:	00679333          	sll	t1,a5,t1
   12970:	00a36333          	or	t1,t1,a0
   12974:	00603333          	snez	t1,t1
   12978:	00686533          	or	a0,a6,t1
   1297c:	4581                	li	a1,0
   1297e:	bf7d                	j	1293c <__subdf3+0x3e8>
   12980:	8d5d                	or	a0,a0,a5
   12982:	00a03533          	snez	a0,a0
   12986:	bfdd                	j	1297c <__subdf3+0x428>
   12988:	00190593          	addi	a1,s2,1
   1298c:	7fe5f593          	andi	a1,a1,2046
   12990:	e5b5                	bnez	a1,129fc <__subdf3+0x4a8>
   12992:	00c765b3          	or	a1,a4,a2
   12996:	00a7e833          	or	a6,a5,a0
   1299a:	04091663          	bnez	s2,129e6 <__subdf3+0x492>
   1299e:	00081763          	bnez	a6,129ac <__subdf3+0x458>
   129a2:	c1ed                	beqz	a1,12a84 <__subdf3+0x530>
   129a4:	87ba                	mv	a5,a4
   129a6:	8532                	mv	a0,a2
   129a8:	84b6                	mv	s1,a3
   129aa:	b3dd                	j	12790 <__subdf3+0x23c>
   129ac:	de0582e3          	beqz	a1,12790 <__subdf3+0x23c>
   129b0:	40c50833          	sub	a6,a0,a2
   129b4:	010538b3          	sltu	a7,a0,a6
   129b8:	40e785b3          	sub	a1,a5,a4
   129bc:	411585b3          	sub	a1,a1,a7
   129c0:	00859893          	slli	a7,a1,0x8
   129c4:	0008da63          	bgez	a7,129d8 <__subdf3+0x484>
   129c8:	40a60533          	sub	a0,a2,a0
   129cc:	8f1d                	sub	a4,a4,a5
   129ce:	00a63633          	sltu	a2,a2,a0
   129d2:	40c707b3          	sub	a5,a4,a2
   129d6:	bfc9                	j	129a8 <__subdf3+0x454>
   129d8:	00b86533          	or	a0,a6,a1
   129dc:	12050163          	beqz	a0,12afe <__subdf3+0x5aa>
   129e0:	87ae                	mv	a5,a1
   129e2:	8542                	mv	a0,a6
   129e4:	b375                	j	12790 <__subdf3+0x23c>
   129e6:	00081863          	bnez	a6,129f6 <__subdf3+0x4a2>
   129ea:	dc0587e3          	beqz	a1,127b8 <__subdf3+0x264>
   129ee:	87ba                	mv	a5,a4
   129f0:	8532                	mv	a0,a2
   129f2:	84b6                	mv	s1,a3
   129f4:	becd                	j	125e6 <__subdf3+0x92>
   129f6:	be0588e3          	beqz	a1,125e6 <__subdf3+0x92>
   129fa:	bb7d                	j	127b8 <__subdf3+0x264>
   129fc:	40c505b3          	sub	a1,a0,a2
   12a00:	00b53833          	sltu	a6,a0,a1
   12a04:	40e78433          	sub	s0,a5,a4
   12a08:	41040433          	sub	s0,s0,a6
   12a0c:	00841813          	slli	a6,s0,0x8
   12a10:	89ae                	mv	s3,a1
   12a12:	06085663          	bgez	a6,12a7e <__subdf3+0x52a>
   12a16:	40a609b3          	sub	s3,a2,a0
   12a1a:	40f70433          	sub	s0,a4,a5
   12a1e:	01363633          	sltu	a2,a2,s3
   12a22:	8c11                	sub	s0,s0,a2
   12a24:	84b6                	mv	s1,a3
   12a26:	c02d                	beqz	s0,12a88 <__subdf3+0x534>
   12a28:	8522                	mv	a0,s0
   12a2a:	fffff097          	auipc	ra,0xfffff
   12a2e:	98a080e7          	jalr	-1654(ra) # 113b4 <__clzsi2>
   12a32:	ff850693          	addi	a3,a0,-8
   12a36:	02000793          	li	a5,32
   12a3a:	8f95                	sub	a5,a5,a3
   12a3c:	00d41433          	sll	s0,s0,a3
   12a40:	00f9d7b3          	srl	a5,s3,a5
   12a44:	8fc1                	or	a5,a5,s0
   12a46:	00d99433          	sll	s0,s3,a3
   12a4a:	0926c163          	blt	a3,s2,12acc <__subdf3+0x578>
   12a4e:	412686b3          	sub	a3,a3,s2
   12a52:	00168613          	addi	a2,a3,1
   12a56:	477d                	li	a4,31
   12a58:	04c74763          	blt	a4,a2,12aa6 <__subdf3+0x552>
   12a5c:	02000713          	li	a4,32
   12a60:	8f11                	sub	a4,a4,a2
   12a62:	00e79533          	sll	a0,a5,a4
   12a66:	00c456b3          	srl	a3,s0,a2
   12a6a:	00e41733          	sll	a4,s0,a4
   12a6e:	8d55                	or	a0,a0,a3
   12a70:	00e03733          	snez	a4,a4
   12a74:	8d59                	or	a0,a0,a4
   12a76:	00c7d7b3          	srl	a5,a5,a2
   12a7a:	4901                	li	s2,0
   12a7c:	bb11                	j	12790 <__subdf3+0x23c>
   12a7e:	8dc1                	or	a1,a1,s0
   12a80:	f1dd                	bnez	a1,12a26 <__subdf3+0x4d2>
   12a82:	4901                	li	s2,0
   12a84:	4481                	li	s1,0
   12a86:	a09d                	j	12aec <__subdf3+0x598>
   12a88:	854e                	mv	a0,s3
   12a8a:	fffff097          	auipc	ra,0xfffff
   12a8e:	92a080e7          	jalr	-1750(ra) # 113b4 <__clzsi2>
   12a92:	01850693          	addi	a3,a0,24
   12a96:	47fd                	li	a5,31
   12a98:	f8d7dfe3          	bge	a5,a3,12a36 <__subdf3+0x4e2>
   12a9c:	ff850793          	addi	a5,a0,-8
   12aa0:	00f997b3          	sll	a5,s3,a5
   12aa4:	b75d                	j	12a4a <__subdf3+0x4f6>
   12aa6:	1685                	addi	a3,a3,-31
   12aa8:	00d7d533          	srl	a0,a5,a3
   12aac:	02000693          	li	a3,32
   12ab0:	4701                	li	a4,0
   12ab2:	00d60763          	beq	a2,a3,12ac0 <__subdf3+0x56c>
   12ab6:	04000713          	li	a4,64
   12aba:	8f11                	sub	a4,a4,a2
   12abc:	00e79733          	sll	a4,a5,a4
   12ac0:	8f41                	or	a4,a4,s0
   12ac2:	00e03733          	snez	a4,a4
   12ac6:	8d59                	or	a0,a0,a4
   12ac8:	4781                	li	a5,0
   12aca:	bf45                	j	12a7a <__subdf3+0x526>
   12acc:	ff800737          	lui	a4,0xff800
   12ad0:	177d                	addi	a4,a4,-1 # ff7fffff <__BSS_END__+0xff7e15a3>
   12ad2:	40d90933          	sub	s2,s2,a3
   12ad6:	8ff9                	and	a5,a5,a4
   12ad8:	8522                	mv	a0,s0
   12ada:	b95d                	j	12790 <__subdf3+0x23c>
   12adc:	87ba                	mv	a5,a4
   12ade:	8532                	mv	a0,a2
   12ae0:	b311                	j	127e4 <__subdf3+0x290>
   12ae2:	87ba                	mv	a5,a4
   12ae4:	8532                	mv	a0,a2
   12ae6:	b16d                	j	12790 <__subdf3+0x23c>
   12ae8:	7ff00913          	li	s2,2047
   12aec:	4781                	li	a5,0
   12aee:	4501                	li	a0,0
   12af0:	a809                	j	12b02 <__subdf3+0x5ae>
   12af2:	8942                	mv	s2,a6
   12af4:	b971                	j	12790 <__subdf3+0x23c>
   12af6:	87ba                	mv	a5,a4
   12af8:	8532                	mv	a0,a2
   12afa:	8942                	mv	s2,a6
   12afc:	b575                	j	129a8 <__subdf3+0x454>
   12afe:	4781                	li	a5,0
   12b00:	4481                	li	s1,0
   12b02:	00879713          	slli	a4,a5,0x8
   12b06:	00075b63          	bgez	a4,12b1c <__subdf3+0x5c8>
   12b0a:	0905                	addi	s2,s2,1
   12b0c:	7ff00713          	li	a4,2047
   12b10:	04e90b63          	beq	s2,a4,12b66 <__subdf3+0x612>
   12b14:	ff800737          	lui	a4,0xff800
   12b18:	177d                	addi	a4,a4,-1 # ff7fffff <__BSS_END__+0xff7e15a3>
   12b1a:	8ff9                	and	a5,a5,a4
   12b1c:	01d79693          	slli	a3,a5,0x1d
   12b20:	810d                	srli	a0,a0,0x3
   12b22:	7ff00713          	li	a4,2047
   12b26:	8ec9                	or	a3,a3,a0
   12b28:	838d                	srli	a5,a5,0x3
   12b2a:	00e91963          	bne	s2,a4,12b3c <__subdf3+0x5e8>
   12b2e:	8edd                	or	a3,a3,a5
   12b30:	4781                	li	a5,0
   12b32:	c689                	beqz	a3,12b3c <__subdf3+0x5e8>
   12b34:	000807b7          	lui	a5,0x80
   12b38:	4681                	li	a3,0
   12b3a:	4481                	li	s1,0
   12b3c:	01491713          	slli	a4,s2,0x14
   12b40:	7ff00637          	lui	a2,0x7ff00
   12b44:	07b2                	slli	a5,a5,0xc
   12b46:	8f71                	and	a4,a4,a2
   12b48:	40f2                	lw	ra,28(sp)
   12b4a:	4462                	lw	s0,24(sp)
   12b4c:	83b1                	srli	a5,a5,0xc
   12b4e:	8fd9                	or	a5,a5,a4
   12b50:	01f49713          	slli	a4,s1,0x1f
   12b54:	00e7e633          	or	a2,a5,a4
   12b58:	44d2                	lw	s1,20(sp)
   12b5a:	4942                	lw	s2,16(sp)
   12b5c:	49b2                	lw	s3,12(sp)
   12b5e:	8536                	mv	a0,a3
   12b60:	85b2                	mv	a1,a2
   12b62:	6105                	addi	sp,sp,32
   12b64:	8082                	ret
   12b66:	4781                	li	a5,0
   12b68:	4501                	li	a0,0
   12b6a:	bf4d                	j	12b1c <__subdf3+0x5c8>

00012b6c <__fixdfsi>:
   12b6c:	0145d713          	srli	a4,a1,0x14
   12b70:	001006b7          	lui	a3,0x100
   12b74:	fff68793          	addi	a5,a3,-1 # fffff <__BSS_END__+0xe15a3>
   12b78:	7ff77713          	andi	a4,a4,2047
   12b7c:	3fe00613          	li	a2,1022
   12b80:	8fed                	and	a5,a5,a1
   12b82:	81fd                	srli	a1,a1,0x1f
   12b84:	04e65463          	bge	a2,a4,12bcc <__fixdfsi+0x60>
   12b88:	41d00613          	li	a2,1053
   12b8c:	00e65763          	bge	a2,a4,12b9a <__fixdfsi+0x2e>
   12b90:	80000537          	lui	a0,0x80000
   12b94:	157d                	addi	a0,a0,-1 # 7fffffff <__BSS_END__+0x7ffe15a3>
   12b96:	952e                	add	a0,a0,a1
   12b98:	8082                	ret
   12b9a:	8fd5                	or	a5,a5,a3
   12b9c:	43300693          	li	a3,1075
   12ba0:	8e99                	sub	a3,a3,a4
   12ba2:	467d                	li	a2,31
   12ba4:	00d64d63          	blt	a2,a3,12bbe <__fixdfsi+0x52>
   12ba8:	bed70713          	addi	a4,a4,-1043
   12bac:	00e797b3          	sll	a5,a5,a4
   12bb0:	00d55533          	srl	a0,a0,a3
   12bb4:	8d5d                	or	a0,a0,a5
   12bb6:	cd81                	beqz	a1,12bce <__fixdfsi+0x62>
   12bb8:	40a00533          	neg	a0,a0
   12bbc:	8082                	ret
   12bbe:	41300693          	li	a3,1043
   12bc2:	40e68733          	sub	a4,a3,a4
   12bc6:	00e7d533          	srl	a0,a5,a4
   12bca:	b7f5                	j	12bb6 <__fixdfsi+0x4a>
   12bcc:	4501                	li	a0,0
   12bce:	8082                	ret

00012bd0 <__floatsidf>:
   12bd0:	1141                	addi	sp,sp,-16
   12bd2:	c606                	sw	ra,12(sp)
   12bd4:	c422                	sw	s0,8(sp)
   12bd6:	c226                	sw	s1,4(sp)
   12bd8:	cd39                	beqz	a0,12c36 <__floatsidf+0x66>
   12bda:	41f55793          	srai	a5,a0,0x1f
   12bde:	00a7c433          	xor	s0,a5,a0
   12be2:	8c1d                	sub	s0,s0,a5
   12be4:	01f55493          	srli	s1,a0,0x1f
   12be8:	8522                	mv	a0,s0
   12bea:	ffffe097          	auipc	ra,0xffffe
   12bee:	7ca080e7          	jalr	1994(ra) # 113b4 <__clzsi2>
   12bf2:	41e00713          	li	a4,1054
   12bf6:	47a9                	li	a5,10
   12bf8:	8f09                	sub	a4,a4,a0
   12bfa:	02a7c863          	blt	a5,a0,12c2a <__floatsidf+0x5a>
   12bfe:	47ad                	li	a5,11
   12c00:	8f89                	sub	a5,a5,a0
   12c02:	0555                	addi	a0,a0,21
   12c04:	00f457b3          	srl	a5,s0,a5
   12c08:	00a41433          	sll	s0,s0,a0
   12c0c:	8526                	mv	a0,s1
   12c0e:	07b2                	slli	a5,a5,0xc
   12c10:	83b1                	srli	a5,a5,0xc
   12c12:	0752                	slli	a4,a4,0x14
   12c14:	057e                	slli	a0,a0,0x1f
   12c16:	8f5d                	or	a4,a4,a5
   12c18:	40b2                	lw	ra,12(sp)
   12c1a:	00a767b3          	or	a5,a4,a0
   12c1e:	8522                	mv	a0,s0
   12c20:	4422                	lw	s0,8(sp)
   12c22:	4492                	lw	s1,4(sp)
   12c24:	85be                	mv	a1,a5
   12c26:	0141                	addi	sp,sp,16
   12c28:	8082                	ret
   12c2a:	1555                	addi	a0,a0,-11
   12c2c:	00a417b3          	sll	a5,s0,a0
   12c30:	8526                	mv	a0,s1
   12c32:	4401                	li	s0,0
   12c34:	bfe9                	j	12c0e <__floatsidf+0x3e>
   12c36:	4701                	li	a4,0
   12c38:	4781                	li	a5,0
   12c3a:	bfe5                	j	12c32 <__floatsidf+0x62>

00012c3c <__assert_func>:
   12c3c:	0001e7b7          	lui	a5,0x1e
   12c40:	7187a703          	lw	a4,1816(a5) # 1e718 <_impure_ptr>
   12c44:	1141                	addi	sp,sp,-16
   12c46:	87b6                	mv	a5,a3
   12c48:	8832                	mv	a6,a2
   12c4a:	c606                	sw	ra,12(sp)
   12c4c:	00c72883          	lw	a7,12(a4)
   12c50:	86aa                	mv	a3,a0
   12c52:	872e                	mv	a4,a1
   12c54:	863e                	mv	a2,a5
   12c56:	02080363          	beqz	a6,12c7c <__assert_func+0x40>
   12c5a:	0001d7b7          	lui	a5,0x1d
   12c5e:	3cc78793          	addi	a5,a5,972 # 1d3cc <__extenddftf2+0x1468>
   12c62:	0001d5b7          	lui	a1,0x1d
   12c66:	3dc58593          	addi	a1,a1,988 # 1d3dc <__extenddftf2+0x1478>
   12c6a:	8546                	mv	a0,a7
   12c6c:	00000097          	auipc	ra,0x0
   12c70:	02e080e7          	jalr	46(ra) # 12c9a <fiprintf>
   12c74:	00004097          	auipc	ra,0x4
   12c78:	d42080e7          	jalr	-702(ra) # 169b6 <abort>
   12c7c:	0001c837          	lui	a6,0x1c
   12c80:	48080793          	addi	a5,a6,1152 # 1c480 <__extenddftf2+0x51c>
   12c84:	48080813          	addi	a6,a6,1152
   12c88:	bfe9                	j	12c62 <__assert_func+0x26>

00012c8a <atexit>:
   12c8a:	85aa                	mv	a1,a0
   12c8c:	4681                	li	a3,0
   12c8e:	4601                	li	a2,0
   12c90:	4501                	li	a0,0
   12c92:	00004317          	auipc	t1,0x4
   12c96:	bde30067          	jr	-1058(t1) # 16870 <__register_exitproc>

00012c9a <fiprintf>:
   12c9a:	8e2a                	mv	t3,a0
   12c9c:	0001e537          	lui	a0,0x1e
   12ca0:	7139                	addi	sp,sp,-64
   12ca2:	71852503          	lw	a0,1816(a0) # 1e718 <_impure_ptr>
   12ca6:	02810313          	addi	t1,sp,40
   12caa:	d432                	sw	a2,40(sp)
   12cac:	d636                	sw	a3,44(sp)
   12cae:	862e                	mv	a2,a1
   12cb0:	869a                	mv	a3,t1
   12cb2:	85f2                	mv	a1,t3
   12cb4:	ce06                	sw	ra,28(sp)
   12cb6:	d83a                	sw	a4,48(sp)
   12cb8:	da3e                	sw	a5,52(sp)
   12cba:	dc42                	sw	a6,56(sp)
   12cbc:	de46                	sw	a7,60(sp)
   12cbe:	c61a                	sw	t1,12(sp)
   12cc0:	00002097          	auipc	ra,0x2
   12cc4:	dc0080e7          	jalr	-576(ra) # 14a80 <_vfiprintf_r>
   12cc8:	40f2                	lw	ra,28(sp)
   12cca:	6121                	addi	sp,sp,64
   12ccc:	8082                	ret

00012cce <_vfprintf_r>:
   12cce:	7145                	addi	sp,sp,-464
   12cd0:	1c112623          	sw	ra,460(sp)
   12cd4:	1c812423          	sw	s0,456(sp)
   12cd8:	1c912223          	sw	s1,452(sp)
   12cdc:	1b612823          	sw	s6,432(sp)
   12ce0:	84ae                	mv	s1,a1
   12ce2:	8b32                	mv	s6,a2
   12ce4:	ca36                	sw	a3,20(sp)
   12ce6:	842a                	mv	s0,a0
   12ce8:	c42a                	sw	a0,8(sp)
   12cea:	00003097          	auipc	ra,0x3
   12cee:	5e0080e7          	jalr	1504(ra) # 162ca <_localeconv_r>
   12cf2:	4118                	lw	a4,0(a0)
   12cf4:	853a                	mv	a0,a4
   12cf6:	d83a                	sw	a4,48(sp)
   12cf8:	00004097          	auipc	ra,0x4
   12cfc:	a1c080e7          	jalr	-1508(ra) # 16714 <strlen>
   12d00:	d62a                	sw	a0,44(sp)
   12d02:	c982                	sw	zero,208(sp)
   12d04:	cb82                	sw	zero,212(sp)
   12d06:	cd82                	sw	zero,216(sp)
   12d08:	cf82                	sw	zero,220(sp)
   12d0a:	c409                	beqz	s0,12d14 <_vfprintf_r+0x46>
   12d0c:	5858                	lw	a4,52(s0)
   12d0e:	e319                	bnez	a4,12d14 <_vfprintf_r+0x46>
   12d10:	2480106f          	j	13f58 <_vfprintf_r+0x128a>
   12d14:	00c49683          	lh	a3,12(s1)
   12d18:	50f8                	lw	a4,100(s1)
   12d1a:	01269613          	slli	a2,a3,0x12
   12d1e:	00064a63          	bltz	a2,12d32 <_vfprintf_r+0x64>
   12d22:	7679                	lui	a2,0xffffe
   12d24:	167d                	addi	a2,a2,-1 # ffffdfff <__BSS_END__+0xfffdf5a3>
   12d26:	6589                	lui	a1,0x2
   12d28:	8ecd                	or	a3,a3,a1
   12d2a:	8f71                	and	a4,a4,a2
   12d2c:	00d49623          	sh	a3,12(s1)
   12d30:	d0f8                	sw	a4,100(s1)
   12d32:	01271693          	slli	a3,a4,0x12
   12d36:	0006d463          	bgez	a3,12d3e <_vfprintf_r+0x70>
   12d3a:	1ad0106f          	j	146e6 <_vfprintf_r+0x1a18>
   12d3e:	00c49703          	lh	a4,12(s1)
   12d42:	00877693          	andi	a3,a4,8
   12d46:	22068e63          	beqz	a3,12f82 <_vfprintf_r+0x2b4>
   12d4a:	4894                	lw	a3,16(s1)
   12d4c:	22068b63          	beqz	a3,12f82 <_vfprintf_r+0x2b4>
   12d50:	8b69                	andi	a4,a4,26
   12d52:	46a9                	li	a3,10
   12d54:	24d70663          	beq	a4,a3,12fa0 <_vfprintf_r+0x2d2>
   12d58:	1b312e23          	sw	s3,444(sp)
   12d5c:	1b412c23          	sw	s4,440(sp)
   12d60:	1ba12023          	sw	s10,416(sp)
   12d64:	0001e737          	lui	a4,0x1e
   12d68:	1d212023          	sw	s2,448(sp)
   12d6c:	1b512a23          	sw	s5,436(sp)
   12d70:	1b712623          	sw	s7,428(sp)
   12d74:	1b812423          	sw	s8,424(sp)
   12d78:	1b912223          	sw	s9,420(sp)
   12d7c:	19b12e23          	sw	s11,412(sp)
   12d80:	8d5a                	mv	s10,s6
   12d82:	9f470793          	addi	a5,a4,-1548 # 1d9f4 <__clz_tab+0x100>
   12d86:	000d4703          	lbu	a4,0(s10)
   12d8a:	0ec10993          	addi	s3,sp,236
   12d8e:	0001ea37          	lui	s4,0x1e
   12d92:	c3ce                	sw	s3,196(sp)
   12d94:	c782                	sw	zero,204(sp)
   12d96:	c582                	sw	zero,200(sp)
   12d98:	d002                	sw	zero,32(sp)
   12d9a:	da02                	sw	zero,52(sp)
   12d9c:	c082                	sw	zero,64(sp)
   12d9e:	de02                	sw	zero,60(sp)
   12da0:	c482                	sw	zero,72(sp)
   12da2:	c282                	sw	zero,68(sp)
   12da4:	c602                	sw	zero,12(sp)
   12da6:	cc3e                	sw	a5,24(sp)
   12da8:	844e                	mv	s0,s3
   12daa:	bf8a0a13          	addi	s4,s4,-1032 # 1dbf8 <zeroes.0>
   12dae:	18070263          	beqz	a4,12f32 <_vfprintf_r+0x264>
   12db2:	896a                	mv	s2,s10
   12db4:	02500693          	li	a3,37
   12db8:	30d70663          	beq	a4,a3,130c4 <_vfprintf_r+0x3f6>
   12dbc:	00194703          	lbu	a4,1(s2)
   12dc0:	0905                	addi	s2,s2,1
   12dc2:	fb7d                	bnez	a4,12db8 <_vfprintf_r+0xea>
   12dc4:	41a90ab3          	sub	s5,s2,s10
   12dc8:	17a90563          	beq	s2,s10,12f32 <_vfprintf_r+0x264>
   12dcc:	46be                	lw	a3,204(sp)
   12dce:	472e                	lw	a4,200(sp)
   12dd0:	01a42023          	sw	s10,0(s0)
   12dd4:	96d6                	add	a3,a3,s5
   12dd6:	0705                	addi	a4,a4,1
   12dd8:	01542223          	sw	s5,4(s0)
   12ddc:	c7b6                	sw	a3,204(sp)
   12dde:	c5ba                	sw	a4,200(sp)
   12de0:	469d                	li	a3,7
   12de2:	0421                	addi	s0,s0,8
   12de4:	2ee6c763          	blt	a3,a4,130d2 <_vfprintf_r+0x404>
   12de8:	47b2                	lw	a5,12(sp)
   12dea:	00094703          	lbu	a4,0(s2)
   12dee:	97d6                	add	a5,a5,s5
   12df0:	c63e                	sw	a5,12(sp)
   12df2:	14070063          	beqz	a4,12f32 <_vfprintf_r+0x264>
   12df6:	00194883          	lbu	a7,1(s2)
   12dfa:	0a0103a3          	sb	zero,167(sp)
   12dfe:	0905                	addi	s2,s2,1
   12e00:	5afd                	li	s5,-1
   12e02:	4b81                	li	s7,0
   12e04:	4c81                	li	s9,0
   12e06:	05a00b13          	li	s6,90
   12e0a:	0905                	addi	s2,s2,1
   12e0c:	fe088793          	addi	a5,a7,-32 # ffe0 <exit-0xb4>
   12e10:	02fb6b63          	bltu	s6,a5,12e46 <_vfprintf_r+0x178>
   12e14:	4762                	lw	a4,24(sp)
   12e16:	078a                	slli	a5,a5,0x2
   12e18:	97ba                	add	a5,a5,a4
   12e1a:	439c                	lw	a5,0(a5)
   12e1c:	8782                	jr	a5
   12e1e:	4b81                	li	s7,0
   12e20:	fd088793          	addi	a5,a7,-48
   12e24:	46a5                	li	a3,9
   12e26:	00094883          	lbu	a7,0(s2)
   12e2a:	002b9713          	slli	a4,s7,0x2
   12e2e:	9bba                	add	s7,s7,a4
   12e30:	0b86                	slli	s7,s7,0x1
   12e32:	9bbe                	add	s7,s7,a5
   12e34:	fd088793          	addi	a5,a7,-48
   12e38:	0905                	addi	s2,s2,1
   12e3a:	fef6f6e3          	bgeu	a3,a5,12e26 <_vfprintf_r+0x158>
   12e3e:	fe088793          	addi	a5,a7,-32
   12e42:	fcfb79e3          	bgeu	s6,a5,12e14 <_vfprintf_r+0x146>
   12e46:	0e088663          	beqz	a7,12f32 <_vfprintf_r+0x264>
   12e4a:	13110623          	sb	a7,300(sp)
   12e4e:	0a0103a3          	sb	zero,167(sp)
   12e52:	4d85                	li	s11,1
   12e54:	4b05                	li	s6,1
   12e56:	12c10d13          	addi	s10,sp,300
   12e5a:	c802                	sw	zero,16(sp)
   12e5c:	4a81                	li	s5,0
   12e5e:	d402                	sw	zero,40(sp)
   12e60:	d202                	sw	zero,36(sp)
   12e62:	ce02                	sw	zero,28(sp)
   12e64:	002cf293          	andi	t0,s9,2
   12e68:	00028363          	beqz	t0,12e6e <_vfprintf_r+0x1a0>
   12e6c:	0d89                	addi	s11,s11,2
   12e6e:	084cff93          	andi	t6,s9,132
   12e72:	463e                	lw	a2,204(sp)
   12e74:	000f9663          	bnez	t6,12e80 <_vfprintf_r+0x1b2>
   12e78:	41bb8733          	sub	a4,s7,s11
   12e7c:	12e047e3          	bgtz	a4,137aa <_vfprintf_r+0xadc>
   12e80:	0a714703          	lbu	a4,167(sp)
   12e84:	cf19                	beqz	a4,12ea2 <_vfprintf_r+0x1d4>
   12e86:	472e                	lw	a4,200(sp)
   12e88:	0a710593          	addi	a1,sp,167
   12e8c:	c00c                	sw	a1,0(s0)
   12e8e:	0605                	addi	a2,a2,1
   12e90:	4585                	li	a1,1
   12e92:	0705                	addi	a4,a4,1
   12e94:	c04c                	sw	a1,4(s0)
   12e96:	c7b2                	sw	a2,204(sp)
   12e98:	c5ba                	sw	a4,200(sp)
   12e9a:	459d                	li	a1,7
   12e9c:	0421                	addi	s0,s0,8
   12e9e:	30e5ca63          	blt	a1,a4,131b2 <_vfprintf_r+0x4e4>
   12ea2:	00028f63          	beqz	t0,12ec0 <_vfprintf_r+0x1f2>
   12ea6:	472e                	lw	a4,200(sp)
   12ea8:	4589                	li	a1,2
   12eaa:	0609                	addi	a2,a2,2
   12eac:	0705                	addi	a4,a4,1
   12eae:	113c                	addi	a5,sp,168
   12eb0:	c04c                	sw	a1,4(s0)
   12eb2:	c01c                	sw	a5,0(s0)
   12eb4:	c7b2                	sw	a2,204(sp)
   12eb6:	c5ba                	sw	a4,200(sp)
   12eb8:	459d                	li	a1,7
   12eba:	0421                	addi	s0,s0,8
   12ebc:	18e5cfe3          	blt	a1,a4,1385a <_vfprintf_r+0xb8c>
   12ec0:	08000713          	li	a4,128
   12ec4:	78ef8063          	beq	t6,a4,13644 <_vfprintf_r+0x976>
   12ec8:	416a8ab3          	sub	s5,s5,s6
   12ecc:	035041e3          	bgtz	s5,136ee <_vfprintf_r+0xa20>
   12ed0:	100cf713          	andi	a4,s9,256
   12ed4:	64071a63          	bnez	a4,13528 <_vfprintf_r+0x85a>
   12ed8:	47ae                	lw	a5,200(sp)
   12eda:	965a                	add	a2,a2,s6
   12edc:	01a42023          	sw	s10,0(s0)
   12ee0:	0785                	addi	a5,a5,1
   12ee2:	01642223          	sw	s6,4(s0)
   12ee6:	c7b2                	sw	a2,204(sp)
   12ee8:	c5be                	sw	a5,200(sp)
   12eea:	471d                	li	a4,7
   12eec:	38f74c63          	blt	a4,a5,13284 <_vfprintf_r+0x5b6>
   12ef0:	0421                	addi	s0,s0,8
   12ef2:	004cfe13          	andi	t3,s9,4
   12ef6:	000e0663          	beqz	t3,12f02 <_vfprintf_r+0x234>
   12efa:	41bb8ab3          	sub	s5,s7,s11
   12efe:	17504ee3          	bgtz	s5,1387a <_vfprintf_r+0xbac>
   12f02:	835e                	mv	t1,s7
   12f04:	01bbd363          	bge	s7,s11,12f0a <_vfprintf_r+0x23c>
   12f08:	836e                	mv	t1,s11
   12f0a:	47b2                	lw	a5,12(sp)
   12f0c:	979a                	add	a5,a5,t1
   12f0e:	c63e                	sw	a5,12(sp)
   12f10:	060618e3          	bnez	a2,13780 <_vfprintf_r+0xab2>
   12f14:	47c2                	lw	a5,16(sp)
   12f16:	c582                	sw	zero,200(sp)
   12f18:	c799                	beqz	a5,12f26 <_vfprintf_r+0x258>
   12f1a:	45c2                	lw	a1,16(sp)
   12f1c:	4522                	lw	a0,8(sp)
   12f1e:	00004097          	auipc	ra,0x4
   12f22:	ba2080e7          	jalr	-1118(ra) # 16ac0 <_free_r>
   12f26:	844e                	mv	s0,s3
   12f28:	8d4a                	mv	s10,s2
   12f2a:	000d4703          	lbu	a4,0(s10)
   12f2e:	e80712e3          	bnez	a4,12db2 <_vfprintf_r+0xe4>
   12f32:	47be                	lw	a5,204(sp)
   12f34:	c399                	beqz	a5,12f3a <_vfprintf_r+0x26c>
   12f36:	4000106f          	j	14336 <_vfprintf_r+0x1668>
   12f3a:	00c4d783          	lhu	a5,12(s1)
   12f3e:	1c012903          	lw	s2,448(sp)
   12f42:	1bc12983          	lw	s3,444(sp)
   12f46:	0407f793          	andi	a5,a5,64
   12f4a:	1b812a03          	lw	s4,440(sp)
   12f4e:	1b412a83          	lw	s5,436(sp)
   12f52:	1ac12b83          	lw	s7,428(sp)
   12f56:	1a812c03          	lw	s8,424(sp)
   12f5a:	1a412c83          	lw	s9,420(sp)
   12f5e:	1a012d03          	lw	s10,416(sp)
   12f62:	19c12d83          	lw	s11,412(sp)
   12f66:	c399                	beqz	a5,12f6c <_vfprintf_r+0x29e>
   12f68:	77e0106f          	j	146e6 <_vfprintf_r+0x1a18>
   12f6c:	1cc12083          	lw	ra,460(sp)
   12f70:	1c812403          	lw	s0,456(sp)
   12f74:	4532                	lw	a0,12(sp)
   12f76:	1c412483          	lw	s1,452(sp)
   12f7a:	1b012b03          	lw	s6,432(sp)
   12f7e:	6179                	addi	sp,sp,464
   12f80:	8082                	ret
   12f82:	4522                	lw	a0,8(sp)
   12f84:	85a6                	mv	a1,s1
   12f86:	00003097          	auipc	ra,0x3
   12f8a:	152080e7          	jalr	338(ra) # 160d8 <__swsetup_r>
   12f8e:	c119                	beqz	a0,12f94 <_vfprintf_r+0x2c6>
   12f90:	7560106f          	j	146e6 <_vfprintf_r+0x1a18>
   12f94:	00c49703          	lh	a4,12(s1)
   12f98:	46a9                	li	a3,10
   12f9a:	8b69                	andi	a4,a4,26
   12f9c:	dad71ee3          	bne	a4,a3,12d58 <_vfprintf_r+0x8a>
   12fa0:	00e49703          	lh	a4,14(s1)
   12fa4:	da074ae3          	bltz	a4,12d58 <_vfprintf_r+0x8a>
   12fa8:	46d2                	lw	a3,20(sp)
   12faa:	4522                	lw	a0,8(sp)
   12fac:	865a                	mv	a2,s6
   12fae:	85a6                	mv	a1,s1
   12fb0:	00002097          	auipc	ra,0x2
   12fb4:	a32080e7          	jalr	-1486(ra) # 149e2 <__sbprintf>
   12fb8:	c62a                	sw	a0,12(sp)
   12fba:	bf4d                	j	12f6c <_vfprintf_r+0x29e>
   12fbc:	4c22                	lw	s8,8(sp)
   12fbe:	8562                	mv	a0,s8
   12fc0:	00003097          	auipc	ra,0x3
   12fc4:	30a080e7          	jalr	778(ra) # 162ca <_localeconv_r>
   12fc8:	415c                	lw	a5,4(a0)
   12fca:	853e                	mv	a0,a5
   12fcc:	c2be                	sw	a5,68(sp)
   12fce:	00003097          	auipc	ra,0x3
   12fd2:	746080e7          	jalr	1862(ra) # 16714 <strlen>
   12fd6:	87aa                	mv	a5,a0
   12fd8:	8562                	mv	a0,s8
   12fda:	c4be                	sw	a5,72(sp)
   12fdc:	8c3e                	mv	s8,a5
   12fde:	00003097          	auipc	ra,0x3
   12fe2:	2ec080e7          	jalr	748(ra) # 162ca <_localeconv_r>
   12fe6:	4518                	lw	a4,8(a0)
   12fe8:	de3a                	sw	a4,60(sp)
   12fea:	2e0c1ee3          	bnez	s8,13ae6 <_vfprintf_r+0xe18>
   12fee:	00094883          	lbu	a7,0(s2)
   12ff2:	bd21                	j	12e0a <_vfprintf_r+0x13c>
   12ff4:	00094883          	lbu	a7,0(s2)
   12ff8:	020cec93          	ori	s9,s9,32
   12ffc:	b539                	j	12e0a <_vfprintf_r+0x13c>
   12ffe:	010cec93          	ori	s9,s9,16
   13002:	020cf793          	andi	a5,s9,32
   13006:	28078b63          	beqz	a5,1329c <_vfprintf_r+0x5ce>
   1300a:	47d2                	lw	a5,20(sp)
   1300c:	00778c13          	addi	s8,a5,7
   13010:	ff8c7c13          	andi	s8,s8,-8
   13014:	004c2783          	lw	a5,4(s8)
   13018:	000c2b03          	lw	s6,0(s8)
   1301c:	008c0713          	addi	a4,s8,8
   13020:	ca3a                	sw	a4,20(sp)
   13022:	8dbe                	mv	s11,a5
   13024:	2a07c163          	bltz	a5,132c6 <_vfprintf_r+0x5f8>
   13028:	8ee6                	mv	t4,s9
   1302a:	3a0ac463          	bltz	s5,133d2 <_vfprintf_r+0x704>
   1302e:	01bb67b3          	or	a5,s6,s11
   13032:	f7fcfe93          	andi	t4,s9,-129
   13036:	38079e63          	bnez	a5,133d2 <_vfprintf_r+0x704>
   1303a:	3a0a9163          	bnez	s5,133dc <_vfprintf_r+0x70e>
   1303e:	4b01                	li	s6,0
   13040:	8cf6                	mv	s9,t4
   13042:	19010d13          	addi	s10,sp,400
   13046:	0a714703          	lbu	a4,167(sp)
   1304a:	8dd6                	mv	s11,s5
   1304c:	016ad363          	bge	s5,s6,13052 <_vfprintf_r+0x384>
   13050:	8dda                	mv	s11,s6
   13052:	c802                	sw	zero,16(sp)
   13054:	d402                	sw	zero,40(sp)
   13056:	d202                	sw	zero,36(sp)
   13058:	ce02                	sw	zero,28(sp)
   1305a:	e00705e3          	beqz	a4,12e64 <_vfprintf_r+0x196>
   1305e:	0d85                	addi	s11,s11,1
   13060:	b511                	j	12e64 <_vfprintf_r+0x196>
   13062:	010cec93          	ori	s9,s9,16
   13066:	020cf793          	andi	a5,s9,32
   1306a:	2c078a63          	beqz	a5,1333e <_vfprintf_r+0x670>
   1306e:	47d2                	lw	a5,20(sp)
   13070:	00778c13          	addi	s8,a5,7
   13074:	ff8c7c13          	andi	s8,s8,-8
   13078:	000c2b03          	lw	s6,0(s8)
   1307c:	004c2d83          	lw	s11,4(s8)
   13080:	008c0793          	addi	a5,s8,8
   13084:	ca3e                	sw	a5,20(sp)
   13086:	bffcfe93          	andi	t4,s9,-1025
   1308a:	4781                	li	a5,0
   1308c:	4701                	li	a4,0
   1308e:	0ae103a3          	sb	a4,167(sp)
   13092:	240aca63          	bltz	s5,132e6 <_vfprintf_r+0x618>
   13096:	01bb6733          	or	a4,s6,s11
   1309a:	f7fefc93          	andi	s9,t4,-129
   1309e:	70071463          	bnez	a4,137a6 <_vfprintf_r+0xad8>
   130a2:	540a9d63          	bnez	s5,135fc <_vfprintf_r+0x92e>
   130a6:	1e0798e3          	bnez	a5,13a96 <_vfprintf_r+0xdc8>
   130aa:	001efb13          	andi	s6,t4,1
   130ae:	19010d13          	addi	s10,sp,400
   130b2:	f80b0ae3          	beqz	s6,13046 <_vfprintf_r+0x378>
   130b6:	03000793          	li	a5,48
   130ba:	18f107a3          	sb	a5,399(sp)
   130be:	18f10d13          	addi	s10,sp,399
   130c2:	b751                	j	13046 <_vfprintf_r+0x378>
   130c4:	41a90ab3          	sub	s5,s2,s10
   130c8:	d1a912e3          	bne	s2,s10,12dcc <_vfprintf_r+0xfe>
   130cc:	00094703          	lbu	a4,0(s2)
   130d0:	b30d                	j	12df2 <_vfprintf_r+0x124>
   130d2:	4522                	lw	a0,8(sp)
   130d4:	01d0                	addi	a2,sp,196
   130d6:	85a6                	mv	a1,s1
   130d8:	00002097          	auipc	ra,0x2
   130dc:	722080e7          	jalr	1826(ra) # 157fa <__sprint_r>
   130e0:	e4051de3          	bnez	a0,12f3a <_vfprintf_r+0x26c>
   130e4:	844e                	mv	s0,s3
   130e6:	b309                	j	12de8 <_vfprintf_r+0x11a>
   130e8:	008cf713          	andi	a4,s9,8
   130ec:	22071ce3          	bnez	a4,13b24 <_vfprintf_r+0xe56>
   130f0:	47d2                	lw	a5,20(sp)
   130f2:	0908                	addi	a0,sp,144
   130f4:	c846                	sw	a7,16(sp)
   130f6:	00778c13          	addi	s8,a5,7
   130fa:	ff8c7c13          	andi	s8,s8,-8
   130fe:	000c2583          	lw	a1,0(s8)
   13102:	004c2603          	lw	a2,4(s8)
   13106:	008c0793          	addi	a5,s8,8
   1310a:	ca3e                	sw	a5,20(sp)
   1310c:	00009097          	auipc	ra,0x9
   13110:	e58080e7          	jalr	-424(ra) # 1bf64 <__extenddftf2>
   13114:	45ca                	lw	a1,144(sp)
   13116:	465a                	lw	a2,148(sp)
   13118:	46ea                	lw	a3,152(sp)
   1311a:	477a                	lw	a4,156(sp)
   1311c:	48c2                	lw	a7,16(sp)
   1311e:	0988                	addi	a0,sp,208
   13120:	c846                	sw	a7,16(sp)
   13122:	cfba                	sw	a4,220(sp)
   13124:	c9ae                	sw	a1,208(sp)
   13126:	cbb2                	sw	a2,212(sp)
   13128:	cdb6                	sw	a3,216(sp)
   1312a:	00004097          	auipc	ra,0x4
   1312e:	d9c080e7          	jalr	-612(ra) # 16ec6 <_ldcheck>
   13132:	d72a                	sw	a0,172(sp)
   13134:	4709                	li	a4,2
   13136:	48c2                	lw	a7,16(sp)
   13138:	66e504e3          	beq	a0,a4,13fa0 <_vfprintf_r+0x12d2>
   1313c:	4705                	li	a4,1
   1313e:	74e503e3          	beq	a0,a4,14084 <_vfprintf_r+0x13b6>
   13142:	06100713          	li	a4,97
   13146:	32e888e3          	beq	a7,a4,13c76 <_vfprintf_r+0xfa8>
   1314a:	04100713          	li	a4,65
   1314e:	05800793          	li	a5,88
   13152:	32e884e3          	beq	a7,a4,13c7a <_vfprintf_r+0xfac>
   13156:	577d                	li	a4,-1
   13158:	00ea9463          	bne	s5,a4,13160 <_vfprintf_r+0x492>
   1315c:	74a0106f          	j	148a6 <_vfprintf_r+0x1bd8>
   13160:	fdf8f713          	andi	a4,a7,-33
   13164:	04700693          	li	a3,71
   13168:	c802                	sw	zero,16(sp)
   1316a:	00d71563          	bne	a4,a3,13174 <_vfprintf_r+0x4a6>
   1316e:	000a9363          	bnez	s5,13174 <_vfprintf_r+0x4a6>
   13172:	4a85                	li	s5,1
   13174:	4c7e                	lw	s8,220(sp)
   13176:	100ce793          	ori	a5,s9,256
   1317a:	c6be                	sw	a5,76(sp)
   1317c:	dc02                	sw	zero,56(sp)
   1317e:	4fce                	lw	t6,208(sp)
   13180:	4f5e                	lw	t5,212(sp)
   13182:	4eee                	lw	t4,216(sp)
   13184:	000c5963          	bgez	s8,13196 <_vfprintf_r+0x4c8>
   13188:	80000737          	lui	a4,0x80000
   1318c:	02d00793          	li	a5,45
   13190:	01874c33          	xor	s8,a4,s8
   13194:	dc3e                	sw	a5,56(sp)
   13196:	fbf88713          	addi	a4,a7,-65
   1319a:	02500693          	li	a3,37
   1319e:	30e6ece3          	bltu	a3,a4,13cb6 <_vfprintf_r+0xfe8>
   131a2:	0001e6b7          	lui	a3,0x1e
   131a6:	070a                	slli	a4,a4,0x2
   131a8:	b6068693          	addi	a3,a3,-1184 # 1db60 <__clz_tab+0x26c>
   131ac:	9736                	add	a4,a4,a3
   131ae:	4318                	lw	a4,0(a4)
   131b0:	8702                	jr	a4
   131b2:	4522                	lw	a0,8(sp)
   131b4:	01d0                	addi	a2,sp,196
   131b6:	85a6                	mv	a1,s1
   131b8:	c8c6                	sw	a7,80(sp)
   131ba:	c6fe                	sw	t6,76(sp)
   131bc:	dc16                	sw	t0,56(sp)
   131be:	00002097          	auipc	ra,0x2
   131c2:	63c080e7          	jalr	1596(ra) # 157fa <__sprint_r>
   131c6:	5c051663          	bnez	a0,13792 <_vfprintf_r+0xac4>
   131ca:	463e                	lw	a2,204(sp)
   131cc:	48c6                	lw	a7,80(sp)
   131ce:	4fb6                	lw	t6,76(sp)
   131d0:	52e2                	lw	t0,56(sp)
   131d2:	844e                	mv	s0,s3
   131d4:	b1f9                	j	12ea2 <_vfprintf_r+0x1d4>
   131d6:	4aae                	lw	s5,200(sp)
   131d8:	5782                	lw	a5,32(sp)
   131da:	4705                	li	a4,1
   131dc:	01a42023          	sw	s10,0(s0)
   131e0:	00160c13          	addi	s8,a2,1
   131e4:	0a85                	addi	s5,s5,1
   131e6:	00840b13          	addi	s6,s0,8
   131ea:	00f751e3          	bge	a4,a5,139ec <_vfprintf_r+0xd1e>
   131ee:	4705                	li	a4,1
   131f0:	c058                	sw	a4,4(s0)
   131f2:	c7e2                	sw	s8,204(sp)
   131f4:	c5d6                	sw	s5,200(sp)
   131f6:	471d                	li	a4,7
   131f8:	3f574ee3          	blt	a4,s5,13df4 <_vfprintf_r+0x1126>
   131fc:	57b2                	lw	a5,44(sp)
   131fe:	5742                	lw	a4,48(sp)
   13200:	0a85                	addi	s5,s5,1
   13202:	9c3e                	add	s8,s8,a5
   13204:	00eb2023          	sw	a4,0(s6)
   13208:	00fb2223          	sw	a5,4(s6)
   1320c:	c7e2                	sw	s8,204(sp)
   1320e:	c5d6                	sw	s5,200(sp)
   13210:	471d                	li	a4,7
   13212:	0b21                	addi	s6,s6,8
   13214:	3f574ee3          	blt	a4,s5,13e10 <_vfprintf_r+0x1142>
   13218:	474e                	lw	a4,208(sp)
   1321a:	5782                	lw	a5,32(sp)
   1321c:	010c                	addi	a1,sp,128
   1321e:	c93a                	sw	a4,144(sp)
   13220:	475e                	lw	a4,212(sp)
   13222:	0908                	addi	a0,sp,144
   13224:	c102                	sw	zero,128(sp)
   13226:	cb3a                	sw	a4,148(sp)
   13228:	476e                	lw	a4,216(sp)
   1322a:	c302                	sw	zero,132(sp)
   1322c:	c502                	sw	zero,136(sp)
   1322e:	cd3a                	sw	a4,152(sp)
   13230:	477e                	lw	a4,220(sp)
   13232:	c702                	sw	zero,140(sp)
   13234:	fff78413          	addi	s0,a5,-1
   13238:	cf3a                	sw	a4,156(sp)
   1323a:	00007097          	auipc	ra,0x7
   1323e:	f46080e7          	jalr	-186(ra) # 1a180 <__eqtf2>
   13242:	7c050c63          	beqz	a0,13a1a <_vfprintf_r+0xd4c>
   13246:	001d0793          	addi	a5,s10,1
   1324a:	0a85                	addi	s5,s5,1
   1324c:	9c22                	add	s8,s8,s0
   1324e:	00fb2023          	sw	a5,0(s6)
   13252:	008b2223          	sw	s0,4(s6)
   13256:	c7e2                	sw	s8,204(sp)
   13258:	c5d6                	sw	s5,200(sp)
   1325a:	479d                	li	a5,7
   1325c:	0b21                	addi	s6,s6,8
   1325e:	7b57c163          	blt	a5,s5,13a00 <_vfprintf_r+0xd32>
   13262:	4686                	lw	a3,64(sp)
   13264:	1958                	addi	a4,sp,180
   13266:	001a8793          	addi	a5,s5,1
   1326a:	01868633          	add	a2,a3,s8
   1326e:	00eb2023          	sw	a4,0(s6)
   13272:	00db2223          	sw	a3,4(s6)
   13276:	c7b2                	sw	a2,204(sp)
   13278:	c5be                	sw	a5,200(sp)
   1327a:	471d                	li	a4,7
   1327c:	008b0413          	addi	s0,s6,8
   13280:	c6f759e3          	bge	a4,a5,12ef2 <_vfprintf_r+0x224>
   13284:	4522                	lw	a0,8(sp)
   13286:	01d0                	addi	a2,sp,196
   13288:	85a6                	mv	a1,s1
   1328a:	00002097          	auipc	ra,0x2
   1328e:	570080e7          	jalr	1392(ra) # 157fa <__sprint_r>
   13292:	50051063          	bnez	a0,13792 <_vfprintf_r+0xac4>
   13296:	463e                	lw	a2,204(sp)
   13298:	844e                	mv	s0,s3
   1329a:	b9a1                	j	12ef2 <_vfprintf_r+0x224>
   1329c:	4752                	lw	a4,20(sp)
   1329e:	010cf793          	andi	a5,s9,16
   132a2:	00072b03          	lw	s6,0(a4) # 80000000 <__BSS_END__+0x7ffe15a4>
   132a6:	0711                	addi	a4,a4,4
   132a8:	ca3a                	sw	a4,20(sp)
   132aa:	020799e3          	bnez	a5,13adc <_vfprintf_r+0xe0e>
   132ae:	040cf793          	andi	a5,s9,64
   132b2:	020781e3          	beqz	a5,13ad4 <_vfprintf_r+0xe06>
   132b6:	0b42                	slli	s6,s6,0x10
   132b8:	410b5b13          	srai	s6,s6,0x10
   132bc:	41fb5d93          	srai	s11,s6,0x1f
   132c0:	87ee                	mv	a5,s11
   132c2:	d607d3e3          	bgez	a5,13028 <_vfprintf_r+0x35a>
   132c6:	02d00713          	li	a4,45
   132ca:	016037b3          	snez	a5,s6
   132ce:	41b00db3          	neg	s11,s11
   132d2:	0ae103a3          	sb	a4,167(sp)
   132d6:	40fd8db3          	sub	s11,s11,a5
   132da:	41600b33          	neg	s6,s6
   132de:	8ee6                	mv	t4,s9
   132e0:	4785                	li	a5,1
   132e2:	da0adae3          	bgez	s5,13096 <_vfprintf_r+0x3c8>
   132e6:	4705                	li	a4,1
   132e8:	0ee78563          	beq	a5,a4,133d2 <_vfprintf_r+0x704>
   132ec:	4709                	li	a4,2
   132ee:	32e78063          	beq	a5,a4,1360e <_vfprintf_r+0x940>
   132f2:	19010d13          	addi	s10,sp,400
   132f6:	01dd9793          	slli	a5,s11,0x1d
   132fa:	007b7713          	andi	a4,s6,7
   132fe:	003b5b13          	srli	s6,s6,0x3
   13302:	03070713          	addi	a4,a4,48
   13306:	0167eb33          	or	s6,a5,s6
   1330a:	003ddd93          	srli	s11,s11,0x3
   1330e:	feed0fa3          	sb	a4,-1(s10)
   13312:	01bb67b3          	or	a5,s6,s11
   13316:	866a                	mv	a2,s10
   13318:	1d7d                	addi	s10,s10,-1
   1331a:	fff1                	bnez	a5,132f6 <_vfprintf_r+0x628>
   1331c:	001ef693          	andi	a3,t4,1
   13320:	30068d63          	beqz	a3,1363a <_vfprintf_r+0x96c>
   13324:	03000693          	li	a3,48
   13328:	30d70963          	beq	a4,a3,1363a <_vfprintf_r+0x96c>
   1332c:	1679                	addi	a2,a2,-2
   1332e:	0b1c                	addi	a5,sp,400
   13330:	fedd0fa3          	sb	a3,-1(s10)
   13334:	40c78b33          	sub	s6,a5,a2
   13338:	8cf6                	mv	s9,t4
   1333a:	8d32                	mv	s10,a2
   1333c:	b329                	j	13046 <_vfprintf_r+0x378>
   1333e:	4752                	lw	a4,20(sp)
   13340:	010cf793          	andi	a5,s9,16
   13344:	00072b03          	lw	s6,0(a4)
   13348:	0711                	addi	a4,a4,4
   1334a:	ca3a                	sw	a4,20(sp)
   1334c:	78079163          	bnez	a5,13ace <_vfprintf_r+0xe00>
   13350:	040cf793          	andi	a5,s9,64
   13354:	76078963          	beqz	a5,13ac6 <_vfprintf_r+0xdf8>
   13358:	0b42                	slli	s6,s6,0x10
   1335a:	010b5b13          	srli	s6,s6,0x10
   1335e:	4d81                	li	s11,0
   13360:	b31d                	j	13086 <_vfprintf_r+0x3b8>
   13362:	4752                	lw	a4,20(sp)
   13364:	0a0103a3          	sb	zero,167(sp)
   13368:	4d85                	li	s11,1
   1336a:	431c                	lw	a5,0(a4)
   1336c:	0711                	addi	a4,a4,4
   1336e:	ca3a                	sw	a4,20(sp)
   13370:	12f10623          	sb	a5,300(sp)
   13374:	4b05                	li	s6,1
   13376:	12c10d13          	addi	s10,sp,300
   1337a:	b4c5                	j	12e5a <_vfprintf_r+0x18c>
   1337c:	47d2                	lw	a5,20(sp)
   1337e:	0a0103a3          	sb	zero,167(sp)
   13382:	0007ad03          	lw	s10,0(a5)
   13386:	00478c13          	addi	s8,a5,4
   1338a:	040d09e3          	beqz	s10,13bdc <_vfprintf_r+0xf0e>
   1338e:	4a0ac9e3          	bltz	s5,14040 <_vfprintf_r+0x1372>
   13392:	8656                	mv	a2,s5
   13394:	4581                	li	a1,0
   13396:	856a                	mv	a0,s10
   13398:	ca46                	sw	a7,20(sp)
   1339a:	00003097          	auipc	ra,0x3
   1339e:	e28080e7          	jalr	-472(ra) # 161c2 <memchr>
   133a2:	c82a                	sw	a0,16(sp)
   133a4:	48d2                	lw	a7,20(sp)
   133a6:	e119                	bnez	a0,133ac <_vfprintf_r+0x6de>
   133a8:	3540106f          	j	146fc <_vfprintf_r+0x1a2e>
   133ac:	47c2                	lw	a5,16(sp)
   133ae:	0a714703          	lbu	a4,167(sp)
   133b2:	ca62                	sw	s8,20(sp)
   133b4:	41a78b33          	sub	s6,a5,s10
   133b8:	fffb4693          	not	a3,s6
   133bc:	86fd                	srai	a3,a3,0x1f
   133be:	c802                	sw	zero,16(sp)
   133c0:	d402                	sw	zero,40(sp)
   133c2:	d202                	sw	zero,36(sp)
   133c4:	ce02                	sw	zero,28(sp)
   133c6:	00db7db3          	and	s11,s6,a3
   133ca:	4a81                	li	s5,0
   133cc:	c80719e3          	bnez	a4,1305e <_vfprintf_r+0x390>
   133d0:	bc51                	j	12e64 <_vfprintf_r+0x196>
   133d2:	260d93e3          	bnez	s11,13e38 <_vfprintf_r+0x116a>
   133d6:	47a5                	li	a5,9
   133d8:	2767e0e3          	bltu	a5,s6,13e38 <_vfprintf_r+0x116a>
   133dc:	030b0b13          	addi	s6,s6,48
   133e0:	196107a3          	sb	s6,399(sp)
   133e4:	8cf6                	mv	s9,t4
   133e6:	4b05                	li	s6,1
   133e8:	18f10d13          	addi	s10,sp,399
   133ec:	b9a9                	j	13046 <_vfprintf_r+0x378>
   133ee:	47d2                	lw	a5,20(sp)
   133f0:	0007ab83          	lw	s7,0(a5)
   133f4:	0791                	addi	a5,a5,4
   133f6:	6a0bda63          	bgez	s7,13aaa <_vfprintf_r+0xddc>
   133fa:	41700bb3          	neg	s7,s7
   133fe:	ca3e                	sw	a5,20(sp)
   13400:	00094883          	lbu	a7,0(s2)
   13404:	004cec93          	ori	s9,s9,4
   13408:	b409                	j	12e0a <_vfprintf_r+0x13c>
   1340a:	02b00793          	li	a5,43
   1340e:	00094883          	lbu	a7,0(s2)
   13412:	0af103a3          	sb	a5,167(sp)
   13416:	bad5                	j	12e0a <_vfprintf_r+0x13c>
   13418:	00094883          	lbu	a7,0(s2)
   1341c:	080cec93          	ori	s9,s9,128
   13420:	b2ed                	j	12e0a <_vfprintf_r+0x13c>
   13422:	00094883          	lbu	a7,0(s2)
   13426:	02a00793          	li	a5,42
   1342a:	00190693          	addi	a3,s2,1
   1342e:	00f89463          	bne	a7,a5,13436 <_vfprintf_r+0x768>
   13432:	5600106f          	j	14992 <_vfprintf_r+0x1cc4>
   13436:	fd088793          	addi	a5,a7,-48
   1343a:	4725                	li	a4,9
   1343c:	4a81                	li	s5,0
   1343e:	4625                	li	a2,9
   13440:	02f76063          	bltu	a4,a5,13460 <_vfprintf_r+0x792>
   13444:	0006c883          	lbu	a7,0(a3)
   13448:	002a9713          	slli	a4,s5,0x2
   1344c:	9aba                	add	s5,s5,a4
   1344e:	0a86                	slli	s5,s5,0x1
   13450:	9abe                	add	s5,s5,a5
   13452:	fd088793          	addi	a5,a7,-48
   13456:	0685                	addi	a3,a3,1
   13458:	fef676e3          	bgeu	a2,a5,13444 <_vfprintf_r+0x776>
   1345c:	6e0ac263          	bltz	s5,13b40 <_vfprintf_r+0xe72>
   13460:	8936                	mv	s2,a3
   13462:	b26d                	j	12e0c <_vfprintf_r+0x13e>
   13464:	00094883          	lbu	a7,0(s2)
   13468:	001cec93          	ori	s9,s9,1
   1346c:	ba79                	j	12e0a <_vfprintf_r+0x13c>
   1346e:	0a714783          	lbu	a5,167(sp)
   13472:	00094883          	lbu	a7,0(s2)
   13476:	98079ae3          	bnez	a5,12e0a <_vfprintf_r+0x13c>
   1347a:	02000793          	li	a5,32
   1347e:	0af103a3          	sb	a5,167(sp)
   13482:	b261                	j	12e0a <_vfprintf_r+0x13c>
   13484:	010cee93          	ori	t4,s9,16
   13488:	020ef793          	andi	a5,t4,32
   1348c:	5e078363          	beqz	a5,13a72 <_vfprintf_r+0xda4>
   13490:	47d2                	lw	a5,20(sp)
   13492:	00778c13          	addi	s8,a5,7
   13496:	ff8c7c13          	andi	s8,s8,-8
   1349a:	008c0793          	addi	a5,s8,8
   1349e:	ca3e                	sw	a5,20(sp)
   134a0:	000c2b03          	lw	s6,0(s8)
   134a4:	004c2d83          	lw	s11,4(s8)
   134a8:	4785                	li	a5,1
   134aa:	b6cd                	j	1308c <_vfprintf_r+0x3be>
   134ac:	00094883          	lbu	a7,0(s2)
   134b0:	008cec93          	ori	s9,s9,8
   134b4:	ba99                	j	12e0a <_vfprintf_r+0x13c>
   134b6:	4752                	lw	a4,20(sp)
   134b8:	67a1                	lui	a5,0x8
   134ba:	83078793          	addi	a5,a5,-2000 # 7830 <exit-0x8864>
   134be:	0af11423          	sh	a5,168(sp)
   134c2:	00470793          	addi	a5,a4,4
   134c6:	ca3e                	sw	a5,20(sp)
   134c8:	0001d7b7          	lui	a5,0x1d
   134cc:	41c78793          	addi	a5,a5,1052 # 1d41c <__extenddftf2+0x14b8>
   134d0:	da3e                	sw	a5,52(sp)
   134d2:	00072b03          	lw	s6,0(a4)
   134d6:	4d81                	li	s11,0
   134d8:	002cee93          	ori	t4,s9,2
   134dc:	4789                	li	a5,2
   134de:	07800893          	li	a7,120
   134e2:	b66d                	j	1308c <_vfprintf_r+0x3be>
   134e4:	020cf793          	andi	a5,s9,32
   134e8:	60078c63          	beqz	a5,13b00 <_vfprintf_r+0xe32>
   134ec:	47d2                	lw	a5,20(sp)
   134ee:	46b2                	lw	a3,12(sp)
   134f0:	439c                	lw	a5,0(a5)
   134f2:	41f6d713          	srai	a4,a3,0x1f
   134f6:	c394                	sw	a3,0(a5)
   134f8:	c3d8                	sw	a4,4(a5)
   134fa:	47d2                	lw	a5,20(sp)
   134fc:	8d4a                	mv	s10,s2
   134fe:	0791                	addi	a5,a5,4
   13500:	ca3e                	sw	a5,20(sp)
   13502:	b425                	j	12f2a <_vfprintf_r+0x25c>
   13504:	00094883          	lbu	a7,0(s2)
   13508:	06c00793          	li	a5,108
   1350c:	6af88563          	beq	a7,a5,13bb6 <_vfprintf_r+0xee8>
   13510:	010cec93          	ori	s9,s9,16
   13514:	b8dd                	j	12e0a <_vfprintf_r+0x13c>
   13516:	00094883          	lbu	a7,0(s2)
   1351a:	06800793          	li	a5,104
   1351e:	68f88563          	beq	a7,a5,13ba8 <_vfprintf_r+0xeda>
   13522:	040cec93          	ori	s9,s9,64
   13526:	b0d5                	j	12e0a <_vfprintf_r+0x13c>
   13528:	06500713          	li	a4,101
   1352c:	cb1755e3          	bge	a4,a7,131d6 <_vfprintf_r+0x508>
   13530:	474e                	lw	a4,208(sp)
   13532:	010c                	addi	a1,sp,128
   13534:	0908                	addi	a0,sp,144
   13536:	c93a                	sw	a4,144(sp)
   13538:	475e                	lw	a4,212(sp)
   1353a:	dc32                	sw	a2,56(sp)
   1353c:	c102                	sw	zero,128(sp)
   1353e:	cb3a                	sw	a4,148(sp)
   13540:	476e                	lw	a4,216(sp)
   13542:	c302                	sw	zero,132(sp)
   13544:	c502                	sw	zero,136(sp)
   13546:	cd3a                	sw	a4,152(sp)
   13548:	477e                	lw	a4,220(sp)
   1354a:	c702                	sw	zero,140(sp)
   1354c:	cf3a                	sw	a4,156(sp)
   1354e:	00007097          	auipc	ra,0x7
   13552:	c32080e7          	jalr	-974(ra) # 1a180 <__eqtf2>
   13556:	5662                	lw	a2,56(sp)
   13558:	3a051163          	bnez	a0,138fa <_vfprintf_r+0xc2c>
   1355c:	47ae                	lw	a5,200(sp)
   1355e:	0001d737          	lui	a4,0x1d
   13562:	44c70713          	addi	a4,a4,1100 # 1d44c <__extenddftf2+0x14e8>
   13566:	c018                	sw	a4,0(s0)
   13568:	0605                	addi	a2,a2,1
   1356a:	4705                	li	a4,1
   1356c:	0785                	addi	a5,a5,1
   1356e:	c058                	sw	a4,4(s0)
   13570:	c7b2                	sw	a2,204(sp)
   13572:	c5be                	sw	a5,200(sp)
   13574:	471d                	li	a4,7
   13576:	0421                	addi	s0,s0,8
   13578:	1ef747e3          	blt	a4,a5,13f66 <_vfprintf_r+0x1298>
   1357c:	57ba                	lw	a5,172(sp)
   1357e:	5702                	lw	a4,32(sp)
   13580:	52e7d063          	bge	a5,a4,13aa0 <_vfprintf_r+0xdd2>
   13584:	57c2                	lw	a5,48(sp)
   13586:	5732                	lw	a4,44(sp)
   13588:	0421                	addi	s0,s0,8
   1358a:	fef42c23          	sw	a5,-8(s0)
   1358e:	47ae                	lw	a5,200(sp)
   13590:	963a                	add	a2,a2,a4
   13592:	fee42e23          	sw	a4,-4(s0)
   13596:	0785                	addi	a5,a5,1
   13598:	c7b2                	sw	a2,204(sp)
   1359a:	c5be                	sw	a5,200(sp)
   1359c:	471d                	li	a4,7
   1359e:	62f74363          	blt	a4,a5,13bc4 <_vfprintf_r+0xef6>
   135a2:	5782                	lw	a5,32(sp)
   135a4:	fff78a93          	addi	s5,a5,-1
   135a8:	955055e3          	blez	s5,12ef2 <_vfprintf_r+0x224>
   135ac:	0001e837          	lui	a6,0x1e
   135b0:	bf880813          	addi	a6,a6,-1032 # 1dbf8 <zeroes.0>
   135b4:	4741                	li	a4,16
   135b6:	47ae                	lw	a5,200(sp)
   135b8:	4b41                	li	s6,16
   135ba:	4c1d                	li	s8,7
   135bc:	8d42                	mv	s10,a6
   135be:	01574763          	blt	a4,s5,135cc <_vfprintf_r+0x8fe>
   135c2:	1c10006f          	j	13f82 <_vfprintf_r+0x12b4>
   135c6:	1ac1                	addi	s5,s5,-16
   135c8:	1b5b5ce3          	bge	s6,s5,13f80 <_vfprintf_r+0x12b2>
   135cc:	0641                	addi	a2,a2,16
   135ce:	0785                	addi	a5,a5,1
   135d0:	01a42023          	sw	s10,0(s0)
   135d4:	01642223          	sw	s6,4(s0)
   135d8:	c7b2                	sw	a2,204(sp)
   135da:	c5be                	sw	a5,200(sp)
   135dc:	0421                	addi	s0,s0,8
   135de:	fefc54e3          	bge	s8,a5,135c6 <_vfprintf_r+0x8f8>
   135e2:	4522                	lw	a0,8(sp)
   135e4:	01d0                	addi	a2,sp,196
   135e6:	85a6                	mv	a1,s1
   135e8:	00002097          	auipc	ra,0x2
   135ec:	212080e7          	jalr	530(ra) # 157fa <__sprint_r>
   135f0:	1a051163          	bnez	a0,13792 <_vfprintf_r+0xac4>
   135f4:	463e                	lw	a2,204(sp)
   135f6:	47ae                	lw	a5,200(sp)
   135f8:	844e                	mv	s0,s3
   135fa:	b7f1                	j	135c6 <_vfprintf_r+0x8f8>
   135fc:	4705                	li	a4,1
   135fe:	00e79463          	bne	a5,a4,13606 <_vfprintf_r+0x938>
   13602:	1e80106f          	j	147ea <_vfprintf_r+0x1b1c>
   13606:	4709                	li	a4,2
   13608:	8ee6                	mv	t4,s9
   1360a:	cee794e3          	bne	a5,a4,132f2 <_vfprintf_r+0x624>
   1360e:	56d2                	lw	a3,52(sp)
   13610:	19010d13          	addi	s10,sp,400
   13614:	00fb7793          	andi	a5,s6,15
   13618:	97b6                	add	a5,a5,a3
   1361a:	0007c703          	lbu	a4,0(a5)
   1361e:	004b5b13          	srli	s6,s6,0x4
   13622:	01cd9793          	slli	a5,s11,0x1c
   13626:	0167eb33          	or	s6,a5,s6
   1362a:	004ddd93          	srli	s11,s11,0x4
   1362e:	feed0fa3          	sb	a4,-1(s10)
   13632:	01bb67b3          	or	a5,s6,s11
   13636:	1d7d                	addi	s10,s10,-1
   13638:	fff1                	bnez	a5,13614 <_vfprintf_r+0x946>
   1363a:	0b1c                	addi	a5,sp,400
   1363c:	41a78b33          	sub	s6,a5,s10
   13640:	8cf6                	mv	s9,t4
   13642:	b411                	j	13046 <_vfprintf_r+0x378>
   13644:	41bb8c33          	sub	s8,s7,s11
   13648:	898050e3          	blez	s8,12ec8 <_vfprintf_r+0x1fa>
   1364c:	0001e837          	lui	a6,0x1e
   13650:	4541                	li	a0,16
   13652:	45ae                	lw	a1,200(sp)
   13654:	bf880813          	addi	a6,a6,-1032 # 1dbf8 <zeroes.0>
   13658:	07855163          	bge	a0,s8,136ba <_vfprintf_r+0x9ec>
   1365c:	dc4a                	sw	s2,56(sp)
   1365e:	87a2                	mv	a5,s0
   13660:	4ec1                	li	t4,16
   13662:	8462                	mv	s0,s8
   13664:	4f9d                	li	t6,7
   13666:	8c5a                	mv	s8,s6
   13668:	8942                	mv	s2,a6
   1366a:	8b56                	mv	s6,s5
   1366c:	8ac6                	mv	s5,a7
   1366e:	a021                	j	13676 <_vfprintf_r+0x9a8>
   13670:	1441                	addi	s0,s0,-16
   13672:	028edd63          	bge	t4,s0,136ac <_vfprintf_r+0x9de>
   13676:	0641                	addi	a2,a2,16
   13678:	0585                	addi	a1,a1,1 # 2001 <exit-0xe093>
   1367a:	0127a023          	sw	s2,0(a5)
   1367e:	01d7a223          	sw	t4,4(a5)
   13682:	c7b2                	sw	a2,204(sp)
   13684:	c5ae                	sw	a1,200(sp)
   13686:	07a1                	addi	a5,a5,8
   13688:	febfd4e3          	bge	t6,a1,13670 <_vfprintf_r+0x9a2>
   1368c:	4522                	lw	a0,8(sp)
   1368e:	01d0                	addi	a2,sp,196
   13690:	85a6                	mv	a1,s1
   13692:	00002097          	auipc	ra,0x2
   13696:	168080e7          	jalr	360(ra) # 157fa <__sprint_r>
   1369a:	ed65                	bnez	a0,13792 <_vfprintf_r+0xac4>
   1369c:	4ec1                	li	t4,16
   1369e:	1441                	addi	s0,s0,-16
   136a0:	463e                	lw	a2,204(sp)
   136a2:	45ae                	lw	a1,200(sp)
   136a4:	87ce                	mv	a5,s3
   136a6:	4f9d                	li	t6,7
   136a8:	fc8ec7e3          	blt	t4,s0,13676 <_vfprintf_r+0x9a8>
   136ac:	884a                	mv	a6,s2
   136ae:	5962                	lw	s2,56(sp)
   136b0:	88d6                	mv	a7,s5
   136b2:	8ada                	mv	s5,s6
   136b4:	8b62                	mv	s6,s8
   136b6:	8c22                	mv	s8,s0
   136b8:	843e                	mv	s0,a5
   136ba:	9662                	add	a2,a2,s8
   136bc:	0585                	addi	a1,a1,1
   136be:	01042023          	sw	a6,0(s0)
   136c2:	01842223          	sw	s8,4(s0)
   136c6:	c7b2                	sw	a2,204(sp)
   136c8:	c5ae                	sw	a1,200(sp)
   136ca:	471d                	li	a4,7
   136cc:	0421                	addi	s0,s0,8
   136ce:	feb75d63          	bge	a4,a1,12ec8 <_vfprintf_r+0x1fa>
   136d2:	4522                	lw	a0,8(sp)
   136d4:	01d0                	addi	a2,sp,196
   136d6:	85a6                	mv	a1,s1
   136d8:	dc46                	sw	a7,56(sp)
   136da:	00002097          	auipc	ra,0x2
   136de:	120080e7          	jalr	288(ra) # 157fa <__sprint_r>
   136e2:	e945                	bnez	a0,13792 <_vfprintf_r+0xac4>
   136e4:	463e                	lw	a2,204(sp)
   136e6:	58e2                	lw	a7,56(sp)
   136e8:	844e                	mv	s0,s3
   136ea:	fdeff06f          	j	12ec8 <_vfprintf_r+0x1fa>
   136ee:	0001e837          	lui	a6,0x1e
   136f2:	4741                	li	a4,16
   136f4:	45ae                	lw	a1,200(sp)
   136f6:	bf880813          	addi	a6,a6,-1032 # 1dbf8 <zeroes.0>
   136fa:	05575963          	bge	a4,s5,1374c <_vfprintf_r+0xa7e>
   136fe:	87a2                	mv	a5,s0
   13700:	4741                	li	a4,16
   13702:	8456                	mv	s0,s5
   13704:	4c1d                	li	s8,7
   13706:	dc46                	sw	a7,56(sp)
   13708:	8ad2                	mv	s5,s4
   1370a:	a021                	j	13712 <_vfprintf_r+0xa44>
   1370c:	1441                	addi	s0,s0,-16
   1370e:	02875b63          	bge	a4,s0,13744 <_vfprintf_r+0xa76>
   13712:	0641                	addi	a2,a2,16
   13714:	0585                	addi	a1,a1,1
   13716:	0147a023          	sw	s4,0(a5)
   1371a:	c3d8                	sw	a4,4(a5)
   1371c:	c7b2                	sw	a2,204(sp)
   1371e:	c5ae                	sw	a1,200(sp)
   13720:	07a1                	addi	a5,a5,8
   13722:	febc55e3          	bge	s8,a1,1370c <_vfprintf_r+0xa3e>
   13726:	4522                	lw	a0,8(sp)
   13728:	01d0                	addi	a2,sp,196
   1372a:	85a6                	mv	a1,s1
   1372c:	00002097          	auipc	ra,0x2
   13730:	0ce080e7          	jalr	206(ra) # 157fa <__sprint_r>
   13734:	ed39                	bnez	a0,13792 <_vfprintf_r+0xac4>
   13736:	4741                	li	a4,16
   13738:	1441                	addi	s0,s0,-16
   1373a:	463e                	lw	a2,204(sp)
   1373c:	45ae                	lw	a1,200(sp)
   1373e:	87ce                	mv	a5,s3
   13740:	fc8749e3          	blt	a4,s0,13712 <_vfprintf_r+0xa44>
   13744:	58e2                	lw	a7,56(sp)
   13746:	8856                	mv	a6,s5
   13748:	8aa2                	mv	s5,s0
   1374a:	843e                	mv	s0,a5
   1374c:	9656                	add	a2,a2,s5
   1374e:	0585                	addi	a1,a1,1
   13750:	01042023          	sw	a6,0(s0)
   13754:	01542223          	sw	s5,4(s0)
   13758:	c7b2                	sw	a2,204(sp)
   1375a:	c5ae                	sw	a1,200(sp)
   1375c:	471d                	li	a4,7
   1375e:	0421                	addi	s0,s0,8
   13760:	f6b75863          	bge	a4,a1,12ed0 <_vfprintf_r+0x202>
   13764:	4522                	lw	a0,8(sp)
   13766:	01d0                	addi	a2,sp,196
   13768:	85a6                	mv	a1,s1
   1376a:	dc46                	sw	a7,56(sp)
   1376c:	00002097          	auipc	ra,0x2
   13770:	08e080e7          	jalr	142(ra) # 157fa <__sprint_r>
   13774:	ed19                	bnez	a0,13792 <_vfprintf_r+0xac4>
   13776:	463e                	lw	a2,204(sp)
   13778:	58e2                	lw	a7,56(sp)
   1377a:	844e                	mv	s0,s3
   1377c:	f54ff06f          	j	12ed0 <_vfprintf_r+0x202>
   13780:	4522                	lw	a0,8(sp)
   13782:	01d0                	addi	a2,sp,196
   13784:	85a6                	mv	a1,s1
   13786:	00002097          	auipc	ra,0x2
   1378a:	074080e7          	jalr	116(ra) # 157fa <__sprint_r>
   1378e:	f8050363          	beqz	a0,12f14 <_vfprintf_r+0x246>
   13792:	45c2                	lw	a1,16(sp)
   13794:	fa058363          	beqz	a1,12f3a <_vfprintf_r+0x26c>
   13798:	4522                	lw	a0,8(sp)
   1379a:	00003097          	auipc	ra,0x3
   1379e:	326080e7          	jalr	806(ra) # 16ac0 <_free_r>
   137a2:	f98ff06f          	j	12f3a <_vfprintf_r+0x26c>
   137a6:	8ee6                	mv	t4,s9
   137a8:	be3d                	j	132e6 <_vfprintf_r+0x618>
   137aa:	0001e837          	lui	a6,0x1e
   137ae:	4541                	li	a0,16
   137b0:	45ae                	lw	a1,200(sp)
   137b2:	c0880c13          	addi	s8,a6,-1016 # 1dc08 <blanks.1>
   137b6:	06e55563          	bge	a0,a4,13820 <_vfprintf_r+0xb52>
   137ba:	c8ca                	sw	s2,80(sp)
   137bc:	87a2                	mv	a5,s0
   137be:	8962                	mv	s2,s8
   137c0:	4ec1                	li	t4,16
   137c2:	8c5a                	mv	s8,s6
   137c4:	439d                	li	t2,7
   137c6:	8b56                	mv	s6,s5
   137c8:	dc16                	sw	t0,56(sp)
   137ca:	c6fe                	sw	t6,76(sp)
   137cc:	843a                	mv	s0,a4
   137ce:	8ac6                	mv	s5,a7
   137d0:	a021                	j	137d8 <_vfprintf_r+0xb0a>
   137d2:	1441                	addi	s0,s0,-16
   137d4:	028edd63          	bge	t4,s0,1380e <_vfprintf_r+0xb40>
   137d8:	0641                	addi	a2,a2,16
   137da:	0585                	addi	a1,a1,1
   137dc:	0127a023          	sw	s2,0(a5)
   137e0:	01d7a223          	sw	t4,4(a5)
   137e4:	c7b2                	sw	a2,204(sp)
   137e6:	c5ae                	sw	a1,200(sp)
   137e8:	07a1                	addi	a5,a5,8
   137ea:	feb3d4e3          	bge	t2,a1,137d2 <_vfprintf_r+0xb04>
   137ee:	4522                	lw	a0,8(sp)
   137f0:	01d0                	addi	a2,sp,196
   137f2:	85a6                	mv	a1,s1
   137f4:	00002097          	auipc	ra,0x2
   137f8:	006080e7          	jalr	6(ra) # 157fa <__sprint_r>
   137fc:	f959                	bnez	a0,13792 <_vfprintf_r+0xac4>
   137fe:	4ec1                	li	t4,16
   13800:	1441                	addi	s0,s0,-16
   13802:	463e                	lw	a2,204(sp)
   13804:	45ae                	lw	a1,200(sp)
   13806:	87ce                	mv	a5,s3
   13808:	439d                	li	t2,7
   1380a:	fc8ec7e3          	blt	t4,s0,137d8 <_vfprintf_r+0xb0a>
   1380e:	88d6                	mv	a7,s5
   13810:	52e2                	lw	t0,56(sp)
   13812:	8ada                	mv	s5,s6
   13814:	4fb6                	lw	t6,76(sp)
   13816:	8b62                	mv	s6,s8
   13818:	8c4a                	mv	s8,s2
   1381a:	4946                	lw	s2,80(sp)
   1381c:	8722                	mv	a4,s0
   1381e:	843e                	mv	s0,a5
   13820:	963a                	add	a2,a2,a4
   13822:	0585                	addi	a1,a1,1
   13824:	c058                	sw	a4,4(s0)
   13826:	01842023          	sw	s8,0(s0)
   1382a:	c7b2                	sw	a2,204(sp)
   1382c:	c5ae                	sw	a1,200(sp)
   1382e:	471d                	li	a4,7
   13830:	0421                	addi	s0,s0,8
   13832:	e4b75763          	bge	a4,a1,12e80 <_vfprintf_r+0x1b2>
   13836:	4522                	lw	a0,8(sp)
   13838:	01d0                	addi	a2,sp,196
   1383a:	85a6                	mv	a1,s1
   1383c:	c8c6                	sw	a7,80(sp)
   1383e:	c6fe                	sw	t6,76(sp)
   13840:	dc16                	sw	t0,56(sp)
   13842:	00002097          	auipc	ra,0x2
   13846:	fb8080e7          	jalr	-72(ra) # 157fa <__sprint_r>
   1384a:	f521                	bnez	a0,13792 <_vfprintf_r+0xac4>
   1384c:	463e                	lw	a2,204(sp)
   1384e:	48c6                	lw	a7,80(sp)
   13850:	4fb6                	lw	t6,76(sp)
   13852:	52e2                	lw	t0,56(sp)
   13854:	844e                	mv	s0,s3
   13856:	e2aff06f          	j	12e80 <_vfprintf_r+0x1b2>
   1385a:	4522                	lw	a0,8(sp)
   1385c:	01d0                	addi	a2,sp,196
   1385e:	85a6                	mv	a1,s1
   13860:	c6c6                	sw	a7,76(sp)
   13862:	dc7e                	sw	t6,56(sp)
   13864:	00002097          	auipc	ra,0x2
   13868:	f96080e7          	jalr	-106(ra) # 157fa <__sprint_r>
   1386c:	f11d                	bnez	a0,13792 <_vfprintf_r+0xac4>
   1386e:	463e                	lw	a2,204(sp)
   13870:	48b6                	lw	a7,76(sp)
   13872:	5fe2                	lw	t6,56(sp)
   13874:	844e                	mv	s0,s3
   13876:	e4aff06f          	j	12ec0 <_vfprintf_r+0x1f2>
   1387a:	0001e837          	lui	a6,0x1e
   1387e:	4741                	li	a4,16
   13880:	47ae                	lw	a5,200(sp)
   13882:	c0880c13          	addi	s8,a6,-1016 # 1dc08 <blanks.1>
   13886:	05575363          	bge	a4,s5,138cc <_vfprintf_r+0xbfe>
   1388a:	4d22                	lw	s10,8(sp)
   1388c:	4b41                	li	s6,16
   1388e:	4c9d                	li	s9,7
   13890:	a021                	j	13898 <_vfprintf_r+0xbca>
   13892:	1ac1                	addi	s5,s5,-16
   13894:	035b5c63          	bge	s6,s5,138cc <_vfprintf_r+0xbfe>
   13898:	0641                	addi	a2,a2,16
   1389a:	0785                	addi	a5,a5,1
   1389c:	01842023          	sw	s8,0(s0)
   138a0:	01642223          	sw	s6,4(s0)
   138a4:	c7b2                	sw	a2,204(sp)
   138a6:	c5be                	sw	a5,200(sp)
   138a8:	0421                	addi	s0,s0,8
   138aa:	fefcd4e3          	bge	s9,a5,13892 <_vfprintf_r+0xbc4>
   138ae:	01d0                	addi	a2,sp,196
   138b0:	85a6                	mv	a1,s1
   138b2:	856a                	mv	a0,s10
   138b4:	00002097          	auipc	ra,0x2
   138b8:	f46080e7          	jalr	-186(ra) # 157fa <__sprint_r>
   138bc:	ec051be3          	bnez	a0,13792 <_vfprintf_r+0xac4>
   138c0:	1ac1                	addi	s5,s5,-16
